
pal-riscv64:     file format elf64-littleriscv


Disassembly of section .text:

00000000830000e8 <maskToShift.part.0>:
    830000e8:	ff010113          	addi	sp,sp,-16
    830000ec:	0005b697          	auipc	a3,0x5b
    830000f0:	94468693          	addi	a3,a3,-1724 # 8305aa30 <cptbl_big5+0x13b80>
    830000f4:	0005e617          	auipc	a2,0x5e
    830000f8:	9a460613          	addi	a2,a2,-1628 # 8305da98 <__func__.2014>
    830000fc:	09600593          	li	a1,150
    83000100:	0005e517          	auipc	a0,0x5e
    83000104:	a4850513          	addi	a0,a0,-1464 # 8305db48 <__func__.2109+0x10>
    83000108:	00113423          	sd	ra,8(sp)
    8300010c:	00035097          	auipc	ra,0x35
    83000110:	d60080e7          	jalr	-672(ra) # 83034e6c <__assert_func>

0000000083000114 <_GLOBAL__sub_I__ZN5DBOPL8Operator15UpdateFrequencyEv>:
    83000114:	00007317          	auipc	t1,0x7
    83000118:	f6030067          	jr	-160(t1) # 83007074 <_ZN5DBOPL10InitTablesEv>

000000008300011c <main>:
    8300011c:	ff010113          	addi	sp,sp,-16
    83000120:	01d00513          	li	a0,29
    83000124:	00113423          	sd	ra,8(sp)
    83000128:	00813023          	sd	s0,0(sp)
    8300012c:	00042097          	auipc	ra,0x42
    83000130:	160080e7          	jalr	352(ra) # 8304228c <SDL_Init>
    83000134:	fff00793          	li	a5,-1
    83000138:	1cf50063          	beq	a0,a5,830002f8 <main+0x1dc>
    8300013c:	00100513          	li	a0,1
    83000140:	00069417          	auipc	s0,0x69
    83000144:	10840413          	addi	s0,s0,264 # 83069248 <gConfig>
    83000148:	00015097          	auipc	ra,0x15
    8300014c:	40c080e7          	jalr	1036(ra) # 83015554 <PAL_LoadConfig>
    83000150:	2c043783          	ld	a5,704(s0)
    83000154:	00078c63          	beqz	a5,8300016c <main+0x50>
    83000158:	30c42583          	lw	a1,780(s0)
    8300015c:	0002f517          	auipc	a0,0x2f
    83000160:	e4050513          	addi	a0,a0,-448 # 8302ef9c <UTIL_LogToFile>
    83000164:	0002f097          	auipc	ra,0x2f
    83000168:	c00080e7          	jalr	-1024(ra) # 8302ed64 <UTIL_LogAddOutputCallback>
    8300016c:	00013097          	auipc	ra,0x13
    83000170:	eac080e7          	jalr	-340(ra) # 83013018 <PAL_InitGlobals>
    83000174:	16051663          	bnez	a0,830002e0 <main+0x1c4>
    83000178:	0001c097          	auipc	ra,0x1c
    8300017c:	8c4080e7          	jalr	-1852(ra) # 8301ba3c <VIDEO_Startup>
    83000180:	14051463          	bnez	a0,830002c8 <main+0x1ac>
    83000184:	0005b517          	auipc	a0,0x5b
    83000188:	cbc50513          	addi	a0,a0,-836 # 8305ae40 <g_KeyMap+0x180>
    8300018c:	0001c097          	auipc	ra,0x1c
    83000190:	454080e7          	jalr	1108(ra) # 8301c5e0 <VIDEO_SetWindowTitle>
    83000194:	0000f097          	auipc	ra,0xf
    83000198:	fdc080e7          	jalr	-36(ra) # 8300f170 <PAL_InitUI>
    8300019c:	10051a63          	bnez	a0,830002b0 <main+0x194>
    830001a0:	0001b097          	auipc	ra,0x1b
    830001a4:	9c8080e7          	jalr	-1592(ra) # 8301ab68 <PAL_InitText>
    830001a8:	0e051863          	bnez	a0,83000298 <main+0x17c>
    830001ac:	00069517          	auipc	a0,0x69
    830001b0:	09c50513          	addi	a0,a0,156 # 83069248 <gConfig>
    830001b4:	00017097          	auipc	ra,0x17
    830001b8:	664080e7          	jalr	1636(ra) # 83017818 <PAL_InitFont>
    830001bc:	0c051263          	bnez	a0,83000280 <main+0x164>
    830001c0:	0001c097          	auipc	ra,0x1c
    830001c4:	60c080e7          	jalr	1548(ra) # 8301c7cc <PAL_InitInput>
    830001c8:	00012097          	auipc	ra,0x12
    830001cc:	eb0080e7          	jalr	-336(ra) # 83012078 <PAL_InitResources>
    830001d0:	00000097          	auipc	ra,0x0
    830001d4:	794080e7          	jalr	1940(ra) # 83000964 <AUDIO_OpenDevice>
    830001d8:	0002c097          	auipc	ra,0x2c
    830001dc:	dac080e7          	jalr	-596(ra) # 8302bf84 <PAL_AVIInit>
    830001e0:	00000513          	li	a0,0
    830001e4:	0002f097          	auipc	ra,0x2f
    830001e8:	b5c080e7          	jalr	-1188(ra) # 8302ed40 <UTIL_GlobalBuffer>
    830001ec:	32442783          	lw	a5,804(s0)
    830001f0:	0005b697          	auipc	a3,0x5b
    830001f4:	bd068693          	addi	a3,a3,-1072 # 8305adc0 <g_KeyMap+0x100>
    830001f8:	00079663          	bnez	a5,83000204 <main+0xe8>
    830001fc:	0005b697          	auipc	a3,0x5b
    83000200:	bcc68693          	addi	a3,a3,-1076 # 8305adc8 <g_KeyMap+0x108>
    83000204:	34c42783          	lw	a5,844(s0)
    83000208:	0005b817          	auipc	a6,0x5b
    8300020c:	c3080813          	addi	a6,a6,-976 # 8305ae38 <g_KeyMap+0x178>
    83000210:	00078663          	beqz	a5,8300021c <main+0x100>
    83000214:	2d043803          	ld	a6,720(s0)
    83000218:	10080063          	beqz	a6,83000318 <main+0x1fc>
    8300021c:	0005b797          	auipc	a5,0x5b
    83000220:	c1c78793          	addi	a5,a5,-996 # 8305ae38 <g_KeyMap+0x178>
    83000224:	0005b617          	auipc	a2,0x5b
    83000228:	ca460613          	addi	a2,a2,-860 # 8305aec8 <g_KeyMap+0x208>
    8300022c:	40000593          	li	a1,1024
    83000230:	00078713          	mv	a4,a5
    83000234:	0002e097          	auipc	ra,0x2e
    83000238:	234080e7          	jalr	564(ra) # 8302e468 <UTIL_va>
    8300023c:	0001c097          	auipc	ra,0x1c
    83000240:	3a4080e7          	jalr	932(ra) # 8301c5e0 <VIDEO_SetWindowTitle>
    83000244:	0001d097          	auipc	ra,0x1d
    83000248:	634080e7          	jalr	1588(ra) # 8301d878 <PAL_TrademarkScreen>
    8300024c:	0001d097          	auipc	ra,0x1d
    83000250:	69c080e7          	jalr	1692(ra) # 8301d8e8 <PAL_SplashScreen>
    83000254:	00035097          	auipc	ra,0x35
    83000258:	a00080e7          	jalr	-1536(ra) # 83034c54 <PAL_GameMain>
    8300025c:	00045697          	auipc	a3,0x45
    83000260:	8e468693          	addi	a3,a3,-1820 # 83044b40 <__func__.5661+0x170>
    83000264:	00063617          	auipc	a2,0x63
    83000268:	14c60613          	addi	a2,a2,332 # 830633b0 <__func__.5216>
    8300026c:	1e200593          	li	a1,482
    83000270:	0005b517          	auipc	a0,0x5b
    83000274:	c6850513          	addi	a0,a0,-920 # 8305aed8 <g_KeyMap+0x218>
    83000278:	00035097          	auipc	ra,0x35
    8300027c:	bf4080e7          	jalr	-1036(ra) # 83034e6c <__assert_func>
    83000280:	00050593          	mv	a1,a0
    83000284:	0005b517          	auipc	a0,0x5b
    83000288:	c2450513          	addi	a0,a0,-988 # 8305aea8 <g_KeyMap+0x1e8>
    8300028c:	0002e097          	auipc	ra,0x2e
    83000290:	33c080e7          	jalr	828(ra) # 8302e5c8 <TerminateOnError>
    83000294:	f2dff06f          	j	830001c0 <main+0xa4>
    83000298:	00050593          	mv	a1,a0
    8300029c:	0005b517          	auipc	a0,0x5b
    830002a0:	bdc50513          	addi	a0,a0,-1060 # 8305ae78 <g_KeyMap+0x1b8>
    830002a4:	0002e097          	auipc	ra,0x2e
    830002a8:	324080e7          	jalr	804(ra) # 8302e5c8 <TerminateOnError>
    830002ac:	f01ff06f          	j	830001ac <main+0x90>
    830002b0:	00050593          	mv	a1,a0
    830002b4:	0005b517          	auipc	a0,0x5b
    830002b8:	b9c50513          	addi	a0,a0,-1124 # 8305ae50 <g_KeyMap+0x190>
    830002bc:	0002e097          	auipc	ra,0x2e
    830002c0:	30c080e7          	jalr	780(ra) # 8302e5c8 <TerminateOnError>
    830002c4:	eddff06f          	j	830001a0 <main+0x84>
    830002c8:	00050593          	mv	a1,a0
    830002cc:	0005b517          	auipc	a0,0x5b
    830002d0:	b4c50513          	addi	a0,a0,-1204 # 8305ae18 <g_KeyMap+0x158>
    830002d4:	0002e097          	auipc	ra,0x2e
    830002d8:	2f4080e7          	jalr	756(ra) # 8302e5c8 <TerminateOnError>
    830002dc:	ea9ff06f          	j	83000184 <main+0x68>
    830002e0:	00050593          	mv	a1,a0
    830002e4:	0005b517          	auipc	a0,0x5b
    830002e8:	b0c50513          	addi	a0,a0,-1268 # 8305adf0 <g_KeyMap+0x130>
    830002ec:	0002e097          	auipc	ra,0x2e
    830002f0:	2dc080e7          	jalr	732(ra) # 8302e5c8 <TerminateOnError>
    830002f4:	e85ff06f          	j	83000178 <main+0x5c>
    830002f8:	00042097          	auipc	ra,0x42
    830002fc:	038080e7          	jalr	56(ra) # 83042330 <SDL_GetError>
    83000300:	00050593          	mv	a1,a0
    83000304:	0005b517          	auipc	a0,0x5b
    83000308:	acc50513          	addi	a0,a0,-1332 # 8305add0 <g_KeyMap+0x110>
    8300030c:	0002e097          	auipc	ra,0x2e
    83000310:	2bc080e7          	jalr	700(ra) # 8302e5c8 <TerminateOnError>
    83000314:	e29ff06f          	j	8300013c <main+0x20>
    83000318:	0005b817          	auipc	a6,0x5b
    8300031c:	b2080813          	addi	a6,a6,-1248 # 8305ae38 <g_KeyMap+0x178>
    83000320:	efdff06f          	j	8300021c <main+0x100>

0000000083000324 <MP3_Init>:
    83000324:	00000513          	li	a0,0
    83000328:	00008067          	ret

000000008300032c <resampler_fill>:
    8300032c:	ff010113          	addi	sp,sp,-16
    83000330:	00813423          	sd	s0,8(sp)
    83000334:	00452403          	lw	s0,4(a0)
    83000338:	00913023          	sd	s1,0(sp)
    8300033c:	00100793          	li	a5,1
    83000340:	1287d663          	bge	a5,s0,8300046c <resampler_fill+0x140>
    83000344:	00c52783          	lw	a5,12(a0)
    83000348:	03f00713          	li	a4,63
    8300034c:	12f74063          	blt	a4,a5,8300046c <resampler_fill+0x140>
    83000350:	01052683          	lw	a3,16(a0)
    83000354:	00010f37          	lui	t5,0x10
    83000358:	22450e93          	addi	t4,a0,548
    8300035c:	02450f93          	addi	t6,a0,36
    83000360:	04000e13          	li	t3,64
    83000364:	ffff0f13          	addi	t5,t5,-1 # ffff <maskToShift.part.0-0x82ff00e9>
    83000368:	00100293          	li	t0,1
    8300036c:	03f00393          	li	t2,63
    83000370:	00852803          	lw	a6,8(a0)
    83000374:	40fe08bb          	subw	a7,t3,a5
    83000378:	00088593          	mv	a1,a7
    8300037c:	00f807bb          	addw	a5,a6,a5
    83000380:	41f7d81b          	sraiw	a6,a5,0x1f
    83000384:	01a8571b          	srliw	a4,a6,0x1a
    83000388:	00e787bb          	addw	a5,a5,a4
    8300038c:	03f7f813          	andi	a6,a5,63
    83000390:	40e807bb          	subw	a5,a6,a4
    83000394:	00078813          	mv	a6,a5
    83000398:	40fe063b          	subw	a2,t3,a5
    8300039c:	00279793          	slli	a5,a5,0x2
    830003a0:	00fe87b3          	add	a5,t4,a5
    830003a4:	01165463          	bge	a2,a7,830003ac <resampler_fill+0x80>
    830003a8:	0006059b          	sext.w	a1,a2
    830003ac:	00052703          	lw	a4,0(a0)
    830003b0:	00259593          	slli	a1,a1,0x2
    830003b4:	00b785b3          	add	a1,a5,a1
    830003b8:	04070713          	addi	a4,a4,64
    830003bc:	40870733          	sub	a4,a4,s0
    830003c0:	00271713          	slli	a4,a4,0x2
    830003c4:	fff4041b          	addiw	s0,s0,-1
    830003c8:	00ef88b3          	add	a7,t6,a4
    830003cc:	00241413          	slli	s0,s0,0x2
    830003d0:	00888433          	add	s0,a7,s0
    830003d4:	0006869b          	sext.w	a3,a3
    830003d8:	01452483          	lw	s1,20(a0)
    830003dc:	0ab7f063          	bgeu	a5,a1,8300047c <resampler_fill+0x150>
    830003e0:	009686bb          	addw	a3,a3,s1
    830003e4:	0008a703          	lw	a4,0(a7)
    830003e8:	40a6d61b          	sraiw	a2,a3,0xa
    830003ec:	00261613          	slli	a2,a2,0x2
    830003f0:	00e7a023          	sw	a4,0(a5)
    830003f4:	00c88733          	add	a4,a7,a2
    830003f8:	00478793          	addi	a5,a5,4
    830003fc:	3ff6f693          	andi	a3,a3,1023
    83000400:	08877263          	bgeu	a4,s0,83000484 <resampler_fill+0x158>
    83000404:	00d4833b          	addw	t1,s1,a3
    83000408:	40a3561b          	sraiw	a2,t1,0xa
    8300040c:	00261613          	slli	a2,a2,0x2
    83000410:	00b7fe63          	bgeu	a5,a1,8300042c <resampler_fill+0x100>
    83000414:	00072683          	lw	a3,0(a4)
    83000418:	00478793          	addi	a5,a5,4
    8300041c:	00c70733          	add	a4,a4,a2
    83000420:	fed7ae23          	sw	a3,-4(a5)
    83000424:	3ff37693          	andi	a3,t1,1023
    83000428:	fc876ee3          	bltu	a4,s0,83000404 <resampler_fill+0xd8>
    8300042c:	41170733          	sub	a4,a4,a7
    83000430:	40275713          	srai	a4,a4,0x2
    83000434:	0007071b          	sext.w	a4,a4
    83000438:	00c52603          	lw	a2,12(a0)
    8300043c:	00452583          	lw	a1,4(a0)
    83000440:	41d787b3          	sub	a5,a5,t4
    83000444:	4027d793          	srai	a5,a5,0x2
    83000448:	4106083b          	subw	a6,a2,a6
    8300044c:	40e5843b          	subw	s0,a1,a4
    83000450:	00f807bb          	addw	a5,a6,a5
    83000454:	01e6f6b3          	and	a3,a3,t5
    83000458:	00d52823          	sw	a3,16(a0)
    8300045c:	00852223          	sw	s0,4(a0)
    83000460:	00f52623          	sw	a5,12(a0)
    83000464:	0082d463          	bge	t0,s0,8300046c <resampler_fill+0x140>
    83000468:	f0f3d4e3          	bge	t2,a5,83000370 <resampler_fill+0x44>
    8300046c:	00813403          	ld	s0,8(sp)
    83000470:	00013483          	ld	s1,0(sp)
    83000474:	01010113          	addi	sp,sp,16
    83000478:	00008067          	ret
    8300047c:	00000713          	li	a4,0
    83000480:	fb9ff06f          	j	83000438 <resampler_fill+0x10c>
    83000484:	40265713          	srai	a4,a2,0x2
    83000488:	0007071b          	sext.w	a4,a4
    8300048c:	fadff06f          	j	83000438 <resampler_fill+0x10c>

0000000083000490 <resampler_init>:
    83000490:	00008067          	ret

0000000083000494 <resampler_create>:
    83000494:	ff010113          	addi	sp,sp,-16
    83000498:	3a000513          	li	a0,928
    8300049c:	00813023          	sd	s0,0(sp)
    830004a0:	00113423          	sd	ra,8(sp)
    830004a4:	00035097          	auipc	ra,0x35
    830004a8:	998080e7          	jalr	-1640(ra) # 83034e3c <malloc>
    830004ac:	00050413          	mv	s0,a0
    830004b0:	06050063          	beqz	a0,83000510 <resampler_create+0x7c>
    830004b4:	00f00793          	li	a5,15
    830004b8:	00f42023          	sw	a5,0(s0)
    830004bc:	f0400793          	li	a5,-252
    830004c0:	02f41023          	sh	a5,32(s0)
    830004c4:	fff00793          	li	a5,-1
    830004c8:	20000613          	li	a2,512
    830004cc:	00000593          	li	a1,0
    830004d0:	02450513          	addi	a0,a0,36
    830004d4:	00042223          	sw	zero,4(s0)
    830004d8:	00042423          	sw	zero,8(s0)
    830004dc:	00042623          	sw	zero,12(s0)
    830004e0:	00042823          	sw	zero,16(s0)
    830004e4:	00042a23          	sw	zero,20(s0)
    830004e8:	00042c23          	sw	zero,24(s0)
    830004ec:	00042e23          	sw	zero,28(s0)
    830004f0:	02f40123          	sb	a5,34(s0)
    830004f4:	00036097          	auipc	ra,0x36
    830004f8:	7c4080e7          	jalr	1988(ra) # 83036cb8 <memset>
    830004fc:	17c00613          	li	a2,380
    83000500:	00000593          	li	a1,0
    83000504:	22440513          	addi	a0,s0,548
    83000508:	00036097          	auipc	ra,0x36
    8300050c:	7b0080e7          	jalr	1968(ra) # 83036cb8 <memset>
    83000510:	00040513          	mv	a0,s0
    83000514:	00813083          	ld	ra,8(sp)
    83000518:	00013403          	ld	s0,0(sp)
    8300051c:	01010113          	addi	sp,sp,16
    83000520:	00008067          	ret

0000000083000524 <resampler_delete>:
    83000524:	00035317          	auipc	t1,0x35
    83000528:	93030067          	jr	-1744(t1) # 83034e54 <free>

000000008300052c <resampler_set_quality>:
    8300052c:	02054783          	lbu	a5,32(a0)
    83000530:	00078863          	beqz	a5,83000540 <resampler_set_quality+0x14>
    83000534:	fff00793          	li	a5,-1
    83000538:	02f500a3          	sb	a5,33(a0)
    8300053c:	02f50123          	sb	a5,34(a0)
    83000540:	02050023          	sb	zero,32(a0)
    83000544:	00008067          	ret

0000000083000548 <resampler_get_free_count>:
    83000548:	00452783          	lw	a5,4(a0)
    8300054c:	04000513          	li	a0,64
    83000550:	40f5053b          	subw	a0,a0,a5
    83000554:	00008067          	ret

0000000083000558 <resampler_clear>:
    83000558:	ff010113          	addi	sp,sp,-16
    8300055c:	00813023          	sd	s0,0(sp)
    83000560:	00113423          	sd	ra,8(sp)
    83000564:	fff00793          	li	a5,-1
    83000568:	00f00713          	li	a4,15
    8300056c:	00050413          	mv	s0,a0
    83000570:	03c00613          	li	a2,60
    83000574:	00000593          	li	a1,0
    83000578:	00e52023          	sw	a4,0(a0)
    8300057c:	00052223          	sw	zero,4(a0)
    83000580:	00052423          	sw	zero,8(a0)
    83000584:	00052623          	sw	zero,12(a0)
    83000588:	00052823          	sw	zero,16(a0)
    8300058c:	02f500a3          	sb	a5,33(a0)
    83000590:	02f50123          	sb	a5,34(a0)
    83000594:	02450513          	addi	a0,a0,36
    83000598:	00036097          	auipc	ra,0x36
    8300059c:	720080e7          	jalr	1824(ra) # 83036cb8 <memset>
    830005a0:	12440513          	addi	a0,s0,292
    830005a4:	00013403          	ld	s0,0(sp)
    830005a8:	00813083          	ld	ra,8(sp)
    830005ac:	03c00613          	li	a2,60
    830005b0:	00000593          	li	a1,0
    830005b4:	01010113          	addi	sp,sp,16
    830005b8:	00036317          	auipc	t1,0x36
    830005bc:	70030067          	jr	1792(t1) # 83036cb8 <memset>

00000000830005c0 <resampler_set_rate>:
    830005c0:	00a6179b          	slliw	a5,a2,0xa
    830005c4:	00a5971b          	slliw	a4,a1,0xa
    830005c8:	02c7563b          	divuw	a2,a4,a2
    830005cc:	02b7d7bb          	divuw	a5,a5,a1
    830005d0:	00c52a23          	sw	a2,20(a0)
    830005d4:	00f52e23          	sw	a5,28(a0)
    830005d8:	00008067          	ret

00000000830005dc <resampler_write_sample>:
    830005dc:	02150783          	lb	a5,33(a0)
    830005e0:	0007ca63          	bltz	a5,830005f4 <resampler_write_sample+0x18>
    830005e4:	00452783          	lw	a5,4(a0)
    830005e8:	03f00713          	li	a4,63
    830005ec:	04f75663          	bge	a4,a5,83000638 <resampler_write_sample+0x5c>
    830005f0:	00008067          	ret
    830005f4:	020500a3          	sb	zero,33(a0)
    830005f8:	00100613          	li	a2,1
    830005fc:	00052703          	lw	a4,0(a0)
    83000600:	0085959b          	slliw	a1,a1,0x8
    83000604:	0017079b          	addiw	a5,a4,1
    83000608:	41f7d69b          	sraiw	a3,a5,0x1f
    8300060c:	01a6d69b          	srliw	a3,a3,0x1a
    83000610:	00271713          	slli	a4,a4,0x2
    83000614:	00d787bb          	addw	a5,a5,a3
    83000618:	00e50733          	add	a4,a0,a4
    8300061c:	03f7f793          	andi	a5,a5,63
    83000620:	02b72223          	sw	a1,36(a4)
    83000624:	12b72223          	sw	a1,292(a4)
    83000628:	40d787bb          	subw	a5,a5,a3
    8300062c:	00c52223          	sw	a2,4(a0)
    83000630:	00f52023          	sw	a5,0(a0)
    83000634:	00008067          	ret
    83000638:	0017861b          	addiw	a2,a5,1
    8300063c:	fc1ff06f          	j	830005fc <resampler_write_sample+0x20>

0000000083000640 <resampler_get_sample_count>:
    83000640:	00c52783          	lw	a5,12(a0)
    83000644:	00f05663          	blez	a5,83000650 <resampler_get_sample_count+0x10>
    83000648:	00078513          	mv	a0,a5
    8300064c:	00008067          	ret
    83000650:	ff010113          	addi	sp,sp,-16
    83000654:	00813023          	sd	s0,0(sp)
    83000658:	00113423          	sd	ra,8(sp)
    8300065c:	00050413          	mv	s0,a0
    83000660:	00000097          	auipc	ra,0x0
    83000664:	ccc080e7          	jalr	-820(ra) # 8300032c <resampler_fill>
    83000668:	02240783          	lb	a5,34(s0)
    8300066c:	0007ce63          	bltz	a5,83000688 <resampler_get_sample_count+0x48>
    83000670:	00c42783          	lw	a5,12(s0)
    83000674:	00813083          	ld	ra,8(sp)
    83000678:	00013403          	ld	s0,0(sp)
    8300067c:	00078513          	mv	a0,a5
    83000680:	01010113          	addi	sp,sp,16
    83000684:	00008067          	ret
    83000688:	00c42783          	lw	a5,12(s0)
    8300068c:	02040123          	sb	zero,34(s0)
    83000690:	fe5ff06f          	j	83000674 <resampler_get_sample_count+0x34>

0000000083000694 <resampler_get_sample>:
    83000694:	00c52783          	lw	a5,12(a0)
    83000698:	ff010113          	addi	sp,sp,-16
    8300069c:	00813023          	sd	s0,0(sp)
    830006a0:	00113423          	sd	ra,8(sp)
    830006a4:	00050413          	mv	s0,a0
    830006a8:	02f05463          	blez	a5,830006d0 <resampler_get_sample+0x3c>
    830006ac:	00842783          	lw	a5,8(s0)
    830006b0:	00813083          	ld	ra,8(sp)
    830006b4:	08878793          	addi	a5,a5,136
    830006b8:	00279793          	slli	a5,a5,0x2
    830006bc:	00f40433          	add	s0,s0,a5
    830006c0:	00442503          	lw	a0,4(s0)
    830006c4:	00013403          	ld	s0,0(sp)
    830006c8:	01010113          	addi	sp,sp,16
    830006cc:	00008067          	ret
    830006d0:	01452783          	lw	a5,20(a0)
    830006d4:	00079c63          	bnez	a5,830006ec <resampler_get_sample+0x58>
    830006d8:	00000513          	li	a0,0
    830006dc:	00813083          	ld	ra,8(sp)
    830006e0:	00013403          	ld	s0,0(sp)
    830006e4:	01010113          	addi	sp,sp,16
    830006e8:	00008067          	ret
    830006ec:	00000097          	auipc	ra,0x0
    830006f0:	c40080e7          	jalr	-960(ra) # 8300032c <resampler_fill>
    830006f4:	02240783          	lb	a5,34(s0)
    830006f8:	0007d463          	bgez	a5,83000700 <resampler_get_sample+0x6c>
    830006fc:	02040123          	sb	zero,34(s0)
    83000700:	00c42783          	lw	a5,12(s0)
    83000704:	faf044e3          	bgtz	a5,830006ac <resampler_get_sample+0x18>
    83000708:	00000513          	li	a0,0
    8300070c:	fd1ff06f          	j	830006dc <resampler_get_sample+0x48>

0000000083000710 <resampler_remove_sample>:
    83000710:	00c52703          	lw	a4,12(a0)
    83000714:	02e05663          	blez	a4,83000740 <resampler_remove_sample+0x30>
    83000718:	00852783          	lw	a5,8(a0)
    8300071c:	fff7071b          	addiw	a4,a4,-1
    83000720:	00e52623          	sw	a4,12(a0)
    83000724:	0017879b          	addiw	a5,a5,1
    83000728:	41f7d71b          	sraiw	a4,a5,0x1f
    8300072c:	01a7571b          	srliw	a4,a4,0x1a
    83000730:	00e787bb          	addw	a5,a5,a4
    83000734:	03f7f793          	andi	a5,a5,63
    83000738:	40e787bb          	subw	a5,a5,a4
    8300073c:	00f52423          	sw	a5,8(a0)
    83000740:	00008067          	ret

0000000083000744 <AUDIO_FillBuffer>:
    83000744:	fd010113          	addi	sp,sp,-48
    83000748:	02813023          	sd	s0,32(sp)
    8300074c:	00058513          	mv	a0,a1
    83000750:	00058413          	mv	s0,a1
    83000754:	00000593          	li	a1,0
    83000758:	00913c23          	sd	s1,24(sp)
    8300075c:	01313423          	sd	s3,8(sp)
    83000760:	02113423          	sd	ra,40(sp)
    83000764:	01213823          	sd	s2,16(sp)
    83000768:	00063497          	auipc	s1,0x63
    8300076c:	de848493          	addi	s1,s1,-536 # 83063550 <gAudioDevice>
    83000770:	00060993          	mv	s3,a2
    83000774:	00036097          	auipc	ra,0x36
    83000778:	544080e7          	jalr	1348(ra) # 83036cb8 <memset>
    8300077c:	0484a783          	lw	a5,72(s1)
    83000780:	08078a63          	beqz	a5,83000814 <AUDIO_FillBuffer+0xd0>
    83000784:	0404a783          	lw	a5,64(s1)
    83000788:	08f05663          	blez	a5,83000814 <AUDIO_FillBuffer+0xd0>
    8300078c:	0204b503          	ld	a0,32(s1)
    83000790:	00050a63          	beqz	a0,830007a4 <AUDIO_FillBuffer+0x60>
    83000794:	01853783          	ld	a5,24(a0)
    83000798:	00098613          	mv	a2,s3
    8300079c:	00040593          	mv	a1,s0
    830007a0:	000780e7          	jalr	a5
    830007a4:	0284b503          	ld	a0,40(s1)
    830007a8:	00050a63          	beqz	a0,830007bc <AUDIO_FillBuffer+0x78>
    830007ac:	01853783          	ld	a5,24(a0)
    830007b0:	00098613          	mv	a2,s3
    830007b4:	00040593          	mv	a1,s0
    830007b8:	000780e7          	jalr	a5
    830007bc:	0404a583          	lw	a1,64(s1)
    830007c0:	08000793          	li	a5,128
    830007c4:	04f58863          	beq	a1,a5,83000814 <AUDIO_FillBuffer+0xd0>
    830007c8:	14058663          	beqz	a1,83000914 <AUDIO_FillBuffer+0x1d0>
    830007cc:	4019d71b          	sraiw	a4,s3,0x1
    830007d0:	04e05263          	blez	a4,83000814 <AUDIO_FillBuffer+0xd0>
    830007d4:	fff7061b          	addiw	a2,a4,-1
    830007d8:	02061613          	slli	a2,a2,0x20
    830007dc:	02065613          	srli	a2,a2,0x20
    830007e0:	00160613          	addi	a2,a2,1
    830007e4:	00161613          	slli	a2,a2,0x1
    830007e8:	00c40633          	add	a2,s0,a2
    830007ec:	00040713          	mv	a4,s0
    830007f0:	00071783          	lh	a5,0(a4)
    830007f4:	00270713          	addi	a4,a4,2
    830007f8:	02b786bb          	mulw	a3,a5,a1
    830007fc:	41f6d79b          	sraiw	a5,a3,0x1f
    83000800:	0197d79b          	srliw	a5,a5,0x19
    83000804:	00d787bb          	addw	a5,a5,a3
    83000808:	4077d79b          	sraiw	a5,a5,0x7
    8300080c:	fef71f23          	sh	a5,-2(a4)
    83000810:	fec710e3          	bne	a4,a2,830007f0 <AUDIO_FillBuffer+0xac>
    83000814:	04c4a783          	lw	a5,76(s1)
    83000818:	0e078063          	beqz	a5,830008f8 <AUDIO_FillBuffer+0x1b4>
    8300081c:	0304b783          	ld	a5,48(s1)
    83000820:	0c078c63          	beqz	a5,830008f8 <AUDIO_FillBuffer+0x1b4>
    83000824:	0444a783          	lw	a5,68(s1)
    83000828:	0cf05863          	blez	a5,830008f8 <AUDIO_FillBuffer+0x1b4>
    8300082c:	0384b503          	ld	a0,56(s1)
    83000830:	00098613          	mv	a2,s3
    83000834:	00000593          	li	a1,0
    83000838:	00036097          	auipc	ra,0x36
    8300083c:	480080e7          	jalr	1152(ra) # 83036cb8 <memset>
    83000840:	0304b503          	ld	a0,48(s1)
    83000844:	0384b583          	ld	a1,56(s1)
    83000848:	00098613          	mv	a2,s3
    8300084c:	01853783          	ld	a5,24(a0)
    83000850:	4019d91b          	sraiw	s2,s3,0x1
    83000854:	000780e7          	jalr	a5
    83000858:	0444a583          	lw	a1,68(s1)
    8300085c:	08000713          	li	a4,128
    83000860:	0384b503          	ld	a0,56(s1)
    83000864:	0ce58e63          	beq	a1,a4,83000940 <AUDIO_FillBuffer+0x1fc>
    83000868:	0c058263          	beqz	a1,8300092c <AUDIO_FillBuffer+0x1e8>
    8300086c:	09205663          	blez	s2,830008f8 <AUDIO_FillBuffer+0x1b4>
    83000870:	fff9061b          	addiw	a2,s2,-1
    83000874:	02061613          	slli	a2,a2,0x20
    83000878:	02065613          	srli	a2,a2,0x20
    8300087c:	00160613          	addi	a2,a2,1
    83000880:	00161613          	slli	a2,a2,0x1
    83000884:	00c50633          	add	a2,a0,a2
    83000888:	00050713          	mv	a4,a0
    8300088c:	00071783          	lh	a5,0(a4)
    83000890:	00270713          	addi	a4,a4,2
    83000894:	02b786bb          	mulw	a3,a5,a1
    83000898:	41f6d79b          	sraiw	a5,a3,0x1f
    8300089c:	0197d79b          	srliw	a5,a5,0x19
    830008a0:	00d787bb          	addw	a5,a5,a3
    830008a4:	4077d79b          	sraiw	a5,a5,0x7
    830008a8:	fef71f23          	sh	a5,-2(a4)
    830008ac:	fec710e3          	bne	a4,a2,8300088c <AUDIO_FillBuffer+0x148>
    830008b0:	ffff8637          	lui	a2,0xffff8
    830008b4:	000086b7          	lui	a3,0x8
    830008b8:	ffff85b7          	lui	a1,0xffff8
    830008bc:	fff64613          	not	a2,a2
    830008c0:	0100006f          	j	830008d0 <AUDIO_FillBuffer+0x18c>
    830008c4:	fec41f23          	sh	a2,-2(s0)
    830008c8:	fff9091b          	addiw	s2,s2,-1
    830008cc:	02090663          	beqz	s2,830008f8 <AUDIO_FillBuffer+0x1b4>
    830008d0:	00250513          	addi	a0,a0,2
    830008d4:	00041703          	lh	a4,0(s0)
    830008d8:	ffe51783          	lh	a5,-2(a0)
    830008dc:	00240413          	addi	s0,s0,2
    830008e0:	00e787bb          	addw	a5,a5,a4
    830008e4:	fed7d0e3          	bge	a5,a3,830008c4 <AUDIO_FillBuffer+0x180>
    830008e8:	06b7d063          	bge	a5,a1,83000948 <AUDIO_FillBuffer+0x204>
    830008ec:	feb41f23          	sh	a1,-2(s0)
    830008f0:	fff9091b          	addiw	s2,s2,-1
    830008f4:	fc091ee3          	bnez	s2,830008d0 <AUDIO_FillBuffer+0x18c>
    830008f8:	02813083          	ld	ra,40(sp)
    830008fc:	02013403          	ld	s0,32(sp)
    83000900:	01813483          	ld	s1,24(sp)
    83000904:	01013903          	ld	s2,16(sp)
    83000908:	00813983          	ld	s3,8(sp)
    8300090c:	03010113          	addi	sp,sp,48
    83000910:	00008067          	ret
    83000914:	ffe9f613          	andi	a2,s3,-2
    83000918:	00000593          	li	a1,0
    8300091c:	00040513          	mv	a0,s0
    83000920:	00036097          	auipc	ra,0x36
    83000924:	398080e7          	jalr	920(ra) # 83036cb8 <memset>
    83000928:	eedff06f          	j	83000814 <AUDIO_FillBuffer+0xd0>
    8300092c:	ffe9f613          	andi	a2,s3,-2
    83000930:	00000593          	li	a1,0
    83000934:	00036097          	auipc	ra,0x36
    83000938:	384080e7          	jalr	900(ra) # 83036cb8 <memset>
    8300093c:	0384b503          	ld	a0,56(s1)
    83000940:	f72048e3          	bgtz	s2,830008b0 <AUDIO_FillBuffer+0x16c>
    83000944:	fb5ff06f          	j	830008f8 <AUDIO_FillBuffer+0x1b4>
    83000948:	fef41f23          	sh	a5,-2(s0)
    8300094c:	f7dff06f          	j	830008c8 <AUDIO_FillBuffer+0x184>

0000000083000950 <AUDIO_CD_Available>:
    83000950:	00069797          	auipc	a5,0x69
    83000954:	8f878793          	addi	a5,a5,-1800 # 83069248 <gConfig>
    83000958:	3147a503          	lw	a0,788(a5)
    8300095c:	00a03533          	snez	a0,a0
    83000960:	00008067          	ret

0000000083000964 <AUDIO_OpenDevice>:
    83000964:	fc010113          	addi	sp,sp,-64
    83000968:	02913423          	sd	s1,40(sp)
    8300096c:	00063497          	auipc	s1,0x63
    83000970:	be448493          	addi	s1,s1,-1052 # 83063550 <gAudioDevice>
    83000974:	0504a783          	lw	a5,80(s1)
    83000978:	02113c23          	sd	ra,56(sp)
    8300097c:	02813823          	sd	s0,48(sp)
    83000980:	03213023          	sd	s2,32(sp)
    83000984:	26079e63          	bnez	a5,83000c00 <AUDIO_OpenDevice+0x29c>
    83000988:	00069417          	auipc	s0,0x69
    8300098c:	8c040413          	addi	s0,s0,-1856 # 83069248 <gConfig>
    83000990:	30442503          	lw	a0,772(s0)
    83000994:	30842783          	lw	a5,776(s0)
    83000998:	06400613          	li	a2,100
    8300099c:	0075171b          	slliw	a4,a0,0x7
    830009a0:	0077979b          	slliw	a5,a5,0x7
    830009a4:	02c7473b          	divw	a4,a4,a2
    830009a8:	00100913          	li	s2,1
    830009ac:	02091693          	slli	a3,s2,0x20
    830009b0:	00168693          	addi	a3,a3,1 # 8001 <maskToShift.part.0-0x82ff80e7>
    830009b4:	00063597          	auipc	a1,0x63
    830009b8:	bed5b223          	sd	a3,-1052(a1) # 83063598 <gAudioDevice+0x48>
    830009bc:	00063697          	auipc	a3,0x63
    830009c0:	be06a223          	sw	zero,-1052(a3) # 830635a0 <gAudioDevice+0x50>
    830009c4:	02c7c7bb          	divw	a5,a5,a2
    830009c8:	00063697          	auipc	a3,0x63
    830009cc:	bce6a423          	sw	a4,-1080(a3) # 83063590 <gAudioDevice+0x40>
    830009d0:	00063717          	auipc	a4,0x63
    830009d4:	bcf72223          	sw	a5,-1084(a4) # 83063594 <gAudioDevice+0x44>
    830009d8:	00001097          	auipc	ra,0x1
    830009dc:	520080e7          	jalr	1312(ra) # 83001ef8 <MIDI_SetVolume>
    830009e0:	00000097          	auipc	ra,0x0
    830009e4:	ab0080e7          	jalr	-1360(ra) # 83000490 <resampler_init>
    830009e8:	2f842303          	lw	t1,760(s0)
    830009ec:	2f442883          	lw	a7,756(s0)
    830009f0:	00069817          	auipc	a6,0x69
    830009f4:	b7885803          	lhu	a6,-1160(a6) # 83069568 <gConfig+0x320>
    830009f8:	00030613          	mv	a2,t1
    830009fc:	00063e17          	auipc	t3,0x63
    83000a00:	b46e2a23          	sw	t1,-1196(t3) # 83063550 <gAudioDevice>
    83000a04:	01000313          	li	t1,16
    83000a08:	0ff8f713          	zext.b	a4,a7
    83000a0c:	00043597          	auipc	a1,0x43
    83000a10:	62c58593          	addi	a1,a1,1580 # 83044038 <_vfscanf_r+0x84>
    83000a14:	00000513          	li	a0,0
    83000a18:	00080793          	mv	a5,a6
    83000a1c:	00063e17          	auipc	t3,0x63
    83000a20:	b26e1c23          	sh	t1,-1224(t3) # 83063554 <gAudioDevice+0x4>
    83000a24:	01000693          	li	a3,16
    83000a28:	00063317          	auipc	t1,0x63
    83000a2c:	b3130723          	sb	a7,-1234(t1) # 83063556 <gAudioDevice+0x6>
    83000a30:	00063897          	auipc	a7,0x63
    83000a34:	b3089423          	sh	a6,-1240(a7) # 83063558 <gAudioDevice+0x8>
    83000a38:	00000817          	auipc	a6,0x0
    83000a3c:	d0c80813          	addi	a6,a6,-756 # 83000744 <AUDIO_FillBuffer>
    83000a40:	00063897          	auipc	a7,0x63
    83000a44:	b308b023          	sd	a6,-1248(a7) # 83063560 <gAudioDevice+0x10>
    83000a48:	0002e097          	auipc	ra,0x2e
    83000a4c:	378080e7          	jalr	888(ra) # 8302edc0 <UTIL_LogOutput>
    83000a50:	00010593          	mv	a1,sp
    83000a54:	00048513          	mv	a0,s1
    83000a58:	00040097          	auipc	ra,0x40
    83000a5c:	66c080e7          	jalr	1644(ra) # 830410c4 <SDL_OpenAudio>
    83000a60:	1a054463          	bltz	a0,83000c08 <AUDIO_OpenDevice+0x2a4>
    83000a64:	00614703          	lbu	a4,6(sp)
    83000a68:	00415683          	lhu	a3,4(sp)
    83000a6c:	00012603          	lw	a2,0(sp)
    83000a70:	00815783          	lhu	a5,8(sp)
    83000a74:	00043597          	auipc	a1,0x43
    83000a78:	66458593          	addi	a1,a1,1636 # 830440d8 <_vfscanf_r+0x124>
    83000a7c:	00000513          	li	a0,0
    83000a80:	0002e097          	auipc	ra,0x2e
    83000a84:	340080e7          	jalr	832(ra) # 8302edc0 <UTIL_LogOutput>
    83000a88:	2f442783          	lw	a5,756(s0)
    83000a8c:	00069517          	auipc	a0,0x69
    83000a90:	adc55503          	lhu	a0,-1316(a0) # 83069568 <gConfig+0x320>
    83000a94:	02f5053b          	mulw	a0,a0,a5
    83000a98:	00151513          	slli	a0,a0,0x1
    83000a9c:	00034097          	auipc	ra,0x34
    83000aa0:	3a0080e7          	jalr	928(ra) # 83034e3c <malloc>
    83000aa4:	00063797          	auipc	a5,0x63
    83000aa8:	aea7b223          	sd	a0,-1308(a5) # 83063588 <gAudioDevice+0x38>
    83000aac:	00063797          	auipc	a5,0x63
    83000ab0:	af27aa23          	sw	s2,-1292(a5) # 830635a0 <gAudioDevice+0x50>
    83000ab4:	00003097          	auipc	ra,0x3
    83000ab8:	88c080e7          	jalr	-1908(ra) # 83003340 <SOUND_Init>
    83000abc:	31042703          	lw	a4,784(s0)
    83000ac0:	00063797          	auipc	a5,0x63
    83000ac4:	aca7b023          	sd	a0,-1344(a5) # 83063580 <gAudioDevice+0x30>
    83000ac8:	00400793          	li	a5,4
    83000acc:	04e7ee63          	bltu	a5,a4,83000b28 <AUDIO_OpenDevice+0x1c4>
    83000ad0:	00069797          	auipc	a5,0x69
    83000ad4:	a887e783          	lwu	a5,-1400(a5) # 83069558 <gConfig+0x310>
    83000ad8:	00043717          	auipc	a4,0x43
    83000adc:	54870713          	addi	a4,a4,1352 # 83044020 <_vfscanf_r+0x6c>
    83000ae0:	00279793          	slli	a5,a5,0x2
    83000ae4:	00e787b3          	add	a5,a5,a4
    83000ae8:	0007a783          	lw	a5,0(a5)
    83000aec:	00e787b3          	add	a5,a5,a4
    83000af0:	00078067          	jr	a5
    83000af4:	00000513          	li	a0,0
    83000af8:	0002e097          	auipc	ra,0x2e
    83000afc:	248080e7          	jalr	584(ra) # 8302ed40 <UTIL_GlobalBuffer>
    83000b00:	29043603          	ld	a2,656(s0)
    83000b04:	00043697          	auipc	a3,0x43
    83000b08:	62468693          	addi	a3,a3,1572 # 83044128 <_vfscanf_r+0x174>
    83000b0c:	40000593          	li	a1,1024
    83000b10:	0002e097          	auipc	ra,0x2e
    83000b14:	e48080e7          	jalr	-440(ra) # 8302e958 <UTIL_GetFullPathName>
    83000b18:	00001097          	auipc	ra,0x1
    83000b1c:	af4080e7          	jalr	-1292(ra) # 8300160c <RIX_Init>
    83000b20:	00063797          	auipc	a5,0x63
    83000b24:	a4a7b823          	sd	a0,-1456(a5) # 83063570 <gAudioDevice+0x20>
    83000b28:	31442783          	lw	a5,788(s0)
    83000b2c:	00200713          	li	a4,2
    83000b30:	06e78063          	beq	a5,a4,83000b90 <AUDIO_OpenDevice+0x22c>
    83000b34:	00300713          	li	a4,3
    83000b38:	0ae78a63          	beq	a5,a4,83000bec <AUDIO_OpenDevice+0x288>
    83000b3c:	00100713          	li	a4,1
    83000b40:	08e78c63          	beq	a5,a4,83000bd8 <AUDIO_OpenDevice+0x274>
    83000b44:	00063797          	auipc	a5,0x63
    83000b48:	a207ba23          	sd	zero,-1484(a5) # 83063578 <gAudioDevice+0x28>
    83000b4c:	00000513          	li	a0,0
    83000b50:	00040097          	auipc	ra,0x40
    83000b54:	580080e7          	jalr	1408(ra) # 830410d0 <SDL_PauseAudio>
    83000b58:	00000513          	li	a0,0
    83000b5c:	03813083          	ld	ra,56(sp)
    83000b60:	03013403          	ld	s0,48(sp)
    83000b64:	02813483          	ld	s1,40(sp)
    83000b68:	02013903          	ld	s2,32(sp)
    83000b6c:	04010113          	addi	sp,sp,64
    83000b70:	00008067          	ret
    83000b74:	00003097          	auipc	ra,0x3
    83000b78:	92c080e7          	jalr	-1748(ra) # 830034a0 <OGG_Init>
    83000b7c:	00063797          	auipc	a5,0x63
    83000b80:	9ea7ba23          	sd	a0,-1548(a5) # 83063570 <gAudioDevice+0x20>
    83000b84:	31442783          	lw	a5,788(s0)
    83000b88:	00200713          	li	a4,2
    83000b8c:	fae794e3          	bne	a5,a4,83000b34 <AUDIO_OpenDevice+0x1d0>
    83000b90:	00003097          	auipc	ra,0x3
    83000b94:	910080e7          	jalr	-1776(ra) # 830034a0 <OGG_Init>
    83000b98:	00063797          	auipc	a5,0x63
    83000b9c:	9ea7b023          	sd	a0,-1568(a5) # 83063578 <gAudioDevice+0x28>
    83000ba0:	fadff06f          	j	83000b4c <AUDIO_OpenDevice+0x1e8>
    83000ba4:	00009097          	auipc	ra,0x9
    83000ba8:	834080e7          	jalr	-1996(ra) # 830093d8 <OPUS_Init>
    83000bac:	00063797          	auipc	a5,0x63
    83000bb0:	9ca7b223          	sd	a0,-1596(a5) # 83063570 <gAudioDevice+0x20>
    83000bb4:	f75ff06f          	j	83000b28 <AUDIO_OpenDevice+0x1c4>
    83000bb8:	00063797          	auipc	a5,0x63
    83000bbc:	9a07bc23          	sd	zero,-1608(a5) # 83063570 <gAudioDevice+0x20>
    83000bc0:	f69ff06f          	j	83000b28 <AUDIO_OpenDevice+0x1c4>
    83000bc4:	fffff097          	auipc	ra,0xfffff
    83000bc8:	760080e7          	jalr	1888(ra) # 83000324 <MP3_Init>
    83000bcc:	00063797          	auipc	a5,0x63
    83000bd0:	9aa7b223          	sd	a0,-1628(a5) # 83063570 <gAudioDevice+0x20>
    83000bd4:	f55ff06f          	j	83000b28 <AUDIO_OpenDevice+0x1c4>
    83000bd8:	fffff097          	auipc	ra,0xfffff
    83000bdc:	74c080e7          	jalr	1868(ra) # 83000324 <MP3_Init>
    83000be0:	00063797          	auipc	a5,0x63
    83000be4:	98a7bc23          	sd	a0,-1640(a5) # 83063578 <gAudioDevice+0x28>
    83000be8:	f65ff06f          	j	83000b4c <AUDIO_OpenDevice+0x1e8>
    83000bec:	00008097          	auipc	ra,0x8
    83000bf0:	7ec080e7          	jalr	2028(ra) # 830093d8 <OPUS_Init>
    83000bf4:	00063797          	auipc	a5,0x63
    83000bf8:	98a7b223          	sd	a0,-1660(a5) # 83063578 <gAudioDevice+0x28>
    83000bfc:	f51ff06f          	j	83000b4c <AUDIO_OpenDevice+0x1e8>
    83000c00:	fff00513          	li	a0,-1
    83000c04:	f59ff06f          	j	83000b5c <AUDIO_OpenDevice+0x1f8>
    83000c08:	00041097          	auipc	ra,0x41
    83000c0c:	728080e7          	jalr	1832(ra) # 83042330 <SDL_GetError>
    83000c10:	00815803          	lhu	a6,8(sp)
    83000c14:	00614783          	lbu	a5,6(sp)
    83000c18:	00415703          	lhu	a4,4(sp)
    83000c1c:	00012683          	lw	a3,0(sp)
    83000c20:	00050613          	mv	a2,a0
    83000c24:	00043597          	auipc	a1,0x43
    83000c28:	46458593          	addi	a1,a1,1124 # 83044088 <_vfscanf_r+0xd4>
    83000c2c:	00000513          	li	a0,0
    83000c30:	0002e097          	auipc	ra,0x2e
    83000c34:	190080e7          	jalr	400(ra) # 8302edc0 <UTIL_LogOutput>
    83000c38:	ffd00513          	li	a0,-3
    83000c3c:	f21ff06f          	j	83000b5c <AUDIO_OpenDevice+0x1f8>

0000000083000c40 <AUDIO_CloseDevice>:
    83000c40:	ff010113          	addi	sp,sp,-16
    83000c44:	00813023          	sd	s0,0(sp)
    83000c48:	00113423          	sd	ra,8(sp)
    83000c4c:	00063417          	auipc	s0,0x63
    83000c50:	90440413          	addi	s0,s0,-1788 # 83063550 <gAudioDevice>
    83000c54:	00040097          	auipc	ra,0x40
    83000c58:	478080e7          	jalr	1144(ra) # 830410cc <SDL_CloseAudio>
    83000c5c:	03043503          	ld	a0,48(s0)
    83000c60:	00050a63          	beqz	a0,83000c74 <AUDIO_CloseDevice+0x34>
    83000c64:	00853783          	ld	a5,8(a0)
    83000c68:	000780e7          	jalr	a5
    83000c6c:	00063797          	auipc	a5,0x63
    83000c70:	9007ba23          	sd	zero,-1772(a5) # 83063580 <gAudioDevice+0x30>
    83000c74:	02043503          	ld	a0,32(s0)
    83000c78:	00050a63          	beqz	a0,83000c8c <AUDIO_CloseDevice+0x4c>
    83000c7c:	00853783          	ld	a5,8(a0)
    83000c80:	000780e7          	jalr	a5
    83000c84:	00063797          	auipc	a5,0x63
    83000c88:	8e07b623          	sd	zero,-1812(a5) # 83063570 <gAudioDevice+0x20>
    83000c8c:	02843503          	ld	a0,40(s0)
    83000c90:	00050a63          	beqz	a0,83000ca4 <AUDIO_CloseDevice+0x64>
    83000c94:	00853783          	ld	a5,8(a0)
    83000c98:	000780e7          	jalr	a5
    83000c9c:	00063797          	auipc	a5,0x63
    83000ca0:	8c07be23          	sd	zero,-1828(a5) # 83063578 <gAudioDevice+0x28>
    83000ca4:	03843503          	ld	a0,56(s0)
    83000ca8:	00050a63          	beqz	a0,83000cbc <AUDIO_CloseDevice+0x7c>
    83000cac:	00034097          	auipc	ra,0x34
    83000cb0:	1a8080e7          	jalr	424(ra) # 83034e54 <free>
    83000cb4:	00063797          	auipc	a5,0x63
    83000cb8:	8c07ba23          	sd	zero,-1836(a5) # 83063588 <gAudioDevice+0x38>
    83000cbc:	00068797          	auipc	a5,0x68
    83000cc0:	58c78793          	addi	a5,a5,1420 # 83069248 <gConfig>
    83000cc4:	3107a783          	lw	a5,784(a5)
    83000cc8:	00079a63          	bnez	a5,83000cdc <AUDIO_CloseDevice+0x9c>
    83000ccc:	00000593          	li	a1,0
    83000cd0:	00000513          	li	a0,0
    83000cd4:	00001097          	auipc	ra,0x1
    83000cd8:	228080e7          	jalr	552(ra) # 83001efc <MIDI_Play>
    83000cdc:	00813083          	ld	ra,8(sp)
    83000ce0:	00013403          	ld	s0,0(sp)
    83000ce4:	00063797          	auipc	a5,0x63
    83000ce8:	8a07ae23          	sw	zero,-1860(a5) # 830635a0 <gAudioDevice+0x50>
    83000cec:	01010113          	addi	sp,sp,16
    83000cf0:	00008067          	ret

0000000083000cf4 <AUDIO_GetDeviceSpec>:
    83000cf4:	00063517          	auipc	a0,0x63
    83000cf8:	85c50513          	addi	a0,a0,-1956 # 83063550 <gAudioDevice>
    83000cfc:	00008067          	ret

0000000083000d00 <AUDIO_PlaySound>:
    83000d00:	fe010113          	addi	sp,sp,-32
    83000d04:	00063797          	auipc	a5,0x63
    83000d08:	84c78793          	addi	a5,a5,-1972 # 83063550 <gAudioDevice>
    83000d0c:	00813823          	sd	s0,16(sp)
    83000d10:	0307b403          	ld	s0,48(a5)
    83000d14:	00113c23          	sd	ra,24(sp)
    83000d18:	00913423          	sd	s1,8(sp)
    83000d1c:	02040c63          	beqz	s0,83000d54 <AUDIO_PlaySound+0x54>
    83000d20:	01043483          	ld	s1,16(s0)
    83000d24:	00035097          	auipc	ra,0x35
    83000d28:	308080e7          	jalr	776(ra) # 8303602c <abs>
    83000d2c:	00050593          	mv	a1,a0
    83000d30:	00040513          	mv	a0,s0
    83000d34:	01013403          	ld	s0,16(sp)
    83000d38:	01813083          	ld	ra,24(sp)
    83000d3c:	00048313          	mv	t1,s1
    83000d40:	00813483          	ld	s1,8(sp)
    83000d44:	00000693          	li	a3,0
    83000d48:	00000613          	li	a2,0
    83000d4c:	02010113          	addi	sp,sp,32
    83000d50:	00030067          	jr	t1
    83000d54:	01813083          	ld	ra,24(sp)
    83000d58:	01013403          	ld	s0,16(sp)
    83000d5c:	00813483          	ld	s1,8(sp)
    83000d60:	02010113          	addi	sp,sp,32
    83000d64:	00008067          	ret

0000000083000d68 <AUDIO_PlayCDTrack>:
    83000d68:	fe010113          	addi	sp,sp,-32
    83000d6c:	00813823          	sd	s0,16(sp)
    83000d70:	00113c23          	sd	ra,24(sp)
    83000d74:	00913423          	sd	s1,8(sp)
    83000d78:	01213023          	sd	s2,0(sp)
    83000d7c:	00050413          	mv	s0,a0
    83000d80:	0aa04463          	bgtz	a0,83000e28 <AUDIO_PlayCDTrack+0xc0>
    83000d84:	ffe00793          	li	a5,-2
    83000d88:	0af51a63          	bne	a0,a5,83000e3c <AUDIO_PlayCDTrack+0xd4>
    83000d8c:	00062917          	auipc	s2,0x62
    83000d90:	7c490913          	addi	s2,s2,1988 # 83063550 <gAudioDevice>
    83000d94:	02893703          	ld	a4,40(s2)
    83000d98:	000027b7          	lui	a5,0x2
    83000d9c:	71078793          	addi	a5,a5,1808 # 2710 <maskToShift.part.0-0x82ffd9d8>
    83000da0:	00072703          	lw	a4,0(a4)
    83000da4:	00100493          	li	s1,1
    83000da8:	02e7ce63          	blt	a5,a4,83000de4 <AUDIO_PlayCDTrack+0x7c>
    83000dac:	00040097          	auipc	ra,0x40
    83000db0:	338080e7          	jalr	824(ra) # 830410e4 <SDL_LockAudio>
    83000db4:	02893503          	ld	a0,40(s2)
    83000db8:	04050463          	beqz	a0,83000e00 <AUDIO_PlayCDTrack+0x98>
    83000dbc:	01053783          	ld	a5,16(a0)
    83000dc0:	000025b7          	lui	a1,0x2
    83000dc4:	7105859b          	addiw	a1,a1,1808 # 2710 <maskToShift.part.0-0x82ffd9d8>
    83000dc8:	00000693          	li	a3,0
    83000dcc:	00100613          	li	a2,1
    83000dd0:	008585bb          	addw	a1,a1,s0
    83000dd4:	000780e7          	jalr	a5
    83000dd8:	00050493          	mv	s1,a0
    83000ddc:	00040097          	auipc	ra,0x40
    83000de0:	30c080e7          	jalr	780(ra) # 830410e8 <SDL_UnlockAudio>
    83000de4:	01813083          	ld	ra,24(sp)
    83000de8:	01013403          	ld	s0,16(sp)
    83000dec:	00048513          	mv	a0,s1
    83000df0:	00013903          	ld	s2,0(sp)
    83000df4:	00813483          	ld	s1,8(sp)
    83000df8:	02010113          	addi	sp,sp,32
    83000dfc:	00008067          	ret
    83000e00:	00000493          	li	s1,0
    83000e04:	00040097          	auipc	ra,0x40
    83000e08:	2e4080e7          	jalr	740(ra) # 830410e8 <SDL_UnlockAudio>
    83000e0c:	01813083          	ld	ra,24(sp)
    83000e10:	01013403          	ld	s0,16(sp)
    83000e14:	00048513          	mv	a0,s1
    83000e18:	00013903          	ld	s2,0(sp)
    83000e1c:	00813483          	ld	s1,8(sp)
    83000e20:	02010113          	addi	sp,sp,32
    83000e24:	00008067          	ret
    83000e28:	00000613          	li	a2,0
    83000e2c:	00000593          	li	a1,0
    83000e30:	fff00513          	li	a0,-1
    83000e34:	00000097          	auipc	ra,0x0
    83000e38:	044080e7          	jalr	68(ra) # 83000e78 <AUDIO_PlayMusic>
    83000e3c:	00040097          	auipc	ra,0x40
    83000e40:	2a8080e7          	jalr	680(ra) # 830410e4 <SDL_LockAudio>
    83000e44:	00062797          	auipc	a5,0x62
    83000e48:	70c78793          	addi	a5,a5,1804 # 83063550 <gAudioDevice>
    83000e4c:	0287b503          	ld	a0,40(a5)
    83000e50:	fa0508e3          	beqz	a0,83000e00 <AUDIO_PlayCDTrack+0x98>
    83000e54:	fff00713          	li	a4,-1
    83000e58:	01053783          	ld	a5,16(a0)
    83000e5c:	f6e412e3          	bne	s0,a4,83000dc0 <AUDIO_PlayCDTrack+0x58>
    83000e60:	00000693          	li	a3,0
    83000e64:	00000613          	li	a2,0
    83000e68:	fff00593          	li	a1,-1
    83000e6c:	000780e7          	jalr	a5
    83000e70:	00050493          	mv	s1,a0
    83000e74:	f91ff06f          	j	83000e04 <AUDIO_PlayCDTrack+0x9c>

0000000083000e78 <AUDIO_PlayMusic>:
    83000e78:	fe010113          	addi	sp,sp,-32
    83000e7c:	00813823          	sd	s0,16(sp)
    83000e80:	00913423          	sd	s1,8(sp)
    83000e84:	01213023          	sd	s2,0(sp)
    83000e88:	00113c23          	sd	ra,24(sp)
    83000e8c:	00050413          	mv	s0,a0
    83000e90:	00058493          	mv	s1,a1
    83000e94:	00060913          	mv	s2,a2
    83000e98:	00a05863          	blez	a0,83000ea8 <AUDIO_PlayMusic+0x30>
    83000e9c:	fff00513          	li	a0,-1
    83000ea0:	00000097          	auipc	ra,0x0
    83000ea4:	ec8080e7          	jalr	-312(ra) # 83000d68 <AUDIO_PlayCDTrack>
    83000ea8:	00068797          	auipc	a5,0x68
    83000eac:	3a078793          	addi	a5,a5,928 # 83069248 <gConfig>
    83000eb0:	3107a783          	lw	a5,784(a5)
    83000eb4:	04078663          	beqz	a5,83000f00 <AUDIO_PlayMusic+0x88>
    83000eb8:	00040097          	auipc	ra,0x40
    83000ebc:	22c080e7          	jalr	556(ra) # 830410e4 <SDL_LockAudio>
    83000ec0:	00062797          	auipc	a5,0x62
    83000ec4:	69078793          	addi	a5,a5,1680 # 83063550 <gAudioDevice>
    83000ec8:	0207b503          	ld	a0,32(a5)
    83000ecc:	00050c63          	beqz	a0,83000ee4 <AUDIO_PlayMusic+0x6c>
    83000ed0:	01053783          	ld	a5,16(a0)
    83000ed4:	00090693          	mv	a3,s2
    83000ed8:	00048613          	mv	a2,s1
    83000edc:	00040593          	mv	a1,s0
    83000ee0:	000780e7          	jalr	a5
    83000ee4:	01013403          	ld	s0,16(sp)
    83000ee8:	01813083          	ld	ra,24(sp)
    83000eec:	00813483          	ld	s1,8(sp)
    83000ef0:	00013903          	ld	s2,0(sp)
    83000ef4:	02010113          	addi	sp,sp,32
    83000ef8:	00040317          	auipc	t1,0x40
    83000efc:	1f030067          	jr	496(t1) # 830410e8 <SDL_UnlockAudio>
    83000f00:	00040513          	mv	a0,s0
    83000f04:	01013403          	ld	s0,16(sp)
    83000f08:	01813083          	ld	ra,24(sp)
    83000f0c:	00013903          	ld	s2,0(sp)
    83000f10:	00048593          	mv	a1,s1
    83000f14:	00813483          	ld	s1,8(sp)
    83000f18:	02010113          	addi	sp,sp,32
    83000f1c:	00001317          	auipc	t1,0x1
    83000f20:	fe030067          	jr	-32(t1) # 83001efc <MIDI_Play>

0000000083000f24 <AUDIO_EnableMusic>:
    83000f24:	00062797          	auipc	a5,0x62
    83000f28:	66a7aa23          	sw	a0,1652(a5) # 83063598 <gAudioDevice+0x48>
    83000f2c:	00008067          	ret

0000000083000f30 <AUDIO_MusicEnabled>:
    83000f30:	00062797          	auipc	a5,0x62
    83000f34:	62078793          	addi	a5,a5,1568 # 83063550 <gAudioDevice>
    83000f38:	0487a503          	lw	a0,72(a5)
    83000f3c:	00008067          	ret

0000000083000f40 <AUDIO_EnableSound>:
    83000f40:	00062797          	auipc	a5,0x62
    83000f44:	64a7ae23          	sw	a0,1628(a5) # 8306359c <gAudioDevice+0x4c>
    83000f48:	00008067          	ret

0000000083000f4c <AUDIO_SoundEnabled>:
    83000f4c:	00062797          	auipc	a5,0x62
    83000f50:	60478793          	addi	a5,a5,1540 # 83063550 <gAudioDevice>
    83000f54:	04c7a503          	lw	a0,76(a5)
    83000f58:	00008067          	ret

0000000083000f5c <AUDIO_Lock>:
    83000f5c:	00040317          	auipc	t1,0x40
    83000f60:	18830067          	jr	392(t1) # 830410e4 <SDL_LockAudio>

0000000083000f64 <AUDIO_Unlock>:
    83000f64:	00040317          	auipc	t1,0x40
    83000f68:	18430067          	jr	388(t1) # 830410e8 <SDL_UnlockAudio>

0000000083000f6c <_ZL12RIX_ShutdownPv>:
    83000f6c:	06050463          	beqz	a0,83000fd4 <_ZL12RIX_ShutdownPv+0x68>
    83000f70:	ff010113          	addi	sp,sp,-16
    83000f74:	000017b7          	lui	a5,0x1
    83000f78:	00813023          	sd	s0,0(sp)
    83000f7c:	00113423          	sd	ra,8(sp)
    83000f80:	00f507b3          	add	a5,a0,a5
    83000f84:	b607aa23          	sw	zero,-1164(a5) # b74 <maskToShift.part.0-0x82fff574>
    83000f88:	00050413          	mv	s0,a0
    83000f8c:	02853503          	ld	a0,40(a0)
    83000f90:	00050863          	beqz	a0,83000fa0 <_ZL12RIX_ShutdownPv+0x34>
    83000f94:	00053783          	ld	a5,0(a0)
    83000f98:	0087b783          	ld	a5,8(a5)
    83000f9c:	000780e7          	jalr	a5
    83000fa0:	02043503          	ld	a0,32(s0)
    83000fa4:	00050863          	beqz	a0,83000fb4 <_ZL12RIX_ShutdownPv+0x48>
    83000fa8:	00053783          	ld	a5,0(a0)
    83000fac:	0087b783          	ld	a5,8(a5)
    83000fb0:	000780e7          	jalr	a5
    83000fb4:	00040513          	mv	a0,s0
    83000fb8:	00013403          	ld	s0,0(sp)
    83000fbc:	00813083          	ld	ra,8(sp)
    83000fc0:	000015b7          	lui	a1,0x1
    83000fc4:	b7858593          	addi	a1,a1,-1160 # b78 <maskToShift.part.0-0x82fff570>
    83000fc8:	01010113          	addi	sp,sp,16
    83000fcc:	00034317          	auipc	t1,0x34
    83000fd0:	e6030067          	jr	-416(t1) # 83034e2c <_ZdlPvm>
    83000fd4:	00008067          	ret

0000000083000fd8 <_ZL8RIX_PlayPviii>:
    83000fd8:	16050663          	beqz	a0,83001144 <_ZL8RIX_PlayPviii+0x16c>
    83000fdc:	00052783          	lw	a5,0(a0)
    83000fe0:	08b78463          	beq	a5,a1,83001068 <_ZL8RIX_PlayPviii+0x90>
    83000fe4:	fd010113          	addi	sp,sp,-48
    83000fe8:	00913c23          	sd	s1,24(sp)
    83000fec:	000014b7          	lui	s1,0x1
    83000ff0:	02813023          	sd	s0,32(sp)
    83000ff4:	01213823          	sd	s2,16(sp)
    83000ff8:	01313423          	sd	s3,8(sp)
    83000ffc:	01413023          	sd	s4,0(sp)
    83001000:	02113423          	sd	ra,40(sp)
    83001004:	009504b3          	add	s1,a0,s1
    83001008:	b6c4a783          	lw	a5,-1172(s1) # b6c <maskToShift.part.0-0x82fff57c>
    8300100c:	00200713          	li	a4,2
    83001010:	00068a13          	mv	s4,a3
    83001014:	00060993          	mv	s3,a2
    83001018:	00058913          	mv	s2,a1
    8300101c:	00050413          	mv	s0,a0
    83001020:	06e78463          	beq	a5,a4,83001088 <_ZL8RIX_PlayPviii+0xb0>
    83001024:	00100713          	li	a4,1
    83001028:	0ce79663          	bne	a5,a4,830010f4 <_ZL8RIX_PlayPviii+0x11c>
    8300102c:	b644a783          	lw	a5,-1180(s1)
    83001030:	0cf05263          	blez	a5,830010f4 <_ZL8RIX_PlayPviii+0x11c>
    83001034:	b684a783          	lw	a5,-1176(s1)
    83001038:	0af05e63          	blez	a5,830010f4 <_ZL8RIX_PlayPviii+0x11c>
    8300103c:	00040097          	auipc	ra,0x40
    83001040:	03c080e7          	jalr	60(ra) # 83041078 <SDL_GetTicks>
    83001044:	1f400793          	li	a5,500
    83001048:	034787bb          	mulw	a5,a5,s4
    8300104c:	b684a683          	lw	a3,-1176(s1)
    83001050:	b644a703          	lw	a4,-1180(s1)
    83001054:	02d787bb          	mulw	a5,a5,a3
    83001058:	02e7c7bb          	divw	a5,a5,a4
    8300105c:	40f5053b          	subw	a0,a0,a5
    83001060:	b4a4ae23          	sw	a0,-1188(s1)
    83001064:	0a40006f          	j	83001108 <_ZL8RIX_PlayPviii+0x130>
    83001068:	000017b7          	lui	a5,0x1
    8300106c:	00f507b3          	add	a5,a0,a5
    83001070:	b587a703          	lw	a4,-1192(a5) # b58 <maskToShift.part.0-0x82fff590>
    83001074:	fff00793          	li	a5,-1
    83001078:	f6f716e3          	bne	a4,a5,83000fe4 <_ZL8RIX_PlayPviii+0xc>
    8300107c:	00c52223          	sw	a2,4(a0)
    83001080:	00100513          	li	a0,1
    83001084:	00008067          	ret
    83001088:	00068797          	auipc	a5,0x68
    8300108c:	1c078793          	addi	a5,a5,448 # 83069248 <gConfig>
    83001090:	2f87a703          	lw	a4,760(a5)
    83001094:	2f47a683          	lw	a3,756(a5)
    83001098:	01f7579b          	srliw	a5,a4,0x1f
    8300109c:	00e787bb          	addw	a5,a5,a4
    830010a0:	4017d79b          	sraiw	a5,a5,0x1
    830010a4:	02d787bb          	mulw	a5,a5,a3
    830010a8:	034786bb          	mulw	a3,a5,s4
    830010ac:	b6d4a223          	sw	a3,-1180(s1)
    830010b0:	00001537          	lui	a0,0x1
    830010b4:	00a40533          	add	a0,s0,a0
    830010b8:	00200793          	li	a5,2
    830010bc:	b6f52623          	sw	a5,-1172(a0) # b6c <maskToShift.part.0-0x82fff57c>
    830010c0:	00100793          	li	a5,1
    830010c4:	b5252c23          	sw	s2,-1192(a0)
    830010c8:	b7352823          	sw	s3,-1168(a0)
    830010cc:	b6f52a23          	sw	a5,-1164(a0)
    830010d0:	02813083          	ld	ra,40(sp)
    830010d4:	02013403          	ld	s0,32(sp)
    830010d8:	01813483          	ld	s1,24(sp)
    830010dc:	01013903          	ld	s2,16(sp)
    830010e0:	00813983          	ld	s3,8(sp)
    830010e4:	00013a03          	ld	s4,0(sp)
    830010e8:	00100513          	li	a0,1
    830010ec:	03010113          	addi	sp,sp,48
    830010f0:	00008067          	ret
    830010f4:	00040097          	auipc	ra,0x40
    830010f8:	f84080e7          	jalr	-124(ra) # 83041078 <SDL_GetTicks>
    830010fc:	000017b7          	lui	a5,0x1
    83001100:	00f407b3          	add	a5,s0,a5
    83001104:	b4a7ae23          	sw	a0,-1188(a5) # b5c <maskToShift.part.0-0x82fff58c>
    83001108:	00068797          	auipc	a5,0x68
    8300110c:	14078793          	addi	a5,a5,320 # 83069248 <gConfig>
    83001110:	2f87a703          	lw	a4,760(a5)
    83001114:	2f47a683          	lw	a3,756(a5)
    83001118:	01f7579b          	srliw	a5,a4,0x1f
    8300111c:	00e787bb          	addw	a5,a5,a4
    83001120:	4017d79b          	sraiw	a5,a5,0x1
    83001124:	02d787bb          	mulw	a5,a5,a3
    83001128:	00001737          	lui	a4,0x1
    8300112c:	00e40733          	add	a4,s0,a4
    83001130:	034786bb          	mulw	a3,a5,s4
    83001134:	b6d72023          	sw	a3,-1184(a4) # b60 <maskToShift.part.0-0x82fff588>
    83001138:	b6d72423          	sw	a3,-1176(a4)
    8300113c:	b6d72223          	sw	a3,-1180(a4)
    83001140:	f71ff06f          	j	830010b0 <_ZL8RIX_PlayPviii+0xd8>
    83001144:	00000513          	li	a0,0
    83001148:	00008067          	ret

000000008300114c <_ZL14RIX_FillBufferPvPhi>:
    8300114c:	44050663          	beqz	a0,83001598 <_ZL14RIX_FillBufferPvPhi+0x44c>
    83001150:	f8010113          	addi	sp,sp,-128
    83001154:	03713c23          	sd	s7,56(sp)
    83001158:	00001bb7          	lui	s7,0x1
    8300115c:	06813823          	sd	s0,112(sp)
    83001160:	06113c23          	sd	ra,120(sp)
    83001164:	06913423          	sd	s1,104(sp)
    83001168:	07213023          	sd	s2,96(sp)
    8300116c:	05313c23          	sd	s3,88(sp)
    83001170:	05413823          	sd	s4,80(sp)
    83001174:	05513423          	sd	s5,72(sp)
    83001178:	05613023          	sd	s6,64(sp)
    8300117c:	03813823          	sd	s8,48(sp)
    83001180:	03913423          	sd	s9,40(sp)
    83001184:	03a13023          	sd	s10,32(sp)
    83001188:	01b13c23          	sd	s11,24(sp)
    8300118c:	01750bb3          	add	s7,a0,s7
    83001190:	b74ba703          	lw	a4,-1164(s7) # b74 <maskToShift.part.0-0x82fff574>
    83001194:	00050413          	mv	s0,a0
    83001198:	22070263          	beqz	a4,830013bc <_ZL14RIX_FillBufferPvPhi+0x270>
    8300119c:	00060a93          	mv	s5,a2
    830011a0:	20c05e63          	blez	a2,830013bc <_ZL14RIX_FillBufferPvPhi+0x270>
    830011a4:	00058b13          	mv	s6,a1
    830011a8:	03050913          	addi	s2,a0,48
    830011ac:	b6cba703          	lw	a4,-1172(s7)
    830011b0:	00100793          	li	a5,1
    830011b4:	2cf70863          	beq	a4,a5,83001484 <_ZL14RIX_FillBufferPvPhi+0x338>
    830011b8:	00200693          	li	a3,2
    830011bc:	30d71a63          	bne	a4,a3,830014d0 <_ZL14RIX_FillBufferPvPhi+0x384>
    830011c0:	b60ba683          	lw	a3,-1184(s7)
    830011c4:	b68ba703          	lw	a4,-1176(s7)
    830011c8:	3cd70a63          	beq	a4,a3,8300159c <_ZL14RIX_FillBufferPvPhi+0x450>
    830011cc:	00042683          	lw	a3,0(s0)
    830011d0:	fff00713          	li	a4,-1
    830011d4:	22e68263          	beq	a3,a4,830013f8 <_ZL14RIX_FillBufferPvPhi+0x2ac>
    830011d8:	b68ba683          	lw	a3,-1176(s7)
    830011dc:	20d05e63          	blez	a3,830013f8 <_ZL14RIX_FillBufferPvPhi+0x2ac>
    830011e0:	b60bac03          	lw	s8,-1184(s7)
    830011e4:	00068a17          	auipc	s4,0x68
    830011e8:	064a0a13          	addi	s4,s4,100 # 83069248 <gConfig>
    830011ec:	2f8a2983          	lw	s3,760(s4)
    830011f0:	41fc5c9b          	sraiw	s9,s8,0x1f
    830011f4:	0076969b          	slliw	a3,a3,0x7
    830011f8:	019cdc9b          	srliw	s9,s9,0x19
    830011fc:	018c8cbb          	addw	s9,s9,s8
    83001200:	0386cc3b          	divw	s8,a3,s8
    83001204:	04600693          	li	a3,70
    83001208:	2f4a2703          	lw	a4,756(s4)
    8300120c:	407cdc9b          	sraiw	s9,s9,0x7
    83001210:	fff00493          	li	s1,-1
    83001214:	40e0063b          	negw	a2,a4
    83001218:	00ccfcb3          	and	s9,s9,a2
    8300121c:	000c8c9b          	sext.w	s9,s9
    83001220:	02d9c9bb          	divw	s3,s3,a3
    83001224:	02e989bb          	mulw	s3,s3,a4
    83001228:	0019999b          	slliw	s3,s3,0x1
    8300122c:	b50bb583          	ld	a1,-1200(s7)
    83001230:	41258733          	sub	a4,a1,s2
    83001234:	00058463          	beqz	a1,8300123c <_ZL14RIX_FillBufferPvPhi+0xf0>
    83001238:	07374a63          	blt	a4,s3,830012ac <_ZL14RIX_FillBufferPvPhi+0x160>
    8300123c:	b52bb823          	sd	s2,-1200(s7)
    83001240:	02843503          	ld	a0,40(s0)
    83001244:	00053703          	ld	a4,0(a0)
    83001248:	01873703          	ld	a4,24(a4)
    8300124c:	000700e7          	jalr	a4
    83001250:	00000613          	li	a2,0
    83001254:	02051863          	bnez	a0,83001284 <_ZL14RIX_FillBufferPvPhi+0x138>
    83001258:	00442703          	lw	a4,4(s0)
    8300125c:	12070e63          	beqz	a4,83001398 <_ZL14RIX_FillBufferPvPhi+0x24c>
    83001260:	02843503          	ld	a0,40(s0)
    83001264:	00042583          	lw	a1,0(s0)
    83001268:	00004097          	auipc	ra,0x4
    8300126c:	bbc080e7          	jalr	-1092(ra) # 83004e24 <_ZN10CrixPlayer12rewindReInitEib>
    83001270:	02843503          	ld	a0,40(s0)
    83001274:	00053703          	ld	a4,0(a0)
    83001278:	01873703          	ld	a4,24(a4)
    8300127c:	000700e7          	jalr	a4
    83001280:	18050063          	beqz	a0,83001400 <_ZL14RIX_FillBufferPvPhi+0x2b4>
    83001284:	2f8a2603          	lw	a2,760(s4)
    83001288:	04600793          	li	a5,70
    8300128c:	02043503          	ld	a0,32(s0)
    83001290:	02f6463b          	divw	a2,a2,a5
    83001294:	00090593          	mv	a1,s2
    83001298:	00053703          	ld	a4,0(a0)
    8300129c:	02073703          	ld	a4,32(a4)
    830012a0:	000700e7          	jalr	a4
    830012a4:	b50bb583          	ld	a1,-1200(s7)
    830012a8:	41258733          	sub	a4,a1,s2
    830012ac:	40e9873b          	subw	a4,s3,a4
    830012b0:	000b0513          	mv	a0,s6
    830012b4:	40175d13          	srai	s10,a4,0x1
    830012b8:	00ead463          	bge	s5,a4,830012c0 <_ZL14RIX_FillBufferPvPhi+0x174>
    830012bc:	401add13          	srai	s10,s5,0x1
    830012c0:	b6cba683          	lw	a3,-1172(s7)
    830012c4:	001d1713          	slli	a4,s10,0x1
    830012c8:	00070613          	mv	a2,a4
    830012cc:	000a8d9b          	sext.w	s11,s5
    830012d0:	26068463          	beqz	a3,83001538 <_ZL14RIX_FillBufferPvPhi+0x3ec>
    830012d4:	b68ba703          	lw	a4,-1176(s7)
    830012d8:	000b0593          	mv	a1,s6
    830012dc:	2ba05a63          	blez	s10,83001590 <_ZL14RIX_FillBufferPvPhi+0x444>
    830012e0:	ece056e3          	blez	a4,830011ac <_ZL14RIX_FillBufferPvPhi+0x60>
    830012e4:	00000793          	li	a5,0
    830012e8:	2b905063          	blez	s9,83001588 <_ZL14RIX_FillBufferPvPhi+0x43c>
    830012ec:	b50bb703          	ld	a4,-1200(s7)
    830012f0:	0017851b          	addiw	a0,a5,1
    830012f4:	002b0613          	addi	a2,s6,2
    830012f8:	00071703          	lh	a4,0(a4)
    830012fc:	038706bb          	mulw	a3,a4,s8
    83001300:	41f6d71b          	sraiw	a4,a3,0x1f
    83001304:	0197571b          	srliw	a4,a4,0x19
    83001308:	00d7073b          	addw	a4,a4,a3
    8300130c:	4077571b          	sraiw	a4,a4,0x7
    83001310:	00eb1023          	sh	a4,0(s6)
    83001314:	b50bb703          	ld	a4,-1200(s7)
    83001318:	00270713          	addi	a4,a4,2
    8300131c:	b4ebb823          	sd	a4,-1200(s7)
    83001320:	25a55463          	bge	a0,s10,83001568 <_ZL14RIX_FillBufferPvPhi+0x41c>
    83001324:	0007851b          	sext.w	a0,a5
    83001328:	40ad083b          	subw	a6,s10,a0
    8300132c:	00100713          	li	a4,1
    83001330:	00a707bb          	addw	a5,a4,a0
    83001334:	1cec8a63          	beq	s9,a4,83001508 <_ZL14RIX_FillBufferPvPhi+0x3bc>
    83001338:	b50bb783          	ld	a5,-1200(s7)
    8300133c:	00260613          	addi	a2,a2,2 # ffffffffffff8002 <_end+0xffffffff7cf8d9e2>
    83001340:	0017071b          	addiw	a4,a4,1
    83001344:	00079783          	lh	a5,0(a5)
    83001348:	038786bb          	mulw	a3,a5,s8
    8300134c:	41f6d79b          	sraiw	a5,a3,0x1f
    83001350:	0197d79b          	srliw	a5,a5,0x19
    83001354:	00d787bb          	addw	a5,a5,a3
    83001358:	4077d79b          	sraiw	a5,a5,0x7
    8300135c:	fef61f23          	sh	a5,-2(a2)
    83001360:	b50bb783          	ld	a5,-1200(s7)
    83001364:	00278793          	addi	a5,a5,2
    83001368:	b4fbb823          	sd	a5,-1200(s7)
    8300136c:	fd0712e3          	bne	a4,a6,83001330 <_ZL14RIX_FillBufferPvPhi+0x1e4>
    83001370:	b68ba703          	lw	a4,-1176(s7)
    83001374:	40b605b3          	sub	a1,a2,a1
    83001378:	01848c3b          	addw	s8,s1,s8
    8300137c:	4107073b          	subw	a4,a4,a6
    83001380:	b6eba423          	sw	a4,-1176(s7)
    83001384:	40bd8abb          	subw	s5,s11,a1
    83001388:	03505a63          	blez	s5,830013bc <_ZL14RIX_FillBufferPvPhi+0x270>
    8300138c:	00060b13          	mv	s6,a2
    83001390:	e8e04ee3          	bgtz	a4,8300122c <_ZL14RIX_FillBufferPvPhi+0xe0>
    83001394:	e19ff06f          	j	830011ac <_ZL14RIX_FillBufferPvPhi+0x60>
    83001398:	fff00793          	li	a5,-1
    8300139c:	00f42023          	sw	a5,0(s0)
    830013a0:	b6cba703          	lw	a4,-1172(s7)
    830013a4:	00200793          	li	a5,2
    830013a8:	00f70a63          	beq	a4,a5,830013bc <_ZL14RIX_FillBufferPvPhi+0x270>
    830013ac:	b58ba703          	lw	a4,-1192(s7)
    830013b0:	fff00793          	li	a5,-1
    830013b4:	00f71463          	bne	a4,a5,830013bc <_ZL14RIX_FillBufferPvPhi+0x270>
    830013b8:	b60ba623          	sw	zero,-1172(s7)
    830013bc:	07813083          	ld	ra,120(sp)
    830013c0:	07013403          	ld	s0,112(sp)
    830013c4:	06813483          	ld	s1,104(sp)
    830013c8:	06013903          	ld	s2,96(sp)
    830013cc:	05813983          	ld	s3,88(sp)
    830013d0:	05013a03          	ld	s4,80(sp)
    830013d4:	04813a83          	ld	s5,72(sp)
    830013d8:	04013b03          	ld	s6,64(sp)
    830013dc:	03813b83          	ld	s7,56(sp)
    830013e0:	03013c03          	ld	s8,48(sp)
    830013e4:	02813c83          	ld	s9,40(sp)
    830013e8:	02013d03          	ld	s10,32(sp)
    830013ec:	01813d83          	ld	s11,24(sp)
    830013f0:	08010113          	addi	sp,sp,128
    830013f4:	00008067          	ret
    830013f8:	b58ba583          	lw	a1,-1192(s7)
    830013fc:	00b04e63          	bgtz	a1,83001418 <_ZL14RIX_FillBufferPvPhi+0x2cc>
    83001400:	fff00793          	li	a5,-1
    83001404:	00f42023          	sw	a5,0(s0)
    83001408:	000017b7          	lui	a5,0x1
    8300140c:	00f40433          	add	s0,s0,a5
    83001410:	b6042623          	sw	zero,-1172(s0)
    83001414:	fa9ff06f          	j	830013bc <_ZL14RIX_FillBufferPvPhi+0x270>
    83001418:	00b42023          	sw	a1,0(s0)
    8300141c:	b70ba703          	lw	a4,-1168(s7)
    83001420:	fff00693          	li	a3,-1
    83001424:	b4dbac23          	sw	a3,-1192(s7)
    83001428:	00e42223          	sw	a4,4(s0)
    8300142c:	00068717          	auipc	a4,0x68
    83001430:	e1c70713          	addi	a4,a4,-484 # 83069248 <gConfig>
    83001434:	2f872603          	lw	a2,760(a4)
    83001438:	b64ba703          	lw	a4,-1180(s7)
    8300143c:	b60ba503          	lw	a0,-1184(s7)
    83001440:	b5cba683          	lw	a3,-1188(s7)
    83001444:	b6eba423          	sw	a4,-1176(s7)
    83001448:	3e800713          	li	a4,1000
    8300144c:	02a7073b          	mulw	a4,a4,a0
    83001450:	00100893          	li	a7,1
    83001454:	b71ba623          	sw	a7,-1172(s7)
    83001458:	b60ba023          	sw	zero,-1184(s7)
    8300145c:	02c7473b          	divw	a4,a4,a2
    83001460:	00d7073b          	addw	a4,a4,a3
    83001464:	b4ebae23          	sw	a4,-1188(s7)
    83001468:	02843503          	ld	a0,40(s0)
    8300146c:	00053703          	ld	a4,0(a0)
    83001470:	02073703          	ld	a4,32(a4)
    83001474:	000700e7          	jalr	a4
    83001478:	b6cba703          	lw	a4,-1172(s7)
    8300147c:	00100793          	li	a5,1
    83001480:	d2f71ce3          	bne	a4,a5,830011b8 <_ZL14RIX_FillBufferPvPhi+0x6c>
    83001484:	b68ba683          	lw	a3,-1176(s7)
    83001488:	00068a17          	auipc	s4,0x68
    8300148c:	dc0a0a13          	addi	s4,s4,-576 # 83069248 <gConfig>
    83001490:	2f4a2703          	lw	a4,756(s4)
    83001494:	12d05c63          	blez	a3,830015cc <_ZL14RIX_FillBufferPvPhi+0x480>
    83001498:	b64ba583          	lw	a1,-1180(s7)
    8300149c:	0076969b          	slliw	a3,a3,0x7
    830014a0:	40e0063b          	negw	a2,a4
    830014a4:	02b6c6bb          	divw	a3,a3,a1
    830014a8:	41f5dc9b          	sraiw	s9,a1,0x1f
    830014ac:	019cdc9b          	srliw	s9,s9,0x19
    830014b0:	00bc8cbb          	addw	s9,s9,a1
    830014b4:	407cdc9b          	sraiw	s9,s9,0x7
    830014b8:	00ccfcb3          	and	s9,s9,a2
    830014bc:	08000c13          	li	s8,128
    830014c0:	000c8c9b          	sext.w	s9,s9
    830014c4:	00100493          	li	s1,1
    830014c8:	40dc0c3b          	subw	s8,s8,a3
    830014cc:	0240006f          	j	830014f0 <_ZL14RIX_FillBufferPvPhi+0x3a4>
    830014d0:	00042703          	lw	a4,0(s0)
    830014d4:	eee054e3          	blez	a4,830013bc <_ZL14RIX_FillBufferPvPhi+0x270>
    830014d8:	00068a17          	auipc	s4,0x68
    830014dc:	d70a0a13          	addi	s4,s4,-656 # 83069248 <gConfig>
    830014e0:	2f4a2703          	lw	a4,756(s4)
    830014e4:	00000493          	li	s1,0
    830014e8:	00000c93          	li	s9,0
    830014ec:	08000c13          	li	s8,128
    830014f0:	2f8a2983          	lw	s3,760(s4)
    830014f4:	04600693          	li	a3,70
    830014f8:	02d9c9bb          	divw	s3,s3,a3
    830014fc:	02e989bb          	mulw	s3,s3,a4
    83001500:	0019999b          	slliw	s3,s3,0x1
    83001504:	d29ff06f          	j	8300122c <_ZL14RIX_FillBufferPvPhi+0xe0>
    83001508:	00060b13          	mv	s6,a2
    8300150c:	000c8693          	mv	a3,s9
    83001510:	b68ba703          	lw	a4,-1176(s7)
    83001514:	01848c3b          	addw	s8,s1,s8
    83001518:	40d7073b          	subw	a4,a4,a3
    8300151c:	b6eba423          	sw	a4,-1176(s7)
    83001520:	0da7de63          	bge	a5,s10,830015fc <_ZL14RIX_FillBufferPvPhi+0x4b0>
    83001524:	dce042e3          	bgtz	a4,830012e8 <_ZL14RIX_FillBufferPvPhi+0x19c>
    83001528:	40bb07b3          	sub	a5,s6,a1
    8300152c:	40fd8abb          	subw	s5,s11,a5
    83001530:	e95056e3          	blez	s5,830013bc <_ZL14RIX_FillBufferPvPhi+0x270>
    83001534:	c79ff06f          	j	830011ac <_ZL14RIX_FillBufferPvPhi+0x60>
    83001538:	00e13423          	sd	a4,8(sp)
    8300153c:	00035097          	auipc	ra,0x35
    83001540:	108080e7          	jalr	264(ra) # 83036644 <memcpy>
    83001544:	b50bb583          	ld	a1,-1200(s7)
    83001548:	00813703          	ld	a4,8(sp)
    8300154c:	001d1d1b          	slliw	s10,s10,0x1
    83001550:	41ad8abb          	subw	s5,s11,s10
    83001554:	00e585b3          	add	a1,a1,a4
    83001558:	b4bbb823          	sd	a1,-1200(s7)
    8300155c:	00eb0b33          	add	s6,s6,a4
    83001560:	cd5048e3          	bgtz	s5,83001230 <_ZL14RIX_FillBufferPvPhi+0xe4>
    83001564:	e59ff06f          	j	830013bc <_ZL14RIX_FillBufferPvPhi+0x270>
    83001568:	b68ba703          	lw	a4,-1176(s7)
    8300156c:	00100813          	li	a6,1
    83001570:	40b605b3          	sub	a1,a2,a1
    83001574:	4107073b          	subw	a4,a4,a6
    83001578:	01848c3b          	addw	s8,s1,s8
    8300157c:	b6eba423          	sw	a4,-1176(s7)
    83001580:	40bd8abb          	subw	s5,s11,a1
    83001584:	e05ff06f          	j	83001388 <_ZL14RIX_FillBufferPvPhi+0x23c>
    83001588:	00000693          	li	a3,0
    8300158c:	f85ff06f          	j	83001510 <_ZL14RIX_FillBufferPvPhi+0x3c4>
    83001590:	000b0613          	mv	a2,s6
    83001594:	df9ff06f          	j	8300138c <_ZL14RIX_FillBufferPvPhi+0x240>
    83001598:	00008067          	ret
    8300159c:	e4e05ee3          	blez	a4,830013f8 <_ZL14RIX_FillBufferPvPhi+0x2ac>
    830015a0:	00040097          	auipc	ra,0x40
    830015a4:	ad8080e7          	jalr	-1320(ra) # 83041078 <SDL_GetTicks>
    830015a8:	b5cba483          	lw	s1,-1188(s7)
    830015ac:	00000713          	li	a4,0
    830015b0:	409506bb          	subw	a3,a0,s1
    830015b4:	00068493          	mv	s1,a3
    830015b8:	02d04463          	bgtz	a3,830015e0 <_ZL14RIX_FillBufferPvPhi+0x494>
    830015bc:	b68ba683          	lw	a3,-1176(s7)
    830015c0:	40e6873b          	subw	a4,a3,a4
    830015c4:	b6eba423          	sw	a4,-1176(s7)
    830015c8:	c05ff06f          	j	830011cc <_ZL14RIX_FillBufferPvPhi+0x80>
    830015cc:	b60ba623          	sw	zero,-1172(s7)
    830015d0:	00000493          	li	s1,0
    830015d4:	00000c93          	li	s9,0
    830015d8:	08000c13          	li	s8,128
    830015dc:	f15ff06f          	j	830014f0 <_ZL14RIX_FillBufferPvPhi+0x3a4>
    830015e0:	fffff097          	auipc	ra,0xfffff
    830015e4:	714080e7          	jalr	1812(ra) # 83000cf4 <AUDIO_GetDeviceSpec>
    830015e8:	00052703          	lw	a4,0(a0)
    830015ec:	3e800693          	li	a3,1000
    830015f0:	0297073b          	mulw	a4,a4,s1
    830015f4:	02d7573b          	divuw	a4,a4,a3
    830015f8:	fc5ff06f          	j	830015bc <_ZL14RIX_FillBufferPvPhi+0x470>
    830015fc:	40bb07b3          	sub	a5,s6,a1
    83001600:	40fd8abb          	subw	s5,s11,a5
    83001604:	000b0613          	mv	a2,s6
    83001608:	d81ff06f          	j	83001388 <_ZL14RIX_FillBufferPvPhi+0x23c>

000000008300160c <RIX_Init>:
    8300160c:	fc010113          	addi	sp,sp,-64
    83001610:	02113c23          	sd	ra,56(sp)
    83001614:	02813823          	sd	s0,48(sp)
    83001618:	02913423          	sd	s1,40(sp)
    8300161c:	03213023          	sd	s2,32(sp)
    83001620:	01313c23          	sd	s3,24(sp)
    83001624:	00a13423          	sd	a0,8(sp)
    83001628:	18050a63          	beqz	a0,830017bc <RIX_Init+0x1b0>
    8300162c:	000014b7          	lui	s1,0x1
    83001630:	b7848513          	addi	a0,s1,-1160 # b78 <maskToShift.part.0-0x82fff570>
    83001634:	00033097          	auipc	ra,0x33
    83001638:	7d8080e7          	jalr	2008(ra) # 83034e0c <_Znwm>
    8300163c:	b7848613          	addi	a2,s1,-1160
    83001640:	00000593          	li	a1,0
    83001644:	00050413          	mv	s0,a0
    83001648:	00035097          	auipc	ra,0x35
    8300164c:	670080e7          	jalr	1648(ra) # 83036cb8 <memset>
    83001650:	00000797          	auipc	a5,0x0
    83001654:	afc78793          	addi	a5,a5,-1284 # 8300114c <_ZL14RIX_FillBufferPvPhi>
    83001658:	00068497          	auipc	s1,0x68
    8300165c:	bf048493          	addi	s1,s1,-1040 # 83069248 <gConfig>
    83001660:	00f43c23          	sd	a5,24(s0)
    83001664:	31c4a583          	lw	a1,796(s1)
    83001668:	00000797          	auipc	a5,0x0
    8300166c:	90478793          	addi	a5,a5,-1788 # 83000f6c <_ZL12RIX_ShutdownPv>
    83001670:	00f43423          	sd	a5,8(s0)
    83001674:	00000797          	auipc	a5,0x0
    83001678:	96478793          	addi	a5,a5,-1692 # 83000fd8 <_ZL8RIX_PlayPviii>
    8300167c:	00f43823          	sd	a5,16(s0)
    83001680:	0c058663          	beqz	a1,8300174c <RIX_Init+0x140>
    83001684:	2f84a603          	lw	a2,760(s1)
    83001688:	3184a503          	lw	a0,792(s1)
    8300168c:	00004097          	auipc	ra,0x4
    83001690:	de8080e7          	jalr	-536(ra) # 83005474 <_ZN7CEmuopl12CreateEmuoplEN7OPLCORE4TYPEEN4Copl8ChipTypeEi>
    83001694:	00050913          	mv	s2,a0
    83001698:	0e050663          	beqz	a0,83001784 <RIX_Init+0x178>
    8300169c:	03800513          	li	a0,56
    830016a0:	00033097          	auipc	ra,0x33
    830016a4:	76c080e7          	jalr	1900(ra) # 83034e0c <_Znwm>
    830016a8:	2f44a683          	lw	a3,756(s1)
    830016ac:	00100613          	li	a2,1
    830016b0:	00090593          	mv	a1,s2
    830016b4:	ffe68693          	addi	a3,a3,-2
    830016b8:	0016b693          	seqz	a3,a3
    830016bc:	00050993          	mv	s3,a0
    830016c0:	00000097          	auipc	ra,0x0
    830016c4:	700080e7          	jalr	1792(ra) # 83001dc0 <_ZN11CConvertoplC1EP4Coplbb>
    830016c8:	00004537          	lui	a0,0x4
    830016cc:	03343023          	sd	s3,32(s0)
    830016d0:	4e850513          	addi	a0,a0,1256 # 44e8 <maskToShift.part.0-0x82ffbc00>
    830016d4:	00033097          	auipc	ra,0x33
    830016d8:	738080e7          	jalr	1848(ra) # 83034e0c <_Znwm>
    830016dc:	02043583          	ld	a1,32(s0)
    830016e0:	00050493          	mv	s1,a0
    830016e4:	00003097          	auipc	ra,0x3
    830016e8:	704080e7          	jalr	1796(ra) # 83004de8 <_ZN10CrixPlayerC1EP4Copl>
    830016ec:	00810593          	addi	a1,sp,8
    830016f0:	02943423          	sd	s1,40(s0)
    830016f4:	00048513          	mv	a0,s1
    830016f8:	00002097          	auipc	ra,0x2
    830016fc:	e44080e7          	jalr	-444(ra) # 8300353c <_ZN10CrixPlayer4loadERPKc>
    83001700:	04050e63          	beqz	a0,8300175c <RIX_Init+0x150>
    83001704:	000017b7          	lui	a5,0x1
    83001708:	00f407b3          	add	a5,s0,a5
    8300170c:	fff00713          	li	a4,-1
    83001710:	b4e7ac23          	sw	a4,-1192(a5) # b58 <maskToShift.part.0-0x82fff590>
    83001714:	fff00713          	li	a4,-1
    83001718:	b607a623          	sw	zero,-1172(a5)
    8300171c:	b407b823          	sd	zero,-1200(a5)
    83001720:	02075713          	srli	a4,a4,0x20
    83001724:	00e43023          	sd	a4,0(s0)
    83001728:	b607b823          	sd	zero,-1168(a5)
    8300172c:	00040513          	mv	a0,s0
    83001730:	03813083          	ld	ra,56(sp)
    83001734:	03013403          	ld	s0,48(sp)
    83001738:	02813483          	ld	s1,40(sp)
    8300173c:	02013903          	ld	s2,32(sp)
    83001740:	01813983          	ld	s3,24(sp)
    83001744:	04010113          	addi	sp,sp,64
    83001748:	00008067          	ret
    8300174c:	3284a783          	lw	a5,808(s1)
    83001750:	f2078ae3          	beqz	a5,83001684 <RIX_Init+0x78>
    83001754:	00200593          	li	a1,2
    83001758:	f2dff06f          	j	83001684 <RIX_Init+0x78>
    8300175c:	02843503          	ld	a0,40(s0)
    83001760:	00050863          	beqz	a0,83001770 <RIX_Init+0x164>
    83001764:	00053783          	ld	a5,0(a0)
    83001768:	0087b783          	ld	a5,8(a5)
    8300176c:	000780e7          	jalr	a5
    83001770:	02043503          	ld	a0,32(s0)
    83001774:	00050863          	beqz	a0,83001784 <RIX_Init+0x178>
    83001778:	00053783          	ld	a5,0(a0)
    8300177c:	0087b783          	ld	a5,8(a5)
    83001780:	000780e7          	jalr	a5
    83001784:	000015b7          	lui	a1,0x1
    83001788:	00040513          	mv	a0,s0
    8300178c:	b7858593          	addi	a1,a1,-1160 # b78 <maskToShift.part.0-0x82fff570>
    83001790:	00033097          	auipc	ra,0x33
    83001794:	69c080e7          	jalr	1692(ra) # 83034e2c <_ZdlPvm>
    83001798:	00000413          	li	s0,0
    8300179c:	00040513          	mv	a0,s0
    830017a0:	03813083          	ld	ra,56(sp)
    830017a4:	03013403          	ld	s0,48(sp)
    830017a8:	02813483          	ld	s1,40(sp)
    830017ac:	02013903          	ld	s2,32(sp)
    830017b0:	01813983          	ld	s3,24(sp)
    830017b4:	04010113          	addi	sp,sp,64
    830017b8:	00008067          	ret
    830017bc:	00000413          	li	s0,0
    830017c0:	f6dff06f          	j	8300172c <RIX_Init+0x120>

00000000830017c4 <_ZN4Copl7getchipEv>:
    830017c4:	00852503          	lw	a0,8(a0)
    830017c8:	00008067          	ret

00000000830017cc <_ZN11CConvertopl13update_directEPsi>:
    830017cc:	01053503          	ld	a0,16(a0)
    830017d0:	00053783          	ld	a5,0(a0)
    830017d4:	0207b303          	ld	t1,32(a5)
    830017d8:	00030067          	jr	t1

00000000830017dc <_ZN11CConvertopl14update_16m_16sEPsi>:
    830017dc:	01053503          	ld	a0,16(a0)
    830017e0:	fe010113          	addi	sp,sp,-32
    830017e4:	00813823          	sd	s0,16(sp)
    830017e8:	00053783          	ld	a5,0(a0)
    830017ec:	00913423          	sd	s1,8(sp)
    830017f0:	00113c23          	sd	ra,24(sp)
    830017f4:	0207b783          	ld	a5,32(a5)
    830017f8:	00060493          	mv	s1,a2
    830017fc:	00058413          	mv	s0,a1
    83001800:	000780e7          	jalr	a5
    83001804:	fff4871b          	addiw	a4,s1,-1
    83001808:	02074c63          	bltz	a4,83001840 <_ZN11CConvertopl14update_16m_16sEPsi+0x64>
    8300180c:	0017161b          	slliw	a2,a4,0x1
    83001810:	00161613          	slli	a2,a2,0x1
    83001814:	00171793          	slli	a5,a4,0x1
    83001818:	00c405b3          	add	a1,s0,a2
    8300181c:	00f407b3          	add	a5,s0,a5
    83001820:	fff00613          	li	a2,-1
    83001824:	00079683          	lh	a3,0(a5)
    83001828:	fff7071b          	addiw	a4,a4,-1
    8300182c:	ffe78793          	addi	a5,a5,-2
    83001830:	00d59123          	sh	a3,2(a1)
    83001834:	00d59023          	sh	a3,0(a1)
    83001838:	ffc58593          	addi	a1,a1,-4
    8300183c:	fec714e3          	bne	a4,a2,83001824 <_ZN11CConvertopl14update_16m_16sEPsi+0x48>
    83001840:	01813083          	ld	ra,24(sp)
    83001844:	01013403          	ld	s0,16(sp)
    83001848:	00813483          	ld	s1,8(sp)
    8300184c:	02010113          	addi	sp,sp,32
    83001850:	00008067          	ret

0000000083001854 <_ZN11CConvertopl13update_16m_8sEPsi>:
    83001854:	01053503          	ld	a0,16(a0)
    83001858:	fe010113          	addi	sp,sp,-32
    8300185c:	00813823          	sd	s0,16(sp)
    83001860:	00053783          	ld	a5,0(a0)
    83001864:	00913423          	sd	s1,8(sp)
    83001868:	00113c23          	sd	ra,24(sp)
    8300186c:	0207b783          	ld	a5,32(a5)
    83001870:	00060493          	mv	s1,a2
    83001874:	00058413          	mv	s0,a1
    83001878:	000780e7          	jalr	a5
    8300187c:	04905463          	blez	s1,830018c4 <_ZN11CConvertopl13update_16m_8sEPsi+0x70>
    83001880:	fff4869b          	addiw	a3,s1,-1
    83001884:	02069693          	slli	a3,a3,0x20
    83001888:	01f6d693          	srli	a3,a3,0x1f
    8300188c:	00240793          	addi	a5,s0,2
    83001890:	ffff8637          	lui	a2,0xffff8
    83001894:	00040593          	mv	a1,s0
    83001898:	00f686b3          	add	a3,a3,a5
    8300189c:	08060613          	addi	a2,a2,128 # ffffffffffff8080 <_end+0xffffffff7cf8da60>
    830018a0:	00059703          	lh	a4,0(a1)
    830018a4:	00258593          	addi	a1,a1,2
    830018a8:	4087579b          	sraiw	a5,a4,0x8
    830018ac:	0ff7f793          	zext.b	a5,a5
    830018b0:	f0077713          	andi	a4,a4,-256
    830018b4:	00e7e7b3          	or	a5,a5,a4
    830018b8:	00c7c7b3          	xor	a5,a5,a2
    830018bc:	fef59f23          	sh	a5,-2(a1)
    830018c0:	feb690e3          	bne	a3,a1,830018a0 <_ZN11CConvertopl13update_16m_8sEPsi+0x4c>
    830018c4:	01813083          	ld	ra,24(sp)
    830018c8:	01013403          	ld	s0,16(sp)
    830018cc:	00813483          	ld	s1,8(sp)
    830018d0:	02010113          	addi	sp,sp,32
    830018d4:	00008067          	ret

00000000830018d8 <_ZN11CConvertopl4initEv>:
    830018d8:	01053503          	ld	a0,16(a0)
    830018dc:	00053783          	ld	a5,0(a0)
    830018e0:	0107b303          	ld	t1,16(a5)
    830018e4:	00030067          	jr	t1

00000000830018e8 <_ZN11CConvertopl5writeEii>:
    830018e8:	01053503          	ld	a0,16(a0)
    830018ec:	00053783          	ld	a5,0(a0)
    830018f0:	0187b303          	ld	t1,24(a5)
    830018f4:	00030067          	jr	t1

00000000830018f8 <_ZN11CConvertopl7setchipEi>:
    830018f8:	00100693          	li	a3,1
    830018fc:	00050793          	mv	a5,a0
    83001900:	00000713          	li	a4,0
    83001904:	00b6dc63          	bge	a3,a1,8300191c <_ZN11CConvertopl7setchipEi+0x24>
    83001908:	0107b503          	ld	a0,16(a5)
    8300190c:	00e7a423          	sw	a4,8(a5)
    83001910:	00053783          	ld	a5,0(a0)
    83001914:	0287b303          	ld	t1,40(a5)
    83001918:	00030067          	jr	t1
    8300191c:	00c52603          	lw	a2,12(a0)
    83001920:	00200693          	li	a3,2
    83001924:	fed612e3          	bne	a2,a3,83001908 <_ZN11CConvertopl7setchipEi+0x10>
    83001928:	0107b503          	ld	a0,16(a5)
    8300192c:	00058713          	mv	a4,a1
    83001930:	00e7a423          	sw	a4,8(a5)
    83001934:	00053783          	ld	a5,0(a0)
    83001938:	0287b303          	ld	t1,40(a5)
    8300193c:	00030067          	jr	t1

0000000083001940 <_ZN11CConvertopl6updateEPsi>:
    83001940:	01853303          	ld	t1,24(a0)
    83001944:	02053703          	ld	a4,32(a0)
    83001948:	00137793          	andi	a5,t1,1
    8300194c:	00e50533          	add	a0,a0,a4
    83001950:	00078863          	beqz	a5,83001960 <_ZN11CConvertopl6updateEPsi+0x20>
    83001954:	00053783          	ld	a5,0(a0)
    83001958:	00678333          	add	t1,a5,t1
    8300195c:	fff33303          	ld	t1,-1(t1)
    83001960:	00030067          	jr	t1

0000000083001964 <_ZN11CConvertopl9getstereoEv>:
    83001964:	01053503          	ld	a0,16(a0)
    83001968:	00053783          	ld	a5,0(a0)
    8300196c:	0387b303          	ld	t1,56(a5)
    83001970:	00030067          	jr	t1

0000000083001974 <_ZN11CConvertoplD1Ev>:
    83001974:	ff010113          	addi	sp,sp,-16
    83001978:	00813023          	sd	s0,0(sp)
    8300197c:	00050413          	mv	s0,a0
    83001980:	02853503          	ld	a0,40(a0)
    83001984:	00113423          	sd	ra,8(sp)
    83001988:	00042797          	auipc	a5,0x42
    8300198c:	7b878793          	addi	a5,a5,1976 # 83044140 <_ZTV11CConvertopl+0x10>
    83001990:	00f43023          	sd	a5,0(s0)
    83001994:	00050663          	beqz	a0,830019a0 <_ZN11CConvertoplD1Ev+0x2c>
    83001998:	00033097          	auipc	ra,0x33
    8300199c:	48c080e7          	jalr	1164(ra) # 83034e24 <_ZdaPv>
    830019a0:	01043503          	ld	a0,16(s0)
    830019a4:	00050e63          	beqz	a0,830019c0 <_ZN11CConvertoplD1Ev+0x4c>
    830019a8:	00053783          	ld	a5,0(a0)
    830019ac:	00013403          	ld	s0,0(sp)
    830019b0:	00813083          	ld	ra,8(sp)
    830019b4:	0087b303          	ld	t1,8(a5)
    830019b8:	01010113          	addi	sp,sp,16
    830019bc:	00030067          	jr	t1
    830019c0:	00813083          	ld	ra,8(sp)
    830019c4:	00013403          	ld	s0,0(sp)
    830019c8:	01010113          	addi	sp,sp,16
    830019cc:	00008067          	ret

00000000830019d0 <_ZN11CConvertopl13update_16s_8mEPsi>:
    830019d0:	03052783          	lw	a5,48(a0)
    830019d4:	fe010113          	addi	sp,sp,-32
    830019d8:	00813823          	sd	s0,16(sp)
    830019dc:	00913423          	sd	s1,8(sp)
    830019e0:	01213023          	sd	s2,0(sp)
    830019e4:	00113c23          	sd	ra,24(sp)
    830019e8:	00058413          	mv	s0,a1
    830019ec:	00050493          	mv	s1,a0
    830019f0:	00060913          	mv	s2,a2
    830019f4:	02853583          	ld	a1,40(a0)
    830019f8:	02c7de63          	bge	a5,a2,83001a34 <_ZN11CConvertopl13update_16s_8mEPsi+0x64>
    830019fc:	00058863          	beqz	a1,83001a0c <_ZN11CConvertopl13update_16s_8mEPsi+0x3c>
    83001a00:	00058513          	mv	a0,a1
    83001a04:	00033097          	auipc	ra,0x33
    83001a08:	420080e7          	jalr	1056(ra) # 83034e24 <_ZdaPv>
    83001a0c:	ff300713          	li	a4,-13
    83001a10:	0019179b          	slliw	a5,s2,0x1
    83001a14:	0324a823          	sw	s2,48(s1)
    83001a18:	00275713          	srli	a4,a4,0x2
    83001a1c:	fff00513          	li	a0,-1
    83001a20:	08f77a63          	bgeu	a4,a5,83001ab4 <_ZN11CConvertopl13update_16s_8mEPsi+0xe4>
    83001a24:	00033097          	auipc	ra,0x33
    83001a28:	3f0080e7          	jalr	1008(ra) # 83034e14 <_Znam>
    83001a2c:	00050593          	mv	a1,a0
    83001a30:	02a4b423          	sd	a0,40(s1)
    83001a34:	0104b503          	ld	a0,16(s1)
    83001a38:	00090613          	mv	a2,s2
    83001a3c:	00053783          	ld	a5,0(a0)
    83001a40:	0207b783          	ld	a5,32(a5)
    83001a44:	000780e7          	jalr	a5
    83001a48:	05205a63          	blez	s2,83001a9c <_ZN11CConvertopl13update_16s_8mEPsi+0xcc>
    83001a4c:	fff9091b          	addiw	s2,s2,-1
    83001a50:	02091913          	slli	s2,s2,0x20
    83001a54:	00140793          	addi	a5,s0,1
    83001a58:	02095913          	srli	s2,s2,0x20
    83001a5c:	00040593          	mv	a1,s0
    83001a60:	01278933          	add	s2,a5,s2
    83001a64:	00000693          	li	a3,0
    83001a68:	0284b703          	ld	a4,40(s1)
    83001a6c:	00158593          	addi	a1,a1,1
    83001a70:	00d70733          	add	a4,a4,a3
    83001a74:	00271783          	lh	a5,2(a4)
    83001a78:	00071703          	lh	a4,0(a4)
    83001a7c:	00468693          	addi	a3,a3,4
    83001a80:	4017d79b          	sraiw	a5,a5,0x1
    83001a84:	4017571b          	sraiw	a4,a4,0x1
    83001a88:	00e787bb          	addw	a5,a5,a4
    83001a8c:	4087d79b          	sraiw	a5,a5,0x8
    83001a90:	f807c793          	xori	a5,a5,-128
    83001a94:	fef58fa3          	sb	a5,-1(a1)
    83001a98:	fcb918e3          	bne	s2,a1,83001a68 <_ZN11CConvertopl13update_16s_8mEPsi+0x98>
    83001a9c:	01813083          	ld	ra,24(sp)
    83001aa0:	01013403          	ld	s0,16(sp)
    83001aa4:	00813483          	ld	s1,8(sp)
    83001aa8:	00013903          	ld	s2,0(sp)
    83001aac:	02010113          	addi	sp,sp,32
    83001ab0:	00008067          	ret
    83001ab4:	00179513          	slli	a0,a5,0x1
    83001ab8:	f6dff06f          	j	83001a24 <_ZN11CConvertopl13update_16s_8mEPsi+0x54>

0000000083001abc <_ZN11CConvertoplD0Ev>:
    83001abc:	ff010113          	addi	sp,sp,-16
    83001ac0:	00813023          	sd	s0,0(sp)
    83001ac4:	00050413          	mv	s0,a0
    83001ac8:	02853503          	ld	a0,40(a0)
    83001acc:	00113423          	sd	ra,8(sp)
    83001ad0:	00042797          	auipc	a5,0x42
    83001ad4:	67078793          	addi	a5,a5,1648 # 83044140 <_ZTV11CConvertopl+0x10>
    83001ad8:	00f43023          	sd	a5,0(s0)
    83001adc:	00050663          	beqz	a0,83001ae8 <_ZN11CConvertoplD0Ev+0x2c>
    83001ae0:	00033097          	auipc	ra,0x33
    83001ae4:	344080e7          	jalr	836(ra) # 83034e24 <_ZdaPv>
    83001ae8:	01043503          	ld	a0,16(s0)
    83001aec:	00050863          	beqz	a0,83001afc <_ZN11CConvertoplD0Ev+0x40>
    83001af0:	00053783          	ld	a5,0(a0)
    83001af4:	0087b783          	ld	a5,8(a5)
    83001af8:	000780e7          	jalr	a5
    83001afc:	00040513          	mv	a0,s0
    83001b00:	00013403          	ld	s0,0(sp)
    83001b04:	00813083          	ld	ra,8(sp)
    83001b08:	03800593          	li	a1,56
    83001b0c:	01010113          	addi	sp,sp,16
    83001b10:	00033317          	auipc	t1,0x33
    83001b14:	31c30067          	jr	796(t1) # 83034e2c <_ZdlPvm>

0000000083001b18 <_ZN11CConvertopl13update_16m_8mEPsi>:
    83001b18:	03052783          	lw	a5,48(a0)
    83001b1c:	fe010113          	addi	sp,sp,-32
    83001b20:	00813823          	sd	s0,16(sp)
    83001b24:	00913423          	sd	s1,8(sp)
    83001b28:	01213023          	sd	s2,0(sp)
    83001b2c:	00113c23          	sd	ra,24(sp)
    83001b30:	00058413          	mv	s0,a1
    83001b34:	00050493          	mv	s1,a0
    83001b38:	00060913          	mv	s2,a2
    83001b3c:	02853583          	ld	a1,40(a0)
    83001b40:	02c7de63          	bge	a5,a2,83001b7c <_ZN11CConvertopl13update_16m_8mEPsi+0x64>
    83001b44:	00058863          	beqz	a1,83001b54 <_ZN11CConvertopl13update_16m_8mEPsi+0x3c>
    83001b48:	00058513          	mv	a0,a1
    83001b4c:	00033097          	auipc	ra,0x33
    83001b50:	2d8080e7          	jalr	728(ra) # 83034e24 <_ZdaPv>
    83001b54:	ff300713          	li	a4,-13
    83001b58:	0019179b          	slliw	a5,s2,0x1
    83001b5c:	0324a823          	sw	s2,48(s1)
    83001b60:	00275713          	srli	a4,a4,0x2
    83001b64:	fff00513          	li	a0,-1
    83001b68:	08f77063          	bgeu	a4,a5,83001be8 <_ZN11CConvertopl13update_16m_8mEPsi+0xd0>
    83001b6c:	00033097          	auipc	ra,0x33
    83001b70:	2a8080e7          	jalr	680(ra) # 83034e14 <_Znam>
    83001b74:	00050593          	mv	a1,a0
    83001b78:	02a4b423          	sd	a0,40(s1)
    83001b7c:	0104b503          	ld	a0,16(s1)
    83001b80:	00090613          	mv	a2,s2
    83001b84:	00053783          	ld	a5,0(a0)
    83001b88:	0207b783          	ld	a5,32(a5)
    83001b8c:	000780e7          	jalr	a5
    83001b90:	05205063          	blez	s2,83001bd0 <_ZN11CConvertopl13update_16m_8mEPsi+0xb8>
    83001b94:	fff9091b          	addiw	s2,s2,-1
    83001b98:	02091913          	slli	s2,s2,0x20
    83001b9c:	00140793          	addi	a5,s0,1
    83001ba0:	02095913          	srli	s2,s2,0x20
    83001ba4:	00040593          	mv	a1,s0
    83001ba8:	01278933          	add	s2,a5,s2
    83001bac:	00000713          	li	a4,0
    83001bb0:	0284b783          	ld	a5,40(s1)
    83001bb4:	00158593          	addi	a1,a1,1
    83001bb8:	00e787b3          	add	a5,a5,a4
    83001bbc:	0017c783          	lbu	a5,1(a5)
    83001bc0:	00270713          	addi	a4,a4,2
    83001bc4:	f807c793          	xori	a5,a5,-128
    83001bc8:	fef58fa3          	sb	a5,-1(a1)
    83001bcc:	feb912e3          	bne	s2,a1,83001bb0 <_ZN11CConvertopl13update_16m_8mEPsi+0x98>
    83001bd0:	01813083          	ld	ra,24(sp)
    83001bd4:	01013403          	ld	s0,16(sp)
    83001bd8:	00813483          	ld	s1,8(sp)
    83001bdc:	00013903          	ld	s2,0(sp)
    83001be0:	02010113          	addi	sp,sp,32
    83001be4:	00008067          	ret
    83001be8:	00179513          	slli	a0,a5,0x1
    83001bec:	f81ff06f          	j	83001b6c <_ZN11CConvertopl13update_16m_8mEPsi+0x54>

0000000083001bf0 <_ZN11CConvertopl13update_16s_8sEPsi>:
    83001bf0:	03052783          	lw	a5,48(a0)
    83001bf4:	fd010113          	addi	sp,sp,-48
    83001bf8:	02813023          	sd	s0,32(sp)
    83001bfc:	00913c23          	sd	s1,24(sp)
    83001c00:	01213823          	sd	s2,16(sp)
    83001c04:	01313423          	sd	s3,8(sp)
    83001c08:	01413023          	sd	s4,0(sp)
    83001c0c:	02113423          	sd	ra,40(sp)
    83001c10:	00161a1b          	slliw	s4,a2,0x1
    83001c14:	00058413          	mv	s0,a1
    83001c18:	00050493          	mv	s1,a0
    83001c1c:	00060993          	mv	s3,a2
    83001c20:	000a0913          	mv	s2,s4
    83001c24:	02853583          	ld	a1,40(a0)
    83001c28:	02c7dc63          	bge	a5,a2,83001c60 <_ZN11CConvertopl13update_16s_8sEPsi+0x70>
    83001c2c:	00058863          	beqz	a1,83001c3c <_ZN11CConvertopl13update_16s_8sEPsi+0x4c>
    83001c30:	00058513          	mv	a0,a1
    83001c34:	00033097          	auipc	ra,0x33
    83001c38:	1f0080e7          	jalr	496(ra) # 83034e24 <_ZdaPv>
    83001c3c:	ff300793          	li	a5,-13
    83001c40:	0334a823          	sw	s3,48(s1)
    83001c44:	0027d793          	srli	a5,a5,0x2
    83001c48:	fff00513          	li	a0,-1
    83001c4c:	0947f463          	bgeu	a5,s4,83001cd4 <_ZN11CConvertopl13update_16s_8sEPsi+0xe4>
    83001c50:	00033097          	auipc	ra,0x33
    83001c54:	1c4080e7          	jalr	452(ra) # 83034e14 <_Znam>
    83001c58:	00050593          	mv	a1,a0
    83001c5c:	02a4b423          	sd	a0,40(s1)
    83001c60:	0104b503          	ld	a0,16(s1)
    83001c64:	00098613          	mv	a2,s3
    83001c68:	00053783          	ld	a5,0(a0)
    83001c6c:	0207b783          	ld	a5,32(a5)
    83001c70:	000780e7          	jalr	a5
    83001c74:	05405063          	blez	s4,83001cb4 <_ZN11CConvertopl13update_16s_8sEPsi+0xc4>
    83001c78:	fff9091b          	addiw	s2,s2,-1
    83001c7c:	02091913          	slli	s2,s2,0x20
    83001c80:	00140693          	addi	a3,s0,1
    83001c84:	02095913          	srli	s2,s2,0x20
    83001c88:	00040593          	mv	a1,s0
    83001c8c:	012686b3          	add	a3,a3,s2
    83001c90:	00000713          	li	a4,0
    83001c94:	0284b783          	ld	a5,40(s1)
    83001c98:	00158593          	addi	a1,a1,1
    83001c9c:	00e787b3          	add	a5,a5,a4
    83001ca0:	0017c783          	lbu	a5,1(a5)
    83001ca4:	00270713          	addi	a4,a4,2
    83001ca8:	f807c793          	xori	a5,a5,-128
    83001cac:	fef58fa3          	sb	a5,-1(a1)
    83001cb0:	feb692e3          	bne	a3,a1,83001c94 <_ZN11CConvertopl13update_16s_8sEPsi+0xa4>
    83001cb4:	02813083          	ld	ra,40(sp)
    83001cb8:	02013403          	ld	s0,32(sp)
    83001cbc:	01813483          	ld	s1,24(sp)
    83001cc0:	01013903          	ld	s2,16(sp)
    83001cc4:	00813983          	ld	s3,8(sp)
    83001cc8:	00013a03          	ld	s4,0(sp)
    83001ccc:	03010113          	addi	sp,sp,48
    83001cd0:	00008067          	ret
    83001cd4:	001a1513          	slli	a0,s4,0x1
    83001cd8:	f79ff06f          	j	83001c50 <_ZN11CConvertopl13update_16s_8sEPsi+0x60>

0000000083001cdc <_ZN11CConvertopl14update_16s_16mEPsi>:
    83001cdc:	03052783          	lw	a5,48(a0)
    83001ce0:	fe010113          	addi	sp,sp,-32
    83001ce4:	00813823          	sd	s0,16(sp)
    83001ce8:	00913423          	sd	s1,8(sp)
    83001cec:	01213023          	sd	s2,0(sp)
    83001cf0:	00113c23          	sd	ra,24(sp)
    83001cf4:	00058413          	mv	s0,a1
    83001cf8:	00050913          	mv	s2,a0
    83001cfc:	00060493          	mv	s1,a2
    83001d00:	02853583          	ld	a1,40(a0)
    83001d04:	02c7de63          	bge	a5,a2,83001d40 <_ZN11CConvertopl14update_16s_16mEPsi+0x64>
    83001d08:	00058863          	beqz	a1,83001d18 <_ZN11CConvertopl14update_16s_16mEPsi+0x3c>
    83001d0c:	00058513          	mv	a0,a1
    83001d10:	00033097          	auipc	ra,0x33
    83001d14:	114080e7          	jalr	276(ra) # 83034e24 <_ZdaPv>
    83001d18:	ff300713          	li	a4,-13
    83001d1c:	0014979b          	slliw	a5,s1,0x1
    83001d20:	02992823          	sw	s1,48(s2)
    83001d24:	00275713          	srli	a4,a4,0x2
    83001d28:	fff00513          	li	a0,-1
    83001d2c:	08f77663          	bgeu	a4,a5,83001db8 <_ZN11CConvertopl14update_16s_16mEPsi+0xdc>
    83001d30:	00033097          	auipc	ra,0x33
    83001d34:	0e4080e7          	jalr	228(ra) # 83034e14 <_Znam>
    83001d38:	00050593          	mv	a1,a0
    83001d3c:	02a93423          	sd	a0,40(s2)
    83001d40:	01093503          	ld	a0,16(s2)
    83001d44:	00048613          	mv	a2,s1
    83001d48:	00053783          	ld	a5,0(a0)
    83001d4c:	0207b783          	ld	a5,32(a5)
    83001d50:	000780e7          	jalr	a5
    83001d54:	04905663          	blez	s1,83001da0 <_ZN11CConvertopl14update_16s_16mEPsi+0xc4>
    83001d58:	02893703          	ld	a4,40(s2)
    83001d5c:	fff4861b          	addiw	a2,s1,-1
    83001d60:	02061613          	slli	a2,a2,0x20
    83001d64:	01e65613          	srli	a2,a2,0x1e
    83001d68:	00470693          	addi	a3,a4,4
    83001d6c:	00040593          	mv	a1,s0
    83001d70:	00d60633          	add	a2,a2,a3
    83001d74:	0080006f          	j	83001d7c <_ZN11CConvertopl14update_16s_16mEPsi+0xa0>
    83001d78:	00468693          	addi	a3,a3,4
    83001d7c:	00071783          	lh	a5,0(a4)
    83001d80:	00271703          	lh	a4,2(a4)
    83001d84:	00258593          	addi	a1,a1,2
    83001d88:	4017d79b          	sraiw	a5,a5,0x1
    83001d8c:	4017571b          	sraiw	a4,a4,0x1
    83001d90:	00e787bb          	addw	a5,a5,a4
    83001d94:	fef59f23          	sh	a5,-2(a1)
    83001d98:	00068713          	mv	a4,a3
    83001d9c:	fcd61ee3          	bne	a2,a3,83001d78 <_ZN11CConvertopl14update_16s_16mEPsi+0x9c>
    83001da0:	01813083          	ld	ra,24(sp)
    83001da4:	01013403          	ld	s0,16(sp)
    83001da8:	00813483          	ld	s1,8(sp)
    83001dac:	00013903          	ld	s2,0(sp)
    83001db0:	02010113          	addi	sp,sp,32
    83001db4:	00008067          	ret
    83001db8:	00179513          	slli	a0,a5,0x1
    83001dbc:	f75ff06f          	j	83001d30 <_ZN11CConvertopl14update_16s_16mEPsi+0x54>

0000000083001dc0 <_ZN11CConvertoplC1EP4Coplbb>:
    83001dc0:	fe010113          	addi	sp,sp,-32
    83001dc4:	00813823          	sd	s0,16(sp)
    83001dc8:	00913423          	sd	s1,8(sp)
    83001dcc:	01213023          	sd	s2,0(sp)
    83001dd0:	00113c23          	sd	ra,24(sp)
    83001dd4:	00042797          	auipc	a5,0x42
    83001dd8:	36c78793          	addi	a5,a5,876 # 83044140 <_ZTV11CConvertopl+0x10>
    83001ddc:	00c5a703          	lw	a4,12(a1)
    83001de0:	00f53023          	sd	a5,0(a0)
    83001de4:	0005b783          	ld	a5,0(a1)
    83001de8:	00050413          	mv	s0,a0
    83001dec:	00052423          	sw	zero,8(a0)
    83001df0:	0387b783          	ld	a5,56(a5)
    83001df4:	00e52623          	sw	a4,12(a0)
    83001df8:	00b53823          	sd	a1,16(a0)
    83001dfc:	02053423          	sd	zero,40(a0)
    83001e00:	02052823          	sw	zero,48(a0)
    83001e04:	00058513          	mv	a0,a1
    83001e08:	00060913          	mv	s2,a2
    83001e0c:	00068493          	mv	s1,a3
    83001e10:	000780e7          	jalr	a5
    83001e14:	02050063          	beqz	a0,83001e34 <_ZN11CConvertoplC1EP4Coplbb+0x74>
    83001e18:	04049863          	bnez	s1,83001e68 <_ZN11CConvertoplC1EP4Coplbb+0xa8>
    83001e1c:	0c091463          	bnez	s2,83001ee4 <_ZN11CConvertoplC1EP4Coplbb+0x124>
    83001e20:	00000797          	auipc	a5,0x0
    83001e24:	bb078793          	addi	a5,a5,-1104 # 830019d0 <_ZN11CConvertopl13update_16s_8mEPsi>
    83001e28:	00f43c23          	sd	a5,24(s0)
    83001e2c:	02043023          	sd	zero,32(s0)
    83001e30:	04c0006f          	j	83001e7c <_ZN11CConvertoplC1EP4Coplbb+0xbc>
    83001e34:	00049e63          	bnez	s1,83001e50 <_ZN11CConvertoplC1EP4Coplbb+0x90>
    83001e38:	02091a63          	bnez	s2,83001e6c <_ZN11CConvertoplC1EP4Coplbb+0xac>
    83001e3c:	00000797          	auipc	a5,0x0
    83001e40:	cdc78793          	addi	a5,a5,-804 # 83001b18 <_ZN11CConvertopl13update_16m_8mEPsi>
    83001e44:	00f43c23          	sd	a5,24(s0)
    83001e48:	02043023          	sd	zero,32(s0)
    83001e4c:	0300006f          	j	83001e7c <_ZN11CConvertoplC1EP4Coplbb+0xbc>
    83001e50:	06091663          	bnez	s2,83001ebc <_ZN11CConvertoplC1EP4Coplbb+0xfc>
    83001e54:	00000797          	auipc	a5,0x0
    83001e58:	a0078793          	addi	a5,a5,-1536 # 83001854 <_ZN11CConvertopl13update_16m_8sEPsi>
    83001e5c:	00f43c23          	sd	a5,24(s0)
    83001e60:	02043023          	sd	zero,32(s0)
    83001e64:	0180006f          	j	83001e7c <_ZN11CConvertoplC1EP4Coplbb+0xbc>
    83001e68:	02090663          	beqz	s2,83001e94 <_ZN11CConvertoplC1EP4Coplbb+0xd4>
    83001e6c:	00000797          	auipc	a5,0x0
    83001e70:	96078793          	addi	a5,a5,-1696 # 830017cc <_ZN11CConvertopl13update_directEPsi>
    83001e74:	00f43c23          	sd	a5,24(s0)
    83001e78:	02043023          	sd	zero,32(s0)
    83001e7c:	01813083          	ld	ra,24(sp)
    83001e80:	01013403          	ld	s0,16(sp)
    83001e84:	00813483          	ld	s1,8(sp)
    83001e88:	00013903          	ld	s2,0(sp)
    83001e8c:	02010113          	addi	sp,sp,32
    83001e90:	00008067          	ret
    83001e94:	00000797          	auipc	a5,0x0
    83001e98:	d5c78793          	addi	a5,a5,-676 # 83001bf0 <_ZN11CConvertopl13update_16s_8sEPsi>
    83001e9c:	00f43c23          	sd	a5,24(s0)
    83001ea0:	02043023          	sd	zero,32(s0)
    83001ea4:	01813083          	ld	ra,24(sp)
    83001ea8:	01013403          	ld	s0,16(sp)
    83001eac:	00813483          	ld	s1,8(sp)
    83001eb0:	00013903          	ld	s2,0(sp)
    83001eb4:	02010113          	addi	sp,sp,32
    83001eb8:	00008067          	ret
    83001ebc:	00000797          	auipc	a5,0x0
    83001ec0:	92078793          	addi	a5,a5,-1760 # 830017dc <_ZN11CConvertopl14update_16m_16sEPsi>
    83001ec4:	00f43c23          	sd	a5,24(s0)
    83001ec8:	02043023          	sd	zero,32(s0)
    83001ecc:	01813083          	ld	ra,24(sp)
    83001ed0:	01013403          	ld	s0,16(sp)
    83001ed4:	00813483          	ld	s1,8(sp)
    83001ed8:	00013903          	ld	s2,0(sp)
    83001edc:	02010113          	addi	sp,sp,32
    83001ee0:	00008067          	ret
    83001ee4:	00000797          	auipc	a5,0x0
    83001ee8:	df878793          	addi	a5,a5,-520 # 83001cdc <_ZN11CConvertopl14update_16s_16mEPsi>
    83001eec:	00f43c23          	sd	a5,24(s0)
    83001ef0:	02043023          	sd	zero,32(s0)
    83001ef4:	f89ff06f          	j	83001e7c <_ZN11CConvertoplC1EP4Coplbb+0xbc>

0000000083001ef8 <MIDI_SetVolume>:
    83001ef8:	00008067          	ret

0000000083001efc <MIDI_Play>:
    83001efc:	00008067          	ret

0000000083001f00 <SOUND_LoadWAVEData>:
    83001f00:	00b00793          	li	a5,11
    83001f04:	10b7fe63          	bgeu	a5,a1,83002020 <SOUND_LoadWAVEData+0x120>
    83001f08:	00052703          	lw	a4,0(a0)
    83001f0c:	464657b7          	lui	a5,0x46465
    83001f10:	95278793          	addi	a5,a5,-1710 # 46464952 <maskToShift.part.0-0x3cb9b796>
    83001f14:	10f71663          	bne	a4,a5,83002020 <SOUND_LoadWAVEData+0x120>
    83001f18:	00852703          	lw	a4,8(a0)
    83001f1c:	455647b7          	lui	a5,0x45564
    83001f20:	15778793          	addi	a5,a5,343 # 45564157 <maskToShift.part.0-0x3da9bf91>
    83001f24:	0ef71e63          	bne	a4,a5,83002020 <SOUND_LoadWAVEData+0x120>
    83001f28:	00452783          	lw	a5,4(a0)
    83001f2c:	0087879b          	addiw	a5,a5,8
    83001f30:	0ef5e863          	bltu	a1,a5,83002020 <SOUND_LoadWAVEData+0x120>
    83001f34:	ff45859b          	addiw	a1,a1,-12
    83001f38:	0005889b          	sext.w	a7,a1
    83001f3c:	00700793          	li	a5,7
    83001f40:	00c50693          	addi	a3,a0,12
    83001f44:	0d17fe63          	bgeu	a5,a7,83002020 <SOUND_LoadWAVEData+0x120>
    83001f48:	01052803          	lw	a6,16(a0)
    83001f4c:	02059713          	slli	a4,a1,0x20
    83001f50:	02075713          	srli	a4,a4,0x20
    83001f54:	02081793          	slli	a5,a6,0x20
    83001f58:	0207d793          	srli	a5,a5,0x20
    83001f5c:	00878793          	addi	a5,a5,8
    83001f60:	00c52583          	lw	a1,12(a0)
    83001f64:	00000e13          	li	t3,0
    83001f68:	0af76c63          	bltu	a4,a5,83002020 <SOUND_LoadWAVEData+0x120>
    83001f6c:	20747537          	lui	a0,0x20747
    83001f70:	61746337          	lui	t1,0x61746
    83001f74:	d6650513          	addi	a0,a0,-666 # 20746d66 <maskToShift.part.0-0x628b9382>
    83001f78:	01000f93          	li	t6,16
    83001f7c:	00100293          	li	t0,1
    83001f80:	16430313          	addi	t1,t1,356 # 61746164 <maskToShift.part.0-0x218b9f84>
    83001f84:	ff800f13          	li	t5,-8
    83001f88:	00700e93          	li	t4,7
    83001f8c:	04a58863          	beq	a1,a0,83001fdc <SOUND_LoadWAVEData+0xdc>
    83001f90:	04659e63          	bne	a1,t1,83001fec <SOUND_LoadWAVEData+0xec>
    83001f94:	00000513          	li	a0,0
    83001f98:	080e0863          	beqz	t3,83002028 <SOUND_LoadWAVEData+0x128>
    83001f9c:	00868513          	addi	a0,a3,8
    83001fa0:	08050263          	beqz	a0,83002024 <SOUND_LoadWAVEData+0x124>
    83001fa4:	002e5783          	lhu	a5,2(t3)
    83001fa8:	01000713          	li	a4,16
    83001fac:	00f60523          	sb	a5,10(a2)
    83001fb0:	00ee5683          	lhu	a3,14(t3)
    83001fb4:	00e68463          	beq	a3,a4,83001fbc <SOUND_LoadWAVEData+0xbc>
    83001fb8:	00800713          	li	a4,8
    83001fbc:	02d787bb          	mulw	a5,a5,a3
    83001fc0:	004e2683          	lw	a3,4(t3)
    83001fc4:	00e61423          	sh	a4,8(a2)
    83001fc8:	01062023          	sw	a6,0(a2)
    83001fcc:	00d62223          	sw	a3,4(a2)
    83001fd0:	4037d79b          	sraiw	a5,a5,0x3
    83001fd4:	00f605a3          	sb	a5,11(a2)
    83001fd8:	00008067          	ret
    83001fdc:	00868e13          	addi	t3,a3,8
    83001fe0:	05f81063          	bne	a6,t6,83002020 <SOUND_LoadWAVEData+0x120>
    83001fe4:	0086d703          	lhu	a4,8(a3)
    83001fe8:	02571c63          	bne	a4,t0,83002020 <SOUND_LoadWAVEData+0x120>
    83001fec:	410f073b          	subw	a4,t5,a6
    83001ff0:	0117073b          	addw	a4,a4,a7
    83001ff4:	0007089b          	sext.w	a7,a4
    83001ff8:	02071713          	slli	a4,a4,0x20
    83001ffc:	02075713          	srli	a4,a4,0x20
    83002000:	00f686b3          	add	a3,a3,a5
    83002004:	011efe63          	bgeu	t4,a7,83002020 <SOUND_LoadWAVEData+0x120>
    83002008:	0046a803          	lw	a6,4(a3)
    8300200c:	0006a583          	lw	a1,0(a3)
    83002010:	02081793          	slli	a5,a6,0x20
    83002014:	0207d793          	srli	a5,a5,0x20
    83002018:	00878793          	addi	a5,a5,8
    8300201c:	f6f778e3          	bgeu	a4,a5,83001f8c <SOUND_LoadWAVEData+0x8c>
    83002020:	00000513          	li	a0,0
    83002024:	00008067          	ret
    83002028:	00008067          	ret

000000008300202c <SOUND_FillBuffer>:
    8300202c:	0c050c63          	beqz	a0,83002104 <SOUND_FillBuffer+0xd8>
    83002030:	fd010113          	addi	sp,sp,-48
    83002034:	02813023          	sd	s0,32(sp)
    83002038:	00913c23          	sd	s1,24(sp)
    8300203c:	01213823          	sd	s2,16(sp)
    83002040:	01313423          	sd	s3,8(sp)
    83002044:	01413023          	sd	s4,0(sp)
    83002048:	02113423          	sd	ra,40(sp)
    8300204c:	00060a13          	mv	s4,a2
    83002050:	00058993          	mv	s3,a1
    83002054:	00050493          	mv	s1,a0
    83002058:	03050413          	addi	s0,a0,48
    8300205c:	00000913          	li	s2,0
    83002060:	0180006f          	j	83002078 <SOUND_FillBuffer+0x4c>
    83002064:	0019091b          	addiw	s2,s2,1
    83002068:	00043403          	ld	s0,0(s0)
    8300206c:	06040c63          	beqz	s0,830020e4 <SOUND_FillBuffer+0xb8>
    83002070:	0784a783          	lw	a5,120(s1)
    83002074:	06f95863          	bge	s2,a5,830020e4 <SOUND_FillBuffer+0xb8>
    83002078:	02043803          	ld	a6,32(s0)
    8300207c:	02840793          	addi	a5,s0,40
    83002080:	03840613          	addi	a2,s0,56
    83002084:	000a0713          	mv	a4,s4
    83002088:	00098693          	mv	a3,s3
    8300208c:	00840513          	addi	a0,s0,8
    83002090:	fc080ce3          	beqz	a6,83002068 <SOUND_FillBuffer+0x3c>
    83002094:	02843583          	ld	a1,40(s0)
    83002098:	01843803          	ld	a6,24(s0)
    8300209c:	000800e7          	jalr	a6
    830020a0:	03043783          	ld	a5,48(s0)
    830020a4:	02843683          	ld	a3,40(s0)
    830020a8:	04344703          	lbu	a4,67(s0)
    830020ac:	40d787bb          	subw	a5,a5,a3
    830020b0:	02f42c23          	sw	a5,56(s0)
    830020b4:	fae7d8e3          	bge	a5,a4,83002064 <SOUND_FillBuffer+0x38>
    830020b8:	02043503          	ld	a0,32(s0)
    830020bc:	00033097          	auipc	ra,0x33
    830020c0:	d98080e7          	jalr	-616(ra) # 83034e54 <free>
    830020c4:	0784a783          	lw	a5,120(s1)
    830020c8:	02043823          	sd	zero,48(s0)
    830020cc:	02043423          	sd	zero,40(s0)
    830020d0:	02043023          	sd	zero,32(s0)
    830020d4:	00043403          	ld	s0,0(s0)
    830020d8:	fff7879b          	addiw	a5,a5,-1
    830020dc:	06f4ac23          	sw	a5,120(s1)
    830020e0:	f80418e3          	bnez	s0,83002070 <SOUND_FillBuffer+0x44>
    830020e4:	02813083          	ld	ra,40(sp)
    830020e8:	02013403          	ld	s0,32(sp)
    830020ec:	01813483          	ld	s1,24(sp)
    830020f0:	01013903          	ld	s2,16(sp)
    830020f4:	00813983          	ld	s3,8(sp)
    830020f8:	00013a03          	ld	s4,0(sp)
    830020fc:	03010113          	addi	sp,sp,48
    83002100:	00008067          	ret
    83002104:	00008067          	ret

0000000083002108 <SOUND_Shutdown>:
    83002108:	0a050863          	beqz	a0,830021b8 <SOUND_Shutdown+0xb0>
    8300210c:	fe010113          	addi	sp,sp,-32
    83002110:	00813823          	sd	s0,16(sp)
    83002114:	00913423          	sd	s1,8(sp)
    83002118:	00113c23          	sd	ra,24(sp)
    8300211c:	00050493          	mv	s1,a0
    83002120:	03050413          	addi	s0,a0,48
    83002124:	00843783          	ld	a5,8(s0)
    83002128:	00078513          	mv	a0,a5
    8300212c:	00078663          	beqz	a5,83002138 <SOUND_Shutdown+0x30>
    83002130:	ffffe097          	auipc	ra,0xffffe
    83002134:	3f4080e7          	jalr	1012(ra) # 83000524 <resampler_delete>
    83002138:	01043783          	ld	a5,16(s0)
    8300213c:	00078513          	mv	a0,a5
    83002140:	00078663          	beqz	a5,8300214c <SOUND_Shutdown+0x44>
    83002144:	ffffe097          	auipc	ra,0xffffe
    83002148:	3e0080e7          	jalr	992(ra) # 83000524 <resampler_delete>
    8300214c:	02043783          	ld	a5,32(s0)
    83002150:	00078513          	mv	a0,a5
    83002154:	00078663          	beqz	a5,83002160 <SOUND_Shutdown+0x58>
    83002158:	00033097          	auipc	ra,0x33
    8300215c:	cfc080e7          	jalr	-772(ra) # 83034e54 <free>
    83002160:	00043403          	ld	s0,0(s0)
    83002164:	fc0410e3          	bnez	s0,83002124 <SOUND_Shutdown+0x1c>
    83002168:	0304b503          	ld	a0,48(s1)
    8300216c:	00050c63          	beqz	a0,83002184 <SOUND_Shutdown+0x7c>
    83002170:	00053403          	ld	s0,0(a0)
    83002174:	00033097          	auipc	ra,0x33
    83002178:	ce0080e7          	jalr	-800(ra) # 83034e54 <free>
    8300217c:	00040513          	mv	a0,s0
    83002180:	fe0418e3          	bnez	s0,83002170 <SOUND_Shutdown+0x68>
    83002184:	0204b503          	ld	a0,32(s1)
    83002188:	00050e63          	beqz	a0,830021a4 <SOUND_Shutdown+0x9c>
    8300218c:	01013403          	ld	s0,16(sp)
    83002190:	01813083          	ld	ra,24(sp)
    83002194:	00813483          	ld	s1,8(sp)
    83002198:	02010113          	addi	sp,sp,32
    8300219c:	0003a317          	auipc	t1,0x3a
    830021a0:	f7830067          	jr	-136(t1) # 8303c114 <fclose>
    830021a4:	01813083          	ld	ra,24(sp)
    830021a8:	01013403          	ld	s0,16(sp)
    830021ac:	00813483          	ld	s1,8(sp)
    830021b0:	02010113          	addi	sp,sp,32
    830021b4:	00008067          	ret
    830021b8:	00008067          	ret

00000000830021bc <SOUND_Play>:
    830021bc:	fa010113          	addi	sp,sp,-96
    830021c0:	04813823          	sd	s0,80(sp)
    830021c4:	00050413          	mv	s0,a0
    830021c8:	04913423          	sd	s1,72(sp)
    830021cc:	04113c23          	sd	ra,88(sp)
    830021d0:	05213023          	sd	s2,64(sp)
    830021d4:	03313c23          	sd	s3,56(sp)
    830021d8:	03413823          	sd	s4,48(sp)
    830021dc:	03513423          	sd	s5,40(sp)
    830021e0:	03613023          	sd	s6,32(sp)
    830021e4:	01713c23          	sd	s7,24(sp)
    830021e8:	01813823          	sd	s8,16(sp)
    830021ec:	00058493          	mv	s1,a1
    830021f0:	fffff097          	auipc	ra,0xfffff
    830021f4:	b04080e7          	jalr	-1276(ra) # 83000cf4 <AUDIO_GetDeviceSpec>
    830021f8:	08040463          	beqz	s0,83002280 <SOUND_Play+0xc4>
    830021fc:	02043583          	ld	a1,32(s0)
    83002200:	0004849b          	sext.w	s1,s1
    83002204:	00050993          	mv	s3,a0
    83002208:	00048513          	mv	a0,s1
    8300220c:	00015097          	auipc	ra,0x15
    83002210:	1b4080e7          	jalr	436(ra) # 830173c0 <PAL_MKFGetChunkSize>
    83002214:	00050913          	mv	s2,a0
    83002218:	06a05463          	blez	a0,83002280 <SOUND_Play+0xc4>
    8300221c:	00033097          	auipc	ra,0x33
    83002220:	c20080e7          	jalr	-992(ra) # 83034e3c <malloc>
    83002224:	00050a13          	mv	s4,a0
    83002228:	04050c63          	beqz	a0,83002280 <SOUND_Play+0xc4>
    8300222c:	02043683          	ld	a3,32(s0)
    83002230:	0009091b          	sext.w	s2,s2
    83002234:	00048613          	mv	a2,s1
    83002238:	00090593          	mv	a1,s2
    8300223c:	00015097          	auipc	ra,0x15
    83002240:	248080e7          	jalr	584(ra) # 83017484 <PAL_MKFReadChunk>
    83002244:	02843783          	ld	a5,40(s0)
    83002248:	00010613          	mv	a2,sp
    8300224c:	00090593          	mv	a1,s2
    83002250:	000a0513          	mv	a0,s4
    83002254:	000780e7          	jalr	a5
    83002258:	00050a93          	mv	s5,a0
    8300225c:	00050c63          	beqz	a0,83002274 <SOUND_Play+0xb8>
    83002260:	00a14783          	lbu	a5,10(sp)
    83002264:	00100713          	li	a4,1
    83002268:	18e78263          	beq	a5,a4,830023ec <SOUND_Play+0x230>
    8300226c:	00200693          	li	a3,2
    83002270:	04d78263          	beq	a5,a3,830022b4 <SOUND_Play+0xf8>
    83002274:	000a0513          	mv	a0,s4
    83002278:	00033097          	auipc	ra,0x33
    8300227c:	bdc080e7          	jalr	-1060(ra) # 83034e54 <free>
    83002280:	00000513          	li	a0,0
    83002284:	05813083          	ld	ra,88(sp)
    83002288:	05013403          	ld	s0,80(sp)
    8300228c:	04813483          	ld	s1,72(sp)
    83002290:	04013903          	ld	s2,64(sp)
    83002294:	03813983          	ld	s3,56(sp)
    83002298:	03013a03          	ld	s4,48(sp)
    8300229c:	02813a83          	ld	s5,40(sp)
    830022a0:	02013b03          	ld	s6,32(sp)
    830022a4:	01813b83          	ld	s7,24(sp)
    830022a8:	01013c03          	ld	s8,16(sp)
    830022ac:	06010113          	addi	sp,sp,96
    830022b0:	00008067          	ret
    830022b4:	0069c683          	lbu	a3,6(s3)
    830022b8:	18e68a63          	beq	a3,a4,8300244c <SOUND_Play+0x290>
    830022bc:	faf69ce3          	bne	a3,a5,83002274 <SOUND_Play+0xb8>
    830022c0:	00815703          	lhu	a4,8(sp)
    830022c4:	01000793          	li	a5,16
    830022c8:	00000b97          	auipc	s7,0x0
    830022cc:	1a4b8b93          	addi	s7,s7,420 # 8300246c <SOUND_ResampleMix_U8_Stereo_Stereo>
    830022d0:	00f71663          	bne	a4,a5,830022dc <SOUND_Play+0x120>
    830022d4:	00000b97          	auipc	s7,0x0
    830022d8:	38cb8b93          	addi	s7,s7,908 # 83002660 <SOUND_ResampleMix_S16_Stereo_Stereo>
    830022dc:	fffff097          	auipc	ra,0xfffff
    830022e0:	c80080e7          	jalr	-896(ra) # 83000f5c <AUDIO_Lock>
    830022e4:	03040493          	addi	s1,s0,48
    830022e8:	00c0006f          	j	830022f4 <SOUND_Play+0x138>
    830022ec:	04070063          	beqz	a4,8300232c <SOUND_Play+0x170>
    830022f0:	00078493          	mv	s1,a5
    830022f4:	0004b783          	ld	a5,0(s1)
    830022f8:	0204b703          	ld	a4,32(s1)
    830022fc:	fe0798e3          	bnez	a5,830022ec <SOUND_Play+0x130>
    83002300:	02070663          	beqz	a4,8300232c <SOUND_Play+0x170>
    83002304:	04800513          	li	a0,72
    83002308:	00033097          	auipc	ra,0x33
    8300230c:	b34080e7          	jalr	-1228(ra) # 83034e3c <malloc>
    83002310:	00050913          	mv	s2,a0
    83002314:	04800613          	li	a2,72
    83002318:	00000593          	li	a1,0
    8300231c:	00035097          	auipc	ra,0x35
    83002320:	99c080e7          	jalr	-1636(ra) # 83036cb8 <memset>
    83002324:	0124b023          	sd	s2,0(s1)
    83002328:	00090493          	mv	s1,s2
    8300232c:	00a14783          	lbu	a5,10(sp)
    83002330:	06078c63          	beqz	a5,830023a8 <SOUND_Play+0x1ec>
    83002334:	00848913          	addi	s2,s1,8
    83002338:	00000b13          	li	s6,0
    8300233c:	00067c17          	auipc	s8,0x67
    83002340:	f0cc0c13          	addi	s8,s8,-244 # 83069248 <gConfig>
    83002344:	00093783          	ld	a5,0(s2)
    83002348:	00078513          	mv	a0,a5
    8300234c:	0c078863          	beqz	a5,8300241c <SOUND_Play+0x260>
    83002350:	ffffe097          	auipc	ra,0xffffe
    83002354:	208080e7          	jalr	520(ra) # 83000558 <resampler_clear>
    83002358:	00093503          	ld	a0,0(s2)
    8300235c:	00412783          	lw	a5,4(sp)
    83002360:	2f8c2703          	lw	a4,760(s8)
    83002364:	001b0b1b          	addiw	s6,s6,1
    83002368:	00000593          	li	a1,0
    8300236c:	02e7e6bb          	remw	a3,a5,a4
    83002370:	00068863          	beqz	a3,83002380 <SOUND_Play+0x1c4>
    83002374:	02f765bb          	remw	a1,a4,a5
    83002378:	00058463          	beqz	a1,83002380 <SOUND_Play+0x1c4>
    8300237c:	300c2583          	lw	a1,768(s8)
    83002380:	ffffe097          	auipc	ra,0xffffe
    83002384:	1ac080e7          	jalr	428(ra) # 8300052c <resampler_set_quality>
    83002388:	00890913          	addi	s2,s2,8
    8300238c:	ff893503          	ld	a0,-8(s2)
    83002390:	0009a603          	lw	a2,0(s3)
    83002394:	00412583          	lw	a1,4(sp)
    83002398:	ffffe097          	auipc	ra,0xffffe
    8300239c:	228080e7          	jalr	552(ra) # 830005c0 <resampler_set_rate>
    830023a0:	00a14783          	lbu	a5,10(sp)
    830023a4:	fafb40e3          	blt	s6,a5,83002344 <SOUND_Play+0x188>
    830023a8:	00013783          	ld	a5,0(sp)
    830023ac:	00012703          	lw	a4,0(sp)
    830023b0:	02f4bc23          	sd	a5,56(s1)
    830023b4:	00812783          	lw	a5,8(sp)
    830023b8:	00ea8733          	add	a4,s5,a4
    830023bc:	04f4a023          	sw	a5,64(s1)
    830023c0:	07842783          	lw	a5,120(s0)
    830023c4:	0344b023          	sd	s4,32(s1)
    830023c8:	0354b423          	sd	s5,40(s1)
    830023cc:	02e4b823          	sd	a4,48(s1)
    830023d0:	0174bc23          	sd	s7,24(s1)
    830023d4:	0017879b          	addiw	a5,a5,1
    830023d8:	06f42c23          	sw	a5,120(s0)
    830023dc:	fffff097          	auipc	ra,0xfffff
    830023e0:	b88080e7          	jalr	-1144(ra) # 83000f64 <AUDIO_Unlock>
    830023e4:	00100513          	li	a0,1
    830023e8:	e9dff06f          	j	83002284 <SOUND_Play+0xc8>
    830023ec:	0069c703          	lbu	a4,6(s3)
    830023f0:	02f70e63          	beq	a4,a5,8300242c <SOUND_Play+0x270>
    830023f4:	00200793          	li	a5,2
    830023f8:	e6f71ee3          	bne	a4,a5,83002274 <SOUND_Play+0xb8>
    830023fc:	00815703          	lhu	a4,8(sp)
    83002400:	01000793          	li	a5,16
    83002404:	00000b97          	auipc	s7,0x0
    83002408:	7b8b8b93          	addi	s7,s7,1976 # 83002bbc <SOUND_ResampleMix_U8_Mono_Stereo>
    8300240c:	ecf718e3          	bne	a4,a5,830022dc <SOUND_Play+0x120>
    83002410:	00001b97          	auipc	s7,0x1
    83002414:	938b8b93          	addi	s7,s7,-1736 # 83002d48 <SOUND_ResampleMix_S16_Mono_Stereo>
    83002418:	ec5ff06f          	j	830022dc <SOUND_Play+0x120>
    8300241c:	ffffe097          	auipc	ra,0xffffe
    83002420:	078080e7          	jalr	120(ra) # 83000494 <resampler_create>
    83002424:	00a93023          	sd	a0,0(s2)
    83002428:	f35ff06f          	j	8300235c <SOUND_Play+0x1a0>
    8300242c:	00815703          	lhu	a4,8(sp)
    83002430:	01000793          	li	a5,16
    83002434:	00001b97          	auipc	s7,0x1
    83002438:	c1cb8b93          	addi	s7,s7,-996 # 83003050 <SOUND_ResampleMix_S16_Mono_Mono>
    8300243c:	eaf700e3          	beq	a4,a5,830022dc <SOUND_Play+0x120>
    83002440:	00001b97          	auipc	s7,0x1
    83002444:	a8cb8b93          	addi	s7,s7,-1396 # 83002ecc <SOUND_ResampleMix_U8_Mono_Mono>
    83002448:	e95ff06f          	j	830022dc <SOUND_Play+0x120>
    8300244c:	00815703          	lhu	a4,8(sp)
    83002450:	01000793          	li	a5,16
    83002454:	00000b97          	auipc	s7,0x0
    83002458:	3e0b8b93          	addi	s7,s7,992 # 83002834 <SOUND_ResampleMix_U8_Stereo_Mono>
    8300245c:	e8f710e3          	bne	a4,a5,830022dc <SOUND_Play+0x120>
    83002460:	00000b97          	auipc	s7,0x0
    83002464:	5a8b8b93          	addi	s7,s7,1448 # 83002a08 <SOUND_ResampleMix_S16_Stereo_Mono>
    83002468:	e75ff06f          	j	830022dc <SOUND_Play+0x120>

000000008300246c <SOUND_ResampleMix_U8_Stereo_Stereo>:
    8300246c:	f9010113          	addi	sp,sp,-112
    83002470:	05213823          	sd	s2,80(sp)
    83002474:	03613823          	sd	s6,48(sp)
    83002478:	03813023          	sd	s8,32(sp)
    8300247c:	01913c23          	sd	s9,24(sp)
    83002480:	06113423          	sd	ra,104(sp)
    83002484:	06813023          	sd	s0,96(sp)
    83002488:	04913c23          	sd	s1,88(sp)
    8300248c:	05313423          	sd	s3,72(sp)
    83002490:	05413023          	sd	s4,64(sp)
    83002494:	03513c23          	sd	s5,56(sp)
    83002498:	03713423          	sd	s7,40(sp)
    8300249c:	01a13823          	sd	s10,16(sp)
    830024a0:	01b13423          	sd	s11,8(sp)
    830024a4:	40175b1b          	sraiw	s6,a4,0x1
    830024a8:	00062c03          	lw	s8,0(a2)
    830024ac:	00058913          	mv	s2,a1
    830024b0:	00078c93          	mv	s9,a5
    830024b4:	1b605263          	blez	s6,83002658 <SOUND_ResampleMix_U8_Stereo_Stereo+0x1ec>
    830024b8:	401c5c1b          	sraiw	s8,s8,0x1
    830024bc:	19805e63          	blez	s8,83002658 <SOUND_ResampleMix_U8_Stereo_Stereo+0x1ec>
    830024c0:	00008a37          	lui	s4,0x8
    830024c4:	00050413          	mv	s0,a0
    830024c8:	00068493          	mv	s1,a3
    830024cc:	00000993          	li	s3,0
    830024d0:	fffa0a93          	addi	s5,s4,-1 # 7fff <maskToShift.part.0-0x82ff80e9>
    830024d4:	ffff8bb7          	lui	s7,0xffff8
    830024d8:	00043503          	ld	a0,0(s0)
    830024dc:	ffffe097          	auipc	ra,0xffffe
    830024e0:	06c080e7          	jalr	108(ra) # 83000548 <resampler_get_free_count>
    830024e4:	00050793          	mv	a5,a0
    830024e8:	00ac5463          	bge	s8,a0,830024f0 <SOUND_ResampleMix_U8_Stereo_Stereo+0x84>
    830024ec:	000c0793          	mv	a5,s8
    830024f0:	00078d9b          	sext.w	s11,a5
    830024f4:	07b05263          	blez	s11,83002558 <SOUND_ResampleMix_U8_Stereo_Stereo+0xec>
    830024f8:	fff78d1b          	addiw	s10,a5,-1
    830024fc:	020d1d13          	slli	s10,s10,0x20
    83002500:	020d5d13          	srli	s10,s10,0x20
    83002504:	001d0d13          	addi	s10,s10,1
    83002508:	001d1d13          	slli	s10,s10,0x1
    8300250c:	01a90d33          	add	s10,s2,s10
    83002510:	00094583          	lbu	a1,0(s2)
    83002514:	00043503          	ld	a0,0(s0)
    83002518:	00290913          	addi	s2,s2,2
    8300251c:	0805c593          	xori	a1,a1,128
    83002520:	0085959b          	slliw	a1,a1,0x8
    83002524:	0105959b          	slliw	a1,a1,0x10
    83002528:	4105d59b          	sraiw	a1,a1,0x10
    8300252c:	ffffe097          	auipc	ra,0xffffe
    83002530:	0b0080e7          	jalr	176(ra) # 830005dc <resampler_write_sample>
    83002534:	fff94583          	lbu	a1,-1(s2)
    83002538:	00843503          	ld	a0,8(s0)
    8300253c:	0805c593          	xori	a1,a1,128
    83002540:	0085959b          	slliw	a1,a1,0x8
    83002544:	0105959b          	slliw	a1,a1,0x10
    83002548:	4105d59b          	sraiw	a1,a1,0x10
    8300254c:	ffffe097          	auipc	ra,0xffffe
    83002550:	090080e7          	jalr	144(ra) # 830005dc <resampler_write_sample>
    83002554:	fb2d1ee3          	bne	s10,s2,83002510 <SOUND_ResampleMix_U8_Stereo_Stereo+0xa4>
    83002558:	41bc0c3b          	subw	s8,s8,s11
    8300255c:	0969ce63          	blt	s3,s6,830025f8 <SOUND_ResampleMix_U8_Stereo_Stereo+0x18c>
    83002560:	0b00006f          	j	83002610 <SOUND_ResampleMix_U8_Stereo_Stereo+0x1a4>
    83002564:	00043503          	ld	a0,0(s0)
    83002568:	0029899b          	addiw	s3,s3,2
    8300256c:	ffffe097          	auipc	ra,0xffffe
    83002570:	128080e7          	jalr	296(ra) # 83000694 <resampler_get_sample>
    83002574:	00049703          	lh	a4,0(s1)
    83002578:	4085551b          	sraiw	a0,a0,0x8
    8300257c:	000a8793          	mv	a5,s5
    83002580:	00e5073b          	addw	a4,a0,a4
    83002584:	00070513          	mv	a0,a4
    83002588:	01475a63          	bge	a4,s4,8300259c <SOUND_ResampleMix_U8_Stereo_Stereo+0x130>
    8300258c:	01775463          	bge	a4,s7,83002594 <SOUND_ResampleMix_U8_Stereo_Stereo+0x128>
    83002590:	ffff8537          	lui	a0,0xffff8
    83002594:	0105179b          	slliw	a5,a0,0x10
    83002598:	4107d79b          	sraiw	a5,a5,0x10
    8300259c:	00843503          	ld	a0,8(s0)
    830025a0:	00f49023          	sh	a5,0(s1)
    830025a4:	00448493          	addi	s1,s1,4
    830025a8:	ffffe097          	auipc	ra,0xffffe
    830025ac:	0ec080e7          	jalr	236(ra) # 83000694 <resampler_get_sample>
    830025b0:	ffe49783          	lh	a5,-2(s1)
    830025b4:	4085551b          	sraiw	a0,a0,0x8
    830025b8:	00f5073b          	addw	a4,a0,a5
    830025bc:	00070513          	mv	a0,a4
    830025c0:	000a8793          	mv	a5,s5
    830025c4:	01475a63          	bge	a4,s4,830025d8 <SOUND_ResampleMix_U8_Stereo_Stereo+0x16c>
    830025c8:	01775463          	bge	a4,s7,830025d0 <SOUND_ResampleMix_U8_Stereo_Stereo+0x164>
    830025cc:	ffff8537          	lui	a0,0xffff8
    830025d0:	0105179b          	slliw	a5,a0,0x10
    830025d4:	4107d79b          	sraiw	a5,a5,0x10
    830025d8:	00043503          	ld	a0,0(s0)
    830025dc:	fef49f23          	sh	a5,-2(s1)
    830025e0:	ffffe097          	auipc	ra,0xffffe
    830025e4:	130080e7          	jalr	304(ra) # 83000710 <resampler_remove_sample>
    830025e8:	00843503          	ld	a0,8(s0)
    830025ec:	ffffe097          	auipc	ra,0xffffe
    830025f0:	124080e7          	jalr	292(ra) # 83000710 <resampler_remove_sample>
    830025f4:	0169de63          	bge	s3,s6,83002610 <SOUND_ResampleMix_U8_Stereo_Stereo+0x1a4>
    830025f8:	00043503          	ld	a0,0(s0)
    830025fc:	ffffe097          	auipc	ra,0xffffe
    83002600:	044080e7          	jalr	68(ra) # 83000640 <resampler_get_sample_count>
    83002604:	f6a040e3          	bgtz	a0,83002564 <SOUND_ResampleMix_U8_Stereo_Stereo+0xf8>
    83002608:	0169d463          	bge	s3,s6,83002610 <SOUND_ResampleMix_U8_Stereo_Stereo+0x1a4>
    8300260c:	ed8046e3          	bgtz	s8,830024d8 <SOUND_ResampleMix_U8_Stereo_Stereo+0x6c>
    83002610:	000c8463          	beqz	s9,83002618 <SOUND_ResampleMix_U8_Stereo_Stereo+0x1ac>
    83002614:	012cb023          	sd	s2,0(s9)
    83002618:	06813083          	ld	ra,104(sp)
    8300261c:	06013403          	ld	s0,96(sp)
    83002620:	00098513          	mv	a0,s3
    83002624:	05813483          	ld	s1,88(sp)
    83002628:	05013903          	ld	s2,80(sp)
    8300262c:	04813983          	ld	s3,72(sp)
    83002630:	04013a03          	ld	s4,64(sp)
    83002634:	03813a83          	ld	s5,56(sp)
    83002638:	03013b03          	ld	s6,48(sp)
    8300263c:	02813b83          	ld	s7,40(sp)
    83002640:	02013c03          	ld	s8,32(sp)
    83002644:	01813c83          	ld	s9,24(sp)
    83002648:	01013d03          	ld	s10,16(sp)
    8300264c:	00813d83          	ld	s11,8(sp)
    83002650:	07010113          	addi	sp,sp,112
    83002654:	00008067          	ret
    83002658:	00000993          	li	s3,0
    8300265c:	fb5ff06f          	j	83002610 <SOUND_ResampleMix_U8_Stereo_Stereo+0x1a4>

0000000083002660 <SOUND_ResampleMix_S16_Stereo_Stereo>:
    83002660:	f9010113          	addi	sp,sp,-112
    83002664:	05213823          	sd	s2,80(sp)
    83002668:	03613823          	sd	s6,48(sp)
    8300266c:	03813023          	sd	s8,32(sp)
    83002670:	01913c23          	sd	s9,24(sp)
    83002674:	06113423          	sd	ra,104(sp)
    83002678:	06813023          	sd	s0,96(sp)
    8300267c:	04913c23          	sd	s1,88(sp)
    83002680:	05313423          	sd	s3,72(sp)
    83002684:	05413023          	sd	s4,64(sp)
    83002688:	03513c23          	sd	s5,56(sp)
    8300268c:	03713423          	sd	s7,40(sp)
    83002690:	01a13823          	sd	s10,16(sp)
    83002694:	01b13423          	sd	s11,8(sp)
    83002698:	40175b1b          	sraiw	s6,a4,0x1
    8300269c:	00062c03          	lw	s8,0(a2)
    830026a0:	00058913          	mv	s2,a1
    830026a4:	00078c93          	mv	s9,a5
    830026a8:	19605263          	blez	s6,8300282c <SOUND_ResampleMix_S16_Stereo_Stereo+0x1cc>
    830026ac:	402c5c1b          	sraiw	s8,s8,0x2
    830026b0:	17805e63          	blez	s8,8300282c <SOUND_ResampleMix_S16_Stereo_Stereo+0x1cc>
    830026b4:	00008a37          	lui	s4,0x8
    830026b8:	00050413          	mv	s0,a0
    830026bc:	00068493          	mv	s1,a3
    830026c0:	00000993          	li	s3,0
    830026c4:	fffa0a93          	addi	s5,s4,-1 # 7fff <maskToShift.part.0-0x82ff80e9>
    830026c8:	ffff8bb7          	lui	s7,0xffff8
    830026cc:	00043503          	ld	a0,0(s0)
    830026d0:	ffffe097          	auipc	ra,0xffffe
    830026d4:	e78080e7          	jalr	-392(ra) # 83000548 <resampler_get_free_count>
    830026d8:	00050793          	mv	a5,a0
    830026dc:	00ac5463          	bge	s8,a0,830026e4 <SOUND_ResampleMix_S16_Stereo_Stereo+0x84>
    830026e0:	000c0793          	mv	a5,s8
    830026e4:	00078d9b          	sext.w	s11,a5
    830026e8:	05b05263          	blez	s11,8300272c <SOUND_ResampleMix_S16_Stereo_Stereo+0xcc>
    830026ec:	fff78d1b          	addiw	s10,a5,-1
    830026f0:	020d1d13          	slli	s10,s10,0x20
    830026f4:	020d5d13          	srli	s10,s10,0x20
    830026f8:	001d0d13          	addi	s10,s10,1
    830026fc:	002d1d13          	slli	s10,s10,0x2
    83002700:	01a90d33          	add	s10,s2,s10
    83002704:	00091583          	lh	a1,0(s2)
    83002708:	00043503          	ld	a0,0(s0)
    8300270c:	00490913          	addi	s2,s2,4
    83002710:	ffffe097          	auipc	ra,0xffffe
    83002714:	ecc080e7          	jalr	-308(ra) # 830005dc <resampler_write_sample>
    83002718:	ffe91583          	lh	a1,-2(s2)
    8300271c:	00843503          	ld	a0,8(s0)
    83002720:	ffffe097          	auipc	ra,0xffffe
    83002724:	ebc080e7          	jalr	-324(ra) # 830005dc <resampler_write_sample>
    83002728:	fd2d1ee3          	bne	s10,s2,83002704 <SOUND_ResampleMix_S16_Stereo_Stereo+0xa4>
    8300272c:	41bc0c3b          	subw	s8,s8,s11
    83002730:	0969ce63          	blt	s3,s6,830027cc <SOUND_ResampleMix_S16_Stereo_Stereo+0x16c>
    83002734:	0b00006f          	j	830027e4 <SOUND_ResampleMix_S16_Stereo_Stereo+0x184>
    83002738:	00043503          	ld	a0,0(s0)
    8300273c:	0029899b          	addiw	s3,s3,2
    83002740:	ffffe097          	auipc	ra,0xffffe
    83002744:	f54080e7          	jalr	-172(ra) # 83000694 <resampler_get_sample>
    83002748:	00049703          	lh	a4,0(s1)
    8300274c:	4085551b          	sraiw	a0,a0,0x8
    83002750:	000a8793          	mv	a5,s5
    83002754:	00e5073b          	addw	a4,a0,a4
    83002758:	00070513          	mv	a0,a4
    8300275c:	01475a63          	bge	a4,s4,83002770 <SOUND_ResampleMix_S16_Stereo_Stereo+0x110>
    83002760:	01775463          	bge	a4,s7,83002768 <SOUND_ResampleMix_S16_Stereo_Stereo+0x108>
    83002764:	ffff8537          	lui	a0,0xffff8
    83002768:	0105179b          	slliw	a5,a0,0x10
    8300276c:	4107d79b          	sraiw	a5,a5,0x10
    83002770:	00843503          	ld	a0,8(s0)
    83002774:	00f49023          	sh	a5,0(s1)
    83002778:	00448493          	addi	s1,s1,4
    8300277c:	ffffe097          	auipc	ra,0xffffe
    83002780:	f18080e7          	jalr	-232(ra) # 83000694 <resampler_get_sample>
    83002784:	ffe49783          	lh	a5,-2(s1)
    83002788:	4085551b          	sraiw	a0,a0,0x8
    8300278c:	00f5073b          	addw	a4,a0,a5
    83002790:	00070513          	mv	a0,a4
    83002794:	000a8793          	mv	a5,s5
    83002798:	01475a63          	bge	a4,s4,830027ac <SOUND_ResampleMix_S16_Stereo_Stereo+0x14c>
    8300279c:	01775463          	bge	a4,s7,830027a4 <SOUND_ResampleMix_S16_Stereo_Stereo+0x144>
    830027a0:	ffff8537          	lui	a0,0xffff8
    830027a4:	0105179b          	slliw	a5,a0,0x10
    830027a8:	4107d79b          	sraiw	a5,a5,0x10
    830027ac:	00043503          	ld	a0,0(s0)
    830027b0:	fef49f23          	sh	a5,-2(s1)
    830027b4:	ffffe097          	auipc	ra,0xffffe
    830027b8:	f5c080e7          	jalr	-164(ra) # 83000710 <resampler_remove_sample>
    830027bc:	00843503          	ld	a0,8(s0)
    830027c0:	ffffe097          	auipc	ra,0xffffe
    830027c4:	f50080e7          	jalr	-176(ra) # 83000710 <resampler_remove_sample>
    830027c8:	0169de63          	bge	s3,s6,830027e4 <SOUND_ResampleMix_S16_Stereo_Stereo+0x184>
    830027cc:	00043503          	ld	a0,0(s0)
    830027d0:	ffffe097          	auipc	ra,0xffffe
    830027d4:	e70080e7          	jalr	-400(ra) # 83000640 <resampler_get_sample_count>
    830027d8:	f6a040e3          	bgtz	a0,83002738 <SOUND_ResampleMix_S16_Stereo_Stereo+0xd8>
    830027dc:	0169d463          	bge	s3,s6,830027e4 <SOUND_ResampleMix_S16_Stereo_Stereo+0x184>
    830027e0:	ef8046e3          	bgtz	s8,830026cc <SOUND_ResampleMix_S16_Stereo_Stereo+0x6c>
    830027e4:	000c8463          	beqz	s9,830027ec <SOUND_ResampleMix_S16_Stereo_Stereo+0x18c>
    830027e8:	012cb023          	sd	s2,0(s9)
    830027ec:	06813083          	ld	ra,104(sp)
    830027f0:	06013403          	ld	s0,96(sp)
    830027f4:	00098513          	mv	a0,s3
    830027f8:	05813483          	ld	s1,88(sp)
    830027fc:	05013903          	ld	s2,80(sp)
    83002800:	04813983          	ld	s3,72(sp)
    83002804:	04013a03          	ld	s4,64(sp)
    83002808:	03813a83          	ld	s5,56(sp)
    8300280c:	03013b03          	ld	s6,48(sp)
    83002810:	02813b83          	ld	s7,40(sp)
    83002814:	02013c03          	ld	s8,32(sp)
    83002818:	01813c83          	ld	s9,24(sp)
    8300281c:	01013d03          	ld	s10,16(sp)
    83002820:	00813d83          	ld	s11,8(sp)
    83002824:	07010113          	addi	sp,sp,112
    83002828:	00008067          	ret
    8300282c:	00000993          	li	s3,0
    83002830:	fb5ff06f          	j	830027e4 <SOUND_ResampleMix_S16_Stereo_Stereo+0x184>

0000000083002834 <SOUND_ResampleMix_U8_Stereo_Mono>:
    83002834:	f9010113          	addi	sp,sp,-112
    83002838:	05213823          	sd	s2,80(sp)
    8300283c:	03813023          	sd	s8,32(sp)
    83002840:	01a13823          	sd	s10,16(sp)
    83002844:	06113423          	sd	ra,104(sp)
    83002848:	06813023          	sd	s0,96(sp)
    8300284c:	04913c23          	sd	s1,88(sp)
    83002850:	05313423          	sd	s3,72(sp)
    83002854:	05413023          	sd	s4,64(sp)
    83002858:	03513c23          	sd	s5,56(sp)
    8300285c:	03613823          	sd	s6,48(sp)
    83002860:	03713423          	sd	s7,40(sp)
    83002864:	01913c23          	sd	s9,24(sp)
    83002868:	01b13423          	sd	s11,8(sp)
    8300286c:	00062c03          	lw	s8,0(a2)
    83002870:	00058913          	mv	s2,a1
    83002874:	00078d13          	mv	s10,a5
    83002878:	18e05463          	blez	a4,83002a00 <SOUND_ResampleMix_U8_Stereo_Mono+0x1cc>
    8300287c:	401c5c1b          	sraiw	s8,s8,0x1
    83002880:	19805063          	blez	s8,83002a00 <SOUND_ResampleMix_U8_Stereo_Mono+0x1cc>
    83002884:	00008b37          	lui	s6,0x8
    83002888:	00070a93          	mv	s5,a4
    8300288c:	00050493          	mv	s1,a0
    83002890:	00068993          	mv	s3,a3
    83002894:	00000a13          	li	s4,0
    83002898:	fffb0b93          	addi	s7,s6,-1 # 7fff <maskToShift.part.0-0x82ff80e9>
    8300289c:	ffff8cb7          	lui	s9,0xffff8
    830028a0:	0004b503          	ld	a0,0(s1)
    830028a4:	ffffe097          	auipc	ra,0xffffe
    830028a8:	ca4080e7          	jalr	-860(ra) # 83000548 <resampler_get_free_count>
    830028ac:	000c0793          	mv	a5,s8
    830028b0:	01855463          	bge	a0,s8,830028b8 <SOUND_ResampleMix_U8_Stereo_Mono+0x84>
    830028b4:	00050793          	mv	a5,a0
    830028b8:	00078d9b          	sext.w	s11,a5
    830028bc:	07b05263          	blez	s11,83002920 <SOUND_ResampleMix_U8_Stereo_Mono+0xec>
    830028c0:	fff7841b          	addiw	s0,a5,-1
    830028c4:	02041413          	slli	s0,s0,0x20
    830028c8:	02045413          	srli	s0,s0,0x20
    830028cc:	00140413          	addi	s0,s0,1
    830028d0:	00141413          	slli	s0,s0,0x1
    830028d4:	00890433          	add	s0,s2,s0
    830028d8:	00094583          	lbu	a1,0(s2)
    830028dc:	0004b503          	ld	a0,0(s1)
    830028e0:	00290913          	addi	s2,s2,2
    830028e4:	0805c593          	xori	a1,a1,128
    830028e8:	0085959b          	slliw	a1,a1,0x8
    830028ec:	0105959b          	slliw	a1,a1,0x10
    830028f0:	4105d59b          	sraiw	a1,a1,0x10
    830028f4:	ffffe097          	auipc	ra,0xffffe
    830028f8:	ce8080e7          	jalr	-792(ra) # 830005dc <resampler_write_sample>
    830028fc:	fff94583          	lbu	a1,-1(s2)
    83002900:	0084b503          	ld	a0,8(s1)
    83002904:	0805c593          	xori	a1,a1,128
    83002908:	0085959b          	slliw	a1,a1,0x8
    8300290c:	0105959b          	slliw	a1,a1,0x10
    83002910:	4105d59b          	sraiw	a1,a1,0x10
    83002914:	ffffe097          	auipc	ra,0xffffe
    83002918:	cc8080e7          	jalr	-824(ra) # 830005dc <resampler_write_sample>
    8300291c:	fb241ee3          	bne	s0,s2,830028d8 <SOUND_ResampleMix_U8_Stereo_Mono+0xa4>
    83002920:	41bc0c3b          	subw	s8,s8,s11
    83002924:	0004b503          	ld	a0,0(s1)
    83002928:	ffffe097          	auipc	ra,0xffffe
    8300292c:	d18080e7          	jalr	-744(ra) # 83000640 <resampler_get_sample_count>
    83002930:	0ca05263          	blez	a0,830029f4 <SOUND_ResampleMix_U8_Stereo_Mono+0x1c0>
    83002934:	0004b503          	ld	a0,0(s1)
    83002938:	002a0a1b          	addiw	s4,s4,2
    8300293c:	00298993          	addi	s3,s3,2
    83002940:	ffffe097          	auipc	ra,0xffffe
    83002944:	d54080e7          	jalr	-684(ra) # 83000694 <resampler_get_sample>
    83002948:	00050413          	mv	s0,a0
    8300294c:	0084b503          	ld	a0,8(s1)
    83002950:	4084541b          	sraiw	s0,s0,0x8
    83002954:	ffffe097          	auipc	ra,0xffffe
    83002958:	d40080e7          	jalr	-704(ra) # 83000694 <resampler_get_sample>
    8300295c:	ffe99783          	lh	a5,-2(s3)
    83002960:	4085551b          	sraiw	a0,a0,0x8
    83002964:	00a4053b          	addw	a0,s0,a0
    83002968:	4015551b          	sraiw	a0,a0,0x1
    8300296c:	00f5073b          	addw	a4,a0,a5
    83002970:	00070513          	mv	a0,a4
    83002974:	000b8793          	mv	a5,s7
    83002978:	01675a63          	bge	a4,s6,8300298c <SOUND_ResampleMix_U8_Stereo_Mono+0x158>
    8300297c:	01975463          	bge	a4,s9,83002984 <SOUND_ResampleMix_U8_Stereo_Mono+0x150>
    83002980:	ffff8537          	lui	a0,0xffff8
    83002984:	0105179b          	slliw	a5,a0,0x10
    83002988:	4107d79b          	sraiw	a5,a5,0x10
    8300298c:	0004b503          	ld	a0,0(s1)
    83002990:	fef99f23          	sh	a5,-2(s3)
    83002994:	ffffe097          	auipc	ra,0xffffe
    83002998:	d7c080e7          	jalr	-644(ra) # 83000710 <resampler_remove_sample>
    8300299c:	0084b503          	ld	a0,8(s1)
    830029a0:	ffffe097          	auipc	ra,0xffffe
    830029a4:	d70080e7          	jalr	-656(ra) # 83000710 <resampler_remove_sample>
    830029a8:	f75a4ee3          	blt	s4,s5,83002924 <SOUND_ResampleMix_U8_Stereo_Mono+0xf0>
    830029ac:	000d0463          	beqz	s10,830029b4 <SOUND_ResampleMix_U8_Stereo_Mono+0x180>
    830029b0:	012d3023          	sd	s2,0(s10)
    830029b4:	06813083          	ld	ra,104(sp)
    830029b8:	06013403          	ld	s0,96(sp)
    830029bc:	000a0513          	mv	a0,s4
    830029c0:	05813483          	ld	s1,88(sp)
    830029c4:	05013903          	ld	s2,80(sp)
    830029c8:	04813983          	ld	s3,72(sp)
    830029cc:	04013a03          	ld	s4,64(sp)
    830029d0:	03813a83          	ld	s5,56(sp)
    830029d4:	03013b03          	ld	s6,48(sp)
    830029d8:	02813b83          	ld	s7,40(sp)
    830029dc:	02013c03          	ld	s8,32(sp)
    830029e0:	01813c83          	ld	s9,24(sp)
    830029e4:	01013d03          	ld	s10,16(sp)
    830029e8:	00813d83          	ld	s11,8(sp)
    830029ec:	07010113          	addi	sp,sp,112
    830029f0:	00008067          	ret
    830029f4:	fb5a5ce3          	bge	s4,s5,830029ac <SOUND_ResampleMix_U8_Stereo_Mono+0x178>
    830029f8:	eb8044e3          	bgtz	s8,830028a0 <SOUND_ResampleMix_U8_Stereo_Mono+0x6c>
    830029fc:	fb1ff06f          	j	830029ac <SOUND_ResampleMix_U8_Stereo_Mono+0x178>
    83002a00:	00000a13          	li	s4,0
    83002a04:	fa9ff06f          	j	830029ac <SOUND_ResampleMix_U8_Stereo_Mono+0x178>

0000000083002a08 <SOUND_ResampleMix_S16_Stereo_Mono>:
    83002a08:	f9010113          	addi	sp,sp,-112
    83002a0c:	05213823          	sd	s2,80(sp)
    83002a10:	03813023          	sd	s8,32(sp)
    83002a14:	01a13823          	sd	s10,16(sp)
    83002a18:	06113423          	sd	ra,104(sp)
    83002a1c:	06813023          	sd	s0,96(sp)
    83002a20:	04913c23          	sd	s1,88(sp)
    83002a24:	05313423          	sd	s3,72(sp)
    83002a28:	05413023          	sd	s4,64(sp)
    83002a2c:	03513c23          	sd	s5,56(sp)
    83002a30:	03613823          	sd	s6,48(sp)
    83002a34:	03713423          	sd	s7,40(sp)
    83002a38:	01913c23          	sd	s9,24(sp)
    83002a3c:	01b13423          	sd	s11,8(sp)
    83002a40:	00062c03          	lw	s8,0(a2)
    83002a44:	00058913          	mv	s2,a1
    83002a48:	00078d13          	mv	s10,a5
    83002a4c:	16e05463          	blez	a4,83002bb4 <SOUND_ResampleMix_S16_Stereo_Mono+0x1ac>
    83002a50:	402c5c1b          	sraiw	s8,s8,0x2
    83002a54:	17805063          	blez	s8,83002bb4 <SOUND_ResampleMix_S16_Stereo_Mono+0x1ac>
    83002a58:	00008b37          	lui	s6,0x8
    83002a5c:	00070a93          	mv	s5,a4
    83002a60:	00050493          	mv	s1,a0
    83002a64:	00068993          	mv	s3,a3
    83002a68:	00000a13          	li	s4,0
    83002a6c:	fffb0b93          	addi	s7,s6,-1 # 7fff <maskToShift.part.0-0x82ff80e9>
    83002a70:	ffff8cb7          	lui	s9,0xffff8
    83002a74:	0004b503          	ld	a0,0(s1)
    83002a78:	ffffe097          	auipc	ra,0xffffe
    83002a7c:	ad0080e7          	jalr	-1328(ra) # 83000548 <resampler_get_free_count>
    83002a80:	000c0793          	mv	a5,s8
    83002a84:	01855463          	bge	a0,s8,83002a8c <SOUND_ResampleMix_S16_Stereo_Mono+0x84>
    83002a88:	00050793          	mv	a5,a0
    83002a8c:	00078d9b          	sext.w	s11,a5
    83002a90:	05b05263          	blez	s11,83002ad4 <SOUND_ResampleMix_S16_Stereo_Mono+0xcc>
    83002a94:	fff7841b          	addiw	s0,a5,-1
    83002a98:	02041413          	slli	s0,s0,0x20
    83002a9c:	02045413          	srli	s0,s0,0x20
    83002aa0:	00140413          	addi	s0,s0,1
    83002aa4:	00241413          	slli	s0,s0,0x2
    83002aa8:	00890433          	add	s0,s2,s0
    83002aac:	00091583          	lh	a1,0(s2)
    83002ab0:	0004b503          	ld	a0,0(s1)
    83002ab4:	00490913          	addi	s2,s2,4
    83002ab8:	ffffe097          	auipc	ra,0xffffe
    83002abc:	b24080e7          	jalr	-1244(ra) # 830005dc <resampler_write_sample>
    83002ac0:	ffe91583          	lh	a1,-2(s2)
    83002ac4:	0084b503          	ld	a0,8(s1)
    83002ac8:	ffffe097          	auipc	ra,0xffffe
    83002acc:	b14080e7          	jalr	-1260(ra) # 830005dc <resampler_write_sample>
    83002ad0:	fd241ee3          	bne	s0,s2,83002aac <SOUND_ResampleMix_S16_Stereo_Mono+0xa4>
    83002ad4:	41bc0c3b          	subw	s8,s8,s11
    83002ad8:	0004b503          	ld	a0,0(s1)
    83002adc:	ffffe097          	auipc	ra,0xffffe
    83002ae0:	b64080e7          	jalr	-1180(ra) # 83000640 <resampler_get_sample_count>
    83002ae4:	0ca05263          	blez	a0,83002ba8 <SOUND_ResampleMix_S16_Stereo_Mono+0x1a0>
    83002ae8:	0004b503          	ld	a0,0(s1)
    83002aec:	002a0a1b          	addiw	s4,s4,2
    83002af0:	00298993          	addi	s3,s3,2
    83002af4:	ffffe097          	auipc	ra,0xffffe
    83002af8:	ba0080e7          	jalr	-1120(ra) # 83000694 <resampler_get_sample>
    83002afc:	00050413          	mv	s0,a0
    83002b00:	0084b503          	ld	a0,8(s1)
    83002b04:	4084541b          	sraiw	s0,s0,0x8
    83002b08:	ffffe097          	auipc	ra,0xffffe
    83002b0c:	b8c080e7          	jalr	-1140(ra) # 83000694 <resampler_get_sample>
    83002b10:	ffe99783          	lh	a5,-2(s3)
    83002b14:	4085551b          	sraiw	a0,a0,0x8
    83002b18:	00a4053b          	addw	a0,s0,a0
    83002b1c:	4015551b          	sraiw	a0,a0,0x1
    83002b20:	00f5073b          	addw	a4,a0,a5
    83002b24:	00070513          	mv	a0,a4
    83002b28:	000b8793          	mv	a5,s7
    83002b2c:	01675a63          	bge	a4,s6,83002b40 <SOUND_ResampleMix_S16_Stereo_Mono+0x138>
    83002b30:	01975463          	bge	a4,s9,83002b38 <SOUND_ResampleMix_S16_Stereo_Mono+0x130>
    83002b34:	ffff8537          	lui	a0,0xffff8
    83002b38:	0105179b          	slliw	a5,a0,0x10
    83002b3c:	4107d79b          	sraiw	a5,a5,0x10
    83002b40:	0004b503          	ld	a0,0(s1)
    83002b44:	fef99f23          	sh	a5,-2(s3)
    83002b48:	ffffe097          	auipc	ra,0xffffe
    83002b4c:	bc8080e7          	jalr	-1080(ra) # 83000710 <resampler_remove_sample>
    83002b50:	0084b503          	ld	a0,8(s1)
    83002b54:	ffffe097          	auipc	ra,0xffffe
    83002b58:	bbc080e7          	jalr	-1092(ra) # 83000710 <resampler_remove_sample>
    83002b5c:	f75a4ee3          	blt	s4,s5,83002ad8 <SOUND_ResampleMix_S16_Stereo_Mono+0xd0>
    83002b60:	000d0463          	beqz	s10,83002b68 <SOUND_ResampleMix_S16_Stereo_Mono+0x160>
    83002b64:	012d3023          	sd	s2,0(s10)
    83002b68:	06813083          	ld	ra,104(sp)
    83002b6c:	06013403          	ld	s0,96(sp)
    83002b70:	000a0513          	mv	a0,s4
    83002b74:	05813483          	ld	s1,88(sp)
    83002b78:	05013903          	ld	s2,80(sp)
    83002b7c:	04813983          	ld	s3,72(sp)
    83002b80:	04013a03          	ld	s4,64(sp)
    83002b84:	03813a83          	ld	s5,56(sp)
    83002b88:	03013b03          	ld	s6,48(sp)
    83002b8c:	02813b83          	ld	s7,40(sp)
    83002b90:	02013c03          	ld	s8,32(sp)
    83002b94:	01813c83          	ld	s9,24(sp)
    83002b98:	01013d03          	ld	s10,16(sp)
    83002b9c:	00813d83          	ld	s11,8(sp)
    83002ba0:	07010113          	addi	sp,sp,112
    83002ba4:	00008067          	ret
    83002ba8:	fb5a5ce3          	bge	s4,s5,83002b60 <SOUND_ResampleMix_S16_Stereo_Mono+0x158>
    83002bac:	ed8044e3          	bgtz	s8,83002a74 <SOUND_ResampleMix_S16_Stereo_Mono+0x6c>
    83002bb0:	fb1ff06f          	j	83002b60 <SOUND_ResampleMix_S16_Stereo_Mono+0x158>
    83002bb4:	00000a13          	li	s4,0
    83002bb8:	fa9ff06f          	j	83002b60 <SOUND_ResampleMix_S16_Stereo_Mono+0x158>

0000000083002bbc <SOUND_ResampleMix_U8_Mono_Stereo>:
    83002bbc:	f9010113          	addi	sp,sp,-112
    83002bc0:	05213823          	sd	s2,80(sp)
    83002bc4:	05413023          	sd	s4,64(sp)
    83002bc8:	03713423          	sd	s7,40(sp)
    83002bcc:	01913c23          	sd	s9,24(sp)
    83002bd0:	06113423          	sd	ra,104(sp)
    83002bd4:	06813023          	sd	s0,96(sp)
    83002bd8:	04913c23          	sd	s1,88(sp)
    83002bdc:	05313423          	sd	s3,72(sp)
    83002be0:	03513c23          	sd	s5,56(sp)
    83002be4:	03613823          	sd	s6,48(sp)
    83002be8:	03813023          	sd	s8,32(sp)
    83002bec:	01a13823          	sd	s10,16(sp)
    83002bf0:	01b13423          	sd	s11,8(sp)
    83002bf4:	40175a1b          	sraiw	s4,a4,0x1
    83002bf8:	00058913          	mv	s2,a1
    83002bfc:	00078c93          	mv	s9,a5
    83002c00:	00062b83          	lw	s7,0(a2)
    83002c04:	13405e63          	blez	s4,83002d40 <SOUND_ResampleMix_U8_Mono_Stereo+0x184>
    83002c08:	13705c63          	blez	s7,83002d40 <SOUND_ResampleMix_U8_Mono_Stereo+0x184>
    83002c0c:	00008ab7          	lui	s5,0x8
    83002c10:	00050493          	mv	s1,a0
    83002c14:	00068413          	mv	s0,a3
    83002c18:	00000993          	li	s3,0
    83002c1c:	fffa8b13          	addi	s6,s5,-1 # 7fff <maskToShift.part.0-0x82ff80e9>
    83002c20:	ffff8c37          	lui	s8,0xffff8
    83002c24:	0004b503          	ld	a0,0(s1)
    83002c28:	ffffe097          	auipc	ra,0xffffe
    83002c2c:	920080e7          	jalr	-1760(ra) # 83000548 <resampler_get_free_count>
    83002c30:	00050793          	mv	a5,a0
    83002c34:	00abd463          	bge	s7,a0,83002c3c <SOUND_ResampleMix_U8_Mono_Stereo+0x80>
    83002c38:	000b8793          	mv	a5,s7
    83002c3c:	00078d9b          	sext.w	s11,a5
    83002c40:	05b05063          	blez	s11,83002c80 <SOUND_ResampleMix_U8_Mono_Stereo+0xc4>
    83002c44:	fff78d1b          	addiw	s10,a5,-1
    83002c48:	020d1d13          	slli	s10,s10,0x20
    83002c4c:	020d5d13          	srli	s10,s10,0x20
    83002c50:	001d0d13          	addi	s10,s10,1
    83002c54:	01a90d33          	add	s10,s2,s10
    83002c58:	00190913          	addi	s2,s2,1
    83002c5c:	fff94583          	lbu	a1,-1(s2)
    83002c60:	0004b503          	ld	a0,0(s1)
    83002c64:	0805c593          	xori	a1,a1,128
    83002c68:	0085959b          	slliw	a1,a1,0x8
    83002c6c:	0105959b          	slliw	a1,a1,0x10
    83002c70:	4105d59b          	sraiw	a1,a1,0x10
    83002c74:	ffffe097          	auipc	ra,0xffffe
    83002c78:	968080e7          	jalr	-1688(ra) # 830005dc <resampler_write_sample>
    83002c7c:	fd2d1ee3          	bne	s10,s2,83002c58 <SOUND_ResampleMix_U8_Mono_Stereo+0x9c>
    83002c80:	41bb8bbb          	subw	s7,s7,s11
    83002c84:	0549ce63          	blt	s3,s4,83002ce0 <SOUND_ResampleMix_U8_Mono_Stereo+0x124>
    83002c88:	0700006f          	j	83002cf8 <SOUND_ResampleMix_U8_Mono_Stereo+0x13c>
    83002c8c:	0004b503          	ld	a0,0(s1)
    83002c90:	0029899b          	addiw	s3,s3,2
    83002c94:	ffffe097          	auipc	ra,0xffffe
    83002c98:	a00080e7          	jalr	-1536(ra) # 83000694 <resampler_get_sample>
    83002c9c:	00041703          	lh	a4,0(s0)
    83002ca0:	4085551b          	sraiw	a0,a0,0x8
    83002ca4:	000b0793          	mv	a5,s6
    83002ca8:	00e5073b          	addw	a4,a0,a4
    83002cac:	00070513          	mv	a0,a4
    83002cb0:	01575a63          	bge	a4,s5,83002cc4 <SOUND_ResampleMix_U8_Mono_Stereo+0x108>
    83002cb4:	01875463          	bge	a4,s8,83002cbc <SOUND_ResampleMix_U8_Mono_Stereo+0x100>
    83002cb8:	ffff8537          	lui	a0,0xffff8
    83002cbc:	0105179b          	slliw	a5,a0,0x10
    83002cc0:	4107d79b          	sraiw	a5,a5,0x10
    83002cc4:	0004b503          	ld	a0,0(s1)
    83002cc8:	00f41123          	sh	a5,2(s0)
    83002ccc:	00f41023          	sh	a5,0(s0)
    83002cd0:	00440413          	addi	s0,s0,4
    83002cd4:	ffffe097          	auipc	ra,0xffffe
    83002cd8:	a3c080e7          	jalr	-1476(ra) # 83000710 <resampler_remove_sample>
    83002cdc:	0149de63          	bge	s3,s4,83002cf8 <SOUND_ResampleMix_U8_Mono_Stereo+0x13c>
    83002ce0:	0004b503          	ld	a0,0(s1)
    83002ce4:	ffffe097          	auipc	ra,0xffffe
    83002ce8:	95c080e7          	jalr	-1700(ra) # 83000640 <resampler_get_sample_count>
    83002cec:	faa040e3          	bgtz	a0,83002c8c <SOUND_ResampleMix_U8_Mono_Stereo+0xd0>
    83002cf0:	0149d463          	bge	s3,s4,83002cf8 <SOUND_ResampleMix_U8_Mono_Stereo+0x13c>
    83002cf4:	f37048e3          	bgtz	s7,83002c24 <SOUND_ResampleMix_U8_Mono_Stereo+0x68>
    83002cf8:	000c8463          	beqz	s9,83002d00 <SOUND_ResampleMix_U8_Mono_Stereo+0x144>
    83002cfc:	012cb023          	sd	s2,0(s9) # ffffffffffff8000 <_end+0xffffffff7cf8d9e0>
    83002d00:	06813083          	ld	ra,104(sp)
    83002d04:	06013403          	ld	s0,96(sp)
    83002d08:	00098513          	mv	a0,s3
    83002d0c:	05813483          	ld	s1,88(sp)
    83002d10:	05013903          	ld	s2,80(sp)
    83002d14:	04813983          	ld	s3,72(sp)
    83002d18:	04013a03          	ld	s4,64(sp)
    83002d1c:	03813a83          	ld	s5,56(sp)
    83002d20:	03013b03          	ld	s6,48(sp)
    83002d24:	02813b83          	ld	s7,40(sp)
    83002d28:	02013c03          	ld	s8,32(sp)
    83002d2c:	01813c83          	ld	s9,24(sp)
    83002d30:	01013d03          	ld	s10,16(sp)
    83002d34:	00813d83          	ld	s11,8(sp)
    83002d38:	07010113          	addi	sp,sp,112
    83002d3c:	00008067          	ret
    83002d40:	00000993          	li	s3,0
    83002d44:	fb5ff06f          	j	83002cf8 <SOUND_ResampleMix_U8_Mono_Stereo+0x13c>

0000000083002d48 <SOUND_ResampleMix_S16_Mono_Stereo>:
    83002d48:	f9010113          	addi	sp,sp,-112
    83002d4c:	05213823          	sd	s2,80(sp)
    83002d50:	05413023          	sd	s4,64(sp)
    83002d54:	03713423          	sd	s7,40(sp)
    83002d58:	01913c23          	sd	s9,24(sp)
    83002d5c:	06113423          	sd	ra,104(sp)
    83002d60:	06813023          	sd	s0,96(sp)
    83002d64:	04913c23          	sd	s1,88(sp)
    83002d68:	05313423          	sd	s3,72(sp)
    83002d6c:	03513c23          	sd	s5,56(sp)
    83002d70:	03613823          	sd	s6,48(sp)
    83002d74:	03813023          	sd	s8,32(sp)
    83002d78:	01a13823          	sd	s10,16(sp)
    83002d7c:	01b13423          	sd	s11,8(sp)
    83002d80:	40175a1b          	sraiw	s4,a4,0x1
    83002d84:	00062b83          	lw	s7,0(a2)
    83002d88:	00058913          	mv	s2,a1
    83002d8c:	00078c93          	mv	s9,a5
    83002d90:	13405a63          	blez	s4,83002ec4 <SOUND_ResampleMix_S16_Mono_Stereo+0x17c>
    83002d94:	401bdb9b          	sraiw	s7,s7,0x1
    83002d98:	13705663          	blez	s7,83002ec4 <SOUND_ResampleMix_S16_Mono_Stereo+0x17c>
    83002d9c:	00008ab7          	lui	s5,0x8
    83002da0:	00050493          	mv	s1,a0
    83002da4:	00068413          	mv	s0,a3
    83002da8:	00000993          	li	s3,0
    83002dac:	fffa8b13          	addi	s6,s5,-1 # 7fff <maskToShift.part.0-0x82ff80e9>
    83002db0:	ffff8c37          	lui	s8,0xffff8
    83002db4:	0004b503          	ld	a0,0(s1)
    83002db8:	ffffd097          	auipc	ra,0xffffd
    83002dbc:	790080e7          	jalr	1936(ra) # 83000548 <resampler_get_free_count>
    83002dc0:	00050793          	mv	a5,a0
    83002dc4:	00abd463          	bge	s7,a0,83002dcc <SOUND_ResampleMix_S16_Mono_Stereo+0x84>
    83002dc8:	000b8793          	mv	a5,s7
    83002dcc:	00078d9b          	sext.w	s11,a5
    83002dd0:	03b05a63          	blez	s11,83002e04 <SOUND_ResampleMix_S16_Mono_Stereo+0xbc>
    83002dd4:	fff78d1b          	addiw	s10,a5,-1
    83002dd8:	020d1d13          	slli	s10,s10,0x20
    83002ddc:	020d5d13          	srli	s10,s10,0x20
    83002de0:	001d0d13          	addi	s10,s10,1
    83002de4:	001d1d13          	slli	s10,s10,0x1
    83002de8:	01a90d33          	add	s10,s2,s10
    83002dec:	00290913          	addi	s2,s2,2
    83002df0:	ffe91583          	lh	a1,-2(s2)
    83002df4:	0004b503          	ld	a0,0(s1)
    83002df8:	ffffd097          	auipc	ra,0xffffd
    83002dfc:	7e4080e7          	jalr	2020(ra) # 830005dc <resampler_write_sample>
    83002e00:	ffa916e3          	bne	s2,s10,83002dec <SOUND_ResampleMix_S16_Mono_Stereo+0xa4>
    83002e04:	41bb8bbb          	subw	s7,s7,s11
    83002e08:	0549ce63          	blt	s3,s4,83002e64 <SOUND_ResampleMix_S16_Mono_Stereo+0x11c>
    83002e0c:	0700006f          	j	83002e7c <SOUND_ResampleMix_S16_Mono_Stereo+0x134>
    83002e10:	0004b503          	ld	a0,0(s1)
    83002e14:	0029899b          	addiw	s3,s3,2
    83002e18:	ffffe097          	auipc	ra,0xffffe
    83002e1c:	87c080e7          	jalr	-1924(ra) # 83000694 <resampler_get_sample>
    83002e20:	00041703          	lh	a4,0(s0)
    83002e24:	4085551b          	sraiw	a0,a0,0x8
    83002e28:	000b0793          	mv	a5,s6
    83002e2c:	00e5073b          	addw	a4,a0,a4
    83002e30:	00070513          	mv	a0,a4
    83002e34:	01575a63          	bge	a4,s5,83002e48 <SOUND_ResampleMix_S16_Mono_Stereo+0x100>
    83002e38:	01875463          	bge	a4,s8,83002e40 <SOUND_ResampleMix_S16_Mono_Stereo+0xf8>
    83002e3c:	ffff8537          	lui	a0,0xffff8
    83002e40:	0105179b          	slliw	a5,a0,0x10
    83002e44:	4107d79b          	sraiw	a5,a5,0x10
    83002e48:	0004b503          	ld	a0,0(s1)
    83002e4c:	00f41123          	sh	a5,2(s0)
    83002e50:	00f41023          	sh	a5,0(s0)
    83002e54:	00440413          	addi	s0,s0,4
    83002e58:	ffffe097          	auipc	ra,0xffffe
    83002e5c:	8b8080e7          	jalr	-1864(ra) # 83000710 <resampler_remove_sample>
    83002e60:	0149de63          	bge	s3,s4,83002e7c <SOUND_ResampleMix_S16_Mono_Stereo+0x134>
    83002e64:	0004b503          	ld	a0,0(s1)
    83002e68:	ffffd097          	auipc	ra,0xffffd
    83002e6c:	7d8080e7          	jalr	2008(ra) # 83000640 <resampler_get_sample_count>
    83002e70:	faa040e3          	bgtz	a0,83002e10 <SOUND_ResampleMix_S16_Mono_Stereo+0xc8>
    83002e74:	0149d463          	bge	s3,s4,83002e7c <SOUND_ResampleMix_S16_Mono_Stereo+0x134>
    83002e78:	f3704ee3          	bgtz	s7,83002db4 <SOUND_ResampleMix_S16_Mono_Stereo+0x6c>
    83002e7c:	000c8463          	beqz	s9,83002e84 <SOUND_ResampleMix_S16_Mono_Stereo+0x13c>
    83002e80:	012cb023          	sd	s2,0(s9)
    83002e84:	06813083          	ld	ra,104(sp)
    83002e88:	06013403          	ld	s0,96(sp)
    83002e8c:	00098513          	mv	a0,s3
    83002e90:	05813483          	ld	s1,88(sp)
    83002e94:	05013903          	ld	s2,80(sp)
    83002e98:	04813983          	ld	s3,72(sp)
    83002e9c:	04013a03          	ld	s4,64(sp)
    83002ea0:	03813a83          	ld	s5,56(sp)
    83002ea4:	03013b03          	ld	s6,48(sp)
    83002ea8:	02813b83          	ld	s7,40(sp)
    83002eac:	02013c03          	ld	s8,32(sp)
    83002eb0:	01813c83          	ld	s9,24(sp)
    83002eb4:	01013d03          	ld	s10,16(sp)
    83002eb8:	00813d83          	ld	s11,8(sp)
    83002ebc:	07010113          	addi	sp,sp,112
    83002ec0:	00008067          	ret
    83002ec4:	00000993          	li	s3,0
    83002ec8:	fb5ff06f          	j	83002e7c <SOUND_ResampleMix_S16_Mono_Stereo+0x134>

0000000083002ecc <SOUND_ResampleMix_U8_Mono_Mono>:
    83002ecc:	f9010113          	addi	sp,sp,-112
    83002ed0:	05213823          	sd	s2,80(sp)
    83002ed4:	03713423          	sd	s7,40(sp)
    83002ed8:	01913c23          	sd	s9,24(sp)
    83002edc:	06113423          	sd	ra,104(sp)
    83002ee0:	06813023          	sd	s0,96(sp)
    83002ee4:	04913c23          	sd	s1,88(sp)
    83002ee8:	05313423          	sd	s3,72(sp)
    83002eec:	05413023          	sd	s4,64(sp)
    83002ef0:	03513c23          	sd	s5,56(sp)
    83002ef4:	03613823          	sd	s6,48(sp)
    83002ef8:	03813023          	sd	s8,32(sp)
    83002efc:	01a13823          	sd	s10,16(sp)
    83002f00:	01b13423          	sd	s11,8(sp)
    83002f04:	00058913          	mv	s2,a1
    83002f08:	00078c93          	mv	s9,a5
    83002f0c:	00062b83          	lw	s7,0(a2)
    83002f10:	12e05c63          	blez	a4,83003048 <SOUND_ResampleMix_U8_Mono_Mono+0x17c>
    83002f14:	13705a63          	blez	s7,83003048 <SOUND_ResampleMix_U8_Mono_Mono+0x17c>
    83002f18:	00008ab7          	lui	s5,0x8
    83002f1c:	00070a13          	mv	s4,a4
    83002f20:	00050413          	mv	s0,a0
    83002f24:	00068493          	mv	s1,a3
    83002f28:	00000993          	li	s3,0
    83002f2c:	fffa8b13          	addi	s6,s5,-1 # 7fff <maskToShift.part.0-0x82ff80e9>
    83002f30:	ffff8c37          	lui	s8,0xffff8
    83002f34:	00043503          	ld	a0,0(s0)
    83002f38:	ffffd097          	auipc	ra,0xffffd
    83002f3c:	610080e7          	jalr	1552(ra) # 83000548 <resampler_get_free_count>
    83002f40:	000b8793          	mv	a5,s7
    83002f44:	01755463          	bge	a0,s7,83002f4c <SOUND_ResampleMix_U8_Mono_Mono+0x80>
    83002f48:	00050793          	mv	a5,a0
    83002f4c:	00078d9b          	sext.w	s11,a5
    83002f50:	05b05063          	blez	s11,83002f90 <SOUND_ResampleMix_U8_Mono_Mono+0xc4>
    83002f54:	fff78d1b          	addiw	s10,a5,-1
    83002f58:	020d1d13          	slli	s10,s10,0x20
    83002f5c:	020d5d13          	srli	s10,s10,0x20
    83002f60:	001d0d13          	addi	s10,s10,1
    83002f64:	01a90d33          	add	s10,s2,s10
    83002f68:	00190913          	addi	s2,s2,1
    83002f6c:	fff94583          	lbu	a1,-1(s2)
    83002f70:	00043503          	ld	a0,0(s0)
    83002f74:	0805c593          	xori	a1,a1,128
    83002f78:	0085959b          	slliw	a1,a1,0x8
    83002f7c:	0105959b          	slliw	a1,a1,0x10
    83002f80:	4105d59b          	sraiw	a1,a1,0x10
    83002f84:	ffffd097          	auipc	ra,0xffffd
    83002f88:	658080e7          	jalr	1624(ra) # 830005dc <resampler_write_sample>
    83002f8c:	fd2d1ee3          	bne	s10,s2,83002f68 <SOUND_ResampleMix_U8_Mono_Mono+0x9c>
    83002f90:	41bb8bbb          	subw	s7,s7,s11
    83002f94:	00043503          	ld	a0,0(s0)
    83002f98:	ffffd097          	auipc	ra,0xffffd
    83002f9c:	6a8080e7          	jalr	1704(ra) # 83000640 <resampler_get_sample_count>
    83002fa0:	08a05e63          	blez	a0,8300303c <SOUND_ResampleMix_U8_Mono_Mono+0x170>
    83002fa4:	00043503          	ld	a0,0(s0)
    83002fa8:	0029899b          	addiw	s3,s3,2
    83002fac:	00248493          	addi	s1,s1,2
    83002fb0:	ffffd097          	auipc	ra,0xffffd
    83002fb4:	6e4080e7          	jalr	1764(ra) # 83000694 <resampler_get_sample>
    83002fb8:	ffe49783          	lh	a5,-2(s1)
    83002fbc:	4085551b          	sraiw	a0,a0,0x8
    83002fc0:	00f5073b          	addw	a4,a0,a5
    83002fc4:	00070513          	mv	a0,a4
    83002fc8:	000b0793          	mv	a5,s6
    83002fcc:	01575a63          	bge	a4,s5,83002fe0 <SOUND_ResampleMix_U8_Mono_Mono+0x114>
    83002fd0:	01875463          	bge	a4,s8,83002fd8 <SOUND_ResampleMix_U8_Mono_Mono+0x10c>
    83002fd4:	ffff8537          	lui	a0,0xffff8
    83002fd8:	0105179b          	slliw	a5,a0,0x10
    83002fdc:	4107d79b          	sraiw	a5,a5,0x10
    83002fe0:	00043503          	ld	a0,0(s0)
    83002fe4:	fef49f23          	sh	a5,-2(s1)
    83002fe8:	ffffd097          	auipc	ra,0xffffd
    83002fec:	728080e7          	jalr	1832(ra) # 83000710 <resampler_remove_sample>
    83002ff0:	fb49c2e3          	blt	s3,s4,83002f94 <SOUND_ResampleMix_U8_Mono_Mono+0xc8>
    83002ff4:	000c8463          	beqz	s9,83002ffc <SOUND_ResampleMix_U8_Mono_Mono+0x130>
    83002ff8:	012cb023          	sd	s2,0(s9)
    83002ffc:	06813083          	ld	ra,104(sp)
    83003000:	06013403          	ld	s0,96(sp)
    83003004:	00098513          	mv	a0,s3
    83003008:	05813483          	ld	s1,88(sp)
    8300300c:	05013903          	ld	s2,80(sp)
    83003010:	04813983          	ld	s3,72(sp)
    83003014:	04013a03          	ld	s4,64(sp)
    83003018:	03813a83          	ld	s5,56(sp)
    8300301c:	03013b03          	ld	s6,48(sp)
    83003020:	02813b83          	ld	s7,40(sp)
    83003024:	02013c03          	ld	s8,32(sp)
    83003028:	01813c83          	ld	s9,24(sp)
    8300302c:	01013d03          	ld	s10,16(sp)
    83003030:	00813d83          	ld	s11,8(sp)
    83003034:	07010113          	addi	sp,sp,112
    83003038:	00008067          	ret
    8300303c:	fb49dce3          	bge	s3,s4,83002ff4 <SOUND_ResampleMix_U8_Mono_Mono+0x128>
    83003040:	ef704ae3          	bgtz	s7,83002f34 <SOUND_ResampleMix_U8_Mono_Mono+0x68>
    83003044:	fb1ff06f          	j	83002ff4 <SOUND_ResampleMix_U8_Mono_Mono+0x128>
    83003048:	00000993          	li	s3,0
    8300304c:	fa9ff06f          	j	83002ff4 <SOUND_ResampleMix_U8_Mono_Mono+0x128>

0000000083003050 <SOUND_ResampleMix_S16_Mono_Mono>:
    83003050:	f9010113          	addi	sp,sp,-112
    83003054:	05213823          	sd	s2,80(sp)
    83003058:	03713423          	sd	s7,40(sp)
    8300305c:	01913c23          	sd	s9,24(sp)
    83003060:	06113423          	sd	ra,104(sp)
    83003064:	06813023          	sd	s0,96(sp)
    83003068:	04913c23          	sd	s1,88(sp)
    8300306c:	05313423          	sd	s3,72(sp)
    83003070:	05413023          	sd	s4,64(sp)
    83003074:	03513c23          	sd	s5,56(sp)
    83003078:	03613823          	sd	s6,48(sp)
    8300307c:	03813023          	sd	s8,32(sp)
    83003080:	01a13823          	sd	s10,16(sp)
    83003084:	01b13423          	sd	s11,8(sp)
    83003088:	00062b83          	lw	s7,0(a2)
    8300308c:	00058913          	mv	s2,a1
    83003090:	00078c93          	mv	s9,a5
    83003094:	12e05863          	blez	a4,830031c4 <SOUND_ResampleMix_S16_Mono_Mono+0x174>
    83003098:	401bdb9b          	sraiw	s7,s7,0x1
    8300309c:	13705463          	blez	s7,830031c4 <SOUND_ResampleMix_S16_Mono_Mono+0x174>
    830030a0:	00008ab7          	lui	s5,0x8
    830030a4:	00070a13          	mv	s4,a4
    830030a8:	00050413          	mv	s0,a0
    830030ac:	00068493          	mv	s1,a3
    830030b0:	00000993          	li	s3,0
    830030b4:	fffa8b13          	addi	s6,s5,-1 # 7fff <maskToShift.part.0-0x82ff80e9>
    830030b8:	ffff8c37          	lui	s8,0xffff8
    830030bc:	00043503          	ld	a0,0(s0)
    830030c0:	ffffd097          	auipc	ra,0xffffd
    830030c4:	488080e7          	jalr	1160(ra) # 83000548 <resampler_get_free_count>
    830030c8:	000b8793          	mv	a5,s7
    830030cc:	01755463          	bge	a0,s7,830030d4 <SOUND_ResampleMix_S16_Mono_Mono+0x84>
    830030d0:	00050793          	mv	a5,a0
    830030d4:	00078d9b          	sext.w	s11,a5
    830030d8:	03b05a63          	blez	s11,8300310c <SOUND_ResampleMix_S16_Mono_Mono+0xbc>
    830030dc:	fff78d1b          	addiw	s10,a5,-1
    830030e0:	020d1d13          	slli	s10,s10,0x20
    830030e4:	020d5d13          	srli	s10,s10,0x20
    830030e8:	001d0d13          	addi	s10,s10,1
    830030ec:	001d1d13          	slli	s10,s10,0x1
    830030f0:	01a90d33          	add	s10,s2,s10
    830030f4:	00290913          	addi	s2,s2,2
    830030f8:	ffe91583          	lh	a1,-2(s2)
    830030fc:	00043503          	ld	a0,0(s0)
    83003100:	ffffd097          	auipc	ra,0xffffd
    83003104:	4dc080e7          	jalr	1244(ra) # 830005dc <resampler_write_sample>
    83003108:	ffa916e3          	bne	s2,s10,830030f4 <SOUND_ResampleMix_S16_Mono_Mono+0xa4>
    8300310c:	41bb8bbb          	subw	s7,s7,s11
    83003110:	00043503          	ld	a0,0(s0)
    83003114:	ffffd097          	auipc	ra,0xffffd
    83003118:	52c080e7          	jalr	1324(ra) # 83000640 <resampler_get_sample_count>
    8300311c:	08a05e63          	blez	a0,830031b8 <SOUND_ResampleMix_S16_Mono_Mono+0x168>
    83003120:	00043503          	ld	a0,0(s0)
    83003124:	0029899b          	addiw	s3,s3,2
    83003128:	00248493          	addi	s1,s1,2
    8300312c:	ffffd097          	auipc	ra,0xffffd
    83003130:	568080e7          	jalr	1384(ra) # 83000694 <resampler_get_sample>
    83003134:	ffe49783          	lh	a5,-2(s1)
    83003138:	4085551b          	sraiw	a0,a0,0x8
    8300313c:	00f5073b          	addw	a4,a0,a5
    83003140:	00070513          	mv	a0,a4
    83003144:	000b0793          	mv	a5,s6
    83003148:	01575a63          	bge	a4,s5,8300315c <SOUND_ResampleMix_S16_Mono_Mono+0x10c>
    8300314c:	01875463          	bge	a4,s8,83003154 <SOUND_ResampleMix_S16_Mono_Mono+0x104>
    83003150:	ffff8537          	lui	a0,0xffff8
    83003154:	0105179b          	slliw	a5,a0,0x10
    83003158:	4107d79b          	sraiw	a5,a5,0x10
    8300315c:	00043503          	ld	a0,0(s0)
    83003160:	fef49f23          	sh	a5,-2(s1)
    83003164:	ffffd097          	auipc	ra,0xffffd
    83003168:	5ac080e7          	jalr	1452(ra) # 83000710 <resampler_remove_sample>
    8300316c:	fb49c2e3          	blt	s3,s4,83003110 <SOUND_ResampleMix_S16_Mono_Mono+0xc0>
    83003170:	000c8463          	beqz	s9,83003178 <SOUND_ResampleMix_S16_Mono_Mono+0x128>
    83003174:	012cb023          	sd	s2,0(s9)
    83003178:	06813083          	ld	ra,104(sp)
    8300317c:	06013403          	ld	s0,96(sp)
    83003180:	00098513          	mv	a0,s3
    83003184:	05813483          	ld	s1,88(sp)
    83003188:	05013903          	ld	s2,80(sp)
    8300318c:	04813983          	ld	s3,72(sp)
    83003190:	04013a03          	ld	s4,64(sp)
    83003194:	03813a83          	ld	s5,56(sp)
    83003198:	03013b03          	ld	s6,48(sp)
    8300319c:	02813b83          	ld	s7,40(sp)
    830031a0:	02013c03          	ld	s8,32(sp)
    830031a4:	01813c83          	ld	s9,24(sp)
    830031a8:	01013d03          	ld	s10,16(sp)
    830031ac:	00813d83          	ld	s11,8(sp)
    830031b0:	07010113          	addi	sp,sp,112
    830031b4:	00008067          	ret
    830031b8:	fb49dce3          	bge	s3,s4,83003170 <SOUND_ResampleMix_S16_Mono_Mono+0x120>
    830031bc:	f17040e3          	bgtz	s7,830030bc <SOUND_ResampleMix_S16_Mono_Mono+0x6c>
    830031c0:	fb1ff06f          	j	83003170 <SOUND_ResampleMix_S16_Mono_Mono+0x120>
    830031c4:	00000993          	li	s3,0
    830031c8:	fa9ff06f          	j	83003170 <SOUND_ResampleMix_S16_Mono_Mono+0x120>

00000000830031cc <SOUND_LoadVOCData>:
    830031cc:	01900793          	li	a5,25
    830031d0:	16b7f463          	bgeu	a5,a1,83003338 <SOUND_LoadVOCData+0x16c>
    830031d4:	fe010113          	addi	sp,sp,-32
    830031d8:	00813823          	sd	s0,16(sp)
    830031dc:	00913423          	sd	s1,8(sp)
    830031e0:	00060413          	mv	s0,a2
    830031e4:	00058493          	mv	s1,a1
    830031e8:	01400613          	li	a2,20
    830031ec:	00041597          	auipc	a1,0x41
    830031f0:	f9458593          	addi	a1,a1,-108 # 83044180 <_ZTV11CConvertopl+0x50>
    830031f4:	01213023          	sd	s2,0(sp)
    830031f8:	00113c23          	sd	ra,24(sp)
    830031fc:	00050913          	mv	s2,a0
    83003200:	00033097          	auipc	ra,0x33
    83003204:	3cc080e7          	jalr	972(ra) # 830365cc <memcmp>
    83003208:	10051a63          	bnez	a0,8300331c <SOUND_LoadVOCData+0x150>
    8300320c:	01495503          	lhu	a0,20(s2)
    83003210:	0005059b          	sext.w	a1,a0
    83003214:	1095f463          	bgeu	a1,s1,8300331c <SOUND_LoadVOCData+0x150>
    83003218:	40b485bb          	subw	a1,s1,a1
    8300321c:	00a90533          	add	a0,s2,a0
    83003220:	0e058e63          	beqz	a1,8300331c <SOUND_LoadVOCData+0x150>
    83003224:	00054303          	lbu	t1,0(a0) # ffffffffffff8000 <_end+0xffffffff7cf8d9e0>
    83003228:	0e030a63          	beqz	t1,8300331c <SOUND_LoadVOCData+0x150>
    8300322c:	00300793          	li	a5,3
    83003230:	0eb7f663          	bgeu	a5,a1,8300331c <SOUND_LoadVOCData+0x150>
    83003234:	00354783          	lbu	a5,3(a0)
    83003238:	00254703          	lbu	a4,2(a0)
    8300323c:	00154683          	lbu	a3,1(a0)
    83003240:	0107979b          	slliw	a5,a5,0x10
    83003244:	0087171b          	slliw	a4,a4,0x8
    83003248:	00e7e7b3          	or	a5,a5,a4
    8300324c:	00d7e7b3          	or	a5,a5,a3
    83003250:	0007879b          	sext.w	a5,a5
    83003254:	00478713          	addi	a4,a5,4
    83003258:	ffc00813          	li	a6,-4
    8300325c:	00100613          	li	a2,1
    83003260:	00300893          	li	a7,3
    83003264:	04e5f263          	bgeu	a1,a4,830032a8 <SOUND_LoadVOCData+0xdc>
    83003268:	0b40006f          	j	8300331c <SOUND_LoadVOCData+0x150>
    8300326c:	00e50533          	add	a0,a0,a4
    83003270:	0a058663          	beqz	a1,8300331c <SOUND_LoadVOCData+0x150>
    83003274:	00054303          	lbu	t1,0(a0)
    83003278:	0a030263          	beqz	t1,8300331c <SOUND_LoadVOCData+0x150>
    8300327c:	0ab8f063          	bgeu	a7,a1,8300331c <SOUND_LoadVOCData+0x150>
    83003280:	00254783          	lbu	a5,2(a0)
    83003284:	00354703          	lbu	a4,3(a0)
    83003288:	00154683          	lbu	a3,1(a0)
    8300328c:	0087979b          	slliw	a5,a5,0x8
    83003290:	0107171b          	slliw	a4,a4,0x10
    83003294:	00e7e7b3          	or	a5,a5,a4
    83003298:	00d7e7b3          	or	a5,a5,a3
    8300329c:	0007879b          	sext.w	a5,a5
    830032a0:	00478713          	addi	a4,a5,4
    830032a4:	06e5ec63          	bltu	a1,a4,8300331c <SOUND_LoadVOCData+0x150>
    830032a8:	40f806bb          	subw	a3,a6,a5
    830032ac:	00b685bb          	addw	a1,a3,a1
    830032b0:	fac31ee3          	bne	t1,a2,8300326c <SOUND_LoadVOCData+0xa0>
    830032b4:	00554703          	lbu	a4,5(a0)
    830032b8:	06071263          	bnez	a4,8300331c <SOUND_LoadVOCData+0x150>
    830032bc:	00800713          	li	a4,8
    830032c0:	00640523          	sb	t1,10(s0)
    830032c4:	00e41423          	sh	a4,8(s0)
    830032c8:	00454683          	lbu	a3,4(a0)
    830032cc:	10000713          	li	a4,256
    830032d0:	ffe7879b          	addiw	a5,a5,-2
    830032d4:	40d706bb          	subw	a3,a4,a3
    830032d8:	000f4737          	lui	a4,0xf4
    830032dc:	2407071b          	addiw	a4,a4,576 # f4240 <maskToShift.part.0-0x82f0bea8>
    830032e0:	02d7473b          	divw	a4,a4,a3
    830032e4:	00f42023          	sw	a5,0(s0)
    830032e8:	06400693          	li	a3,100
    830032ec:	006405a3          	sb	t1,11(s0)
    830032f0:	01813083          	ld	ra,24(sp)
    830032f4:	00813483          	ld	s1,8(sp)
    830032f8:	00013903          	ld	s2,0(sp)
    830032fc:	00650513          	addi	a0,a0,6
    83003300:	0637079b          	addiw	a5,a4,99
    83003304:	02d7c7bb          	divw	a5,a5,a3
    83003308:	02d787bb          	mulw	a5,a5,a3
    8300330c:	00f42223          	sw	a5,4(s0)
    83003310:	01013403          	ld	s0,16(sp)
    83003314:	02010113          	addi	sp,sp,32
    83003318:	00008067          	ret
    8300331c:	01813083          	ld	ra,24(sp)
    83003320:	01013403          	ld	s0,16(sp)
    83003324:	00813483          	ld	s1,8(sp)
    83003328:	00013903          	ld	s2,0(sp)
    8300332c:	00000513          	li	a0,0
    83003330:	02010113          	addi	sp,sp,32
    83003334:	00008067          	ret
    83003338:	00000513          	li	a0,0
    8300333c:	00008067          	ret

0000000083003340 <SOUND_Init>:
    83003340:	00066797          	auipc	a5,0x66
    83003344:	f0878793          	addi	a5,a5,-248 # 83069248 <gConfig>
    83003348:	3247a783          	lw	a5,804(a5)
    8300334c:	fd010113          	addi	sp,sp,-48
    83003350:	02113423          	sd	ra,40(sp)
    83003354:	02813023          	sd	s0,32(sp)
    83003358:	00913c23          	sd	s1,24(sp)
    8300335c:	01213823          	sd	s2,16(sp)
    83003360:	06078863          	beqz	a5,830033d0 <SOUND_Init+0x90>
    83003364:	fffff797          	auipc	a5,0xfffff
    83003368:	b9c78793          	addi	a5,a5,-1124 # 83001f00 <SOUND_LoadWAVEData>
    8300336c:	00f13023          	sd	a5,0(sp)
    83003370:	00000797          	auipc	a5,0x0
    83003374:	e5c78793          	addi	a5,a5,-420 # 830031cc <SOUND_LoadVOCData>
    83003378:	00f13423          	sd	a5,8(sp)
    8300337c:	00041497          	auipc	s1,0x41
    83003380:	e2c48493          	addi	s1,s1,-468 # 830441a8 <_ZTV11CConvertopl+0x78>
    83003384:	00041517          	auipc	a0,0x41
    83003388:	e1450513          	addi	a0,a0,-492 # 83044198 <_ZTV11CConvertopl+0x68>
    8300338c:	0002c097          	auipc	ra,0x2c
    83003390:	994080e7          	jalr	-1644(ra) # 8302ed20 <UTIL_OpenFile>
    83003394:	00050413          	mv	s0,a0
    83003398:	06051263          	bnez	a0,830033fc <SOUND_Init+0xbc>
    8300339c:	00048513          	mv	a0,s1
    830033a0:	0002c097          	auipc	ra,0x2c
    830033a4:	980080e7          	jalr	-1664(ra) # 8302ed20 <UTIL_OpenFile>
    830033a8:	00050413          	mv	s0,a0
    830033ac:	0e051663          	bnez	a0,83003498 <SOUND_Init+0x158>
    830033b0:	02813083          	ld	ra,40(sp)
    830033b4:	02013403          	ld	s0,32(sp)
    830033b8:	00000493          	li	s1,0
    830033bc:	00048513          	mv	a0,s1
    830033c0:	01013903          	ld	s2,16(sp)
    830033c4:	01813483          	ld	s1,24(sp)
    830033c8:	03010113          	addi	sp,sp,48
    830033cc:	00008067          	ret
    830033d0:	00000797          	auipc	a5,0x0
    830033d4:	dfc78793          	addi	a5,a5,-516 # 830031cc <SOUND_LoadVOCData>
    830033d8:	00f13023          	sd	a5,0(sp)
    830033dc:	fffff797          	auipc	a5,0xfffff
    830033e0:	b2478793          	addi	a5,a5,-1244 # 83001f00 <SOUND_LoadWAVEData>
    830033e4:	00f13423          	sd	a5,8(sp)
    830033e8:	00041497          	auipc	s1,0x41
    830033ec:	db048493          	addi	s1,s1,-592 # 83044198 <_ZTV11CConvertopl+0x68>
    830033f0:	00041517          	auipc	a0,0x41
    830033f4:	db850513          	addi	a0,a0,-584 # 830441a8 <_ZTV11CConvertopl+0x78>
    830033f8:	f95ff06f          	j	8300338c <SOUND_Init+0x4c>
    830033fc:	00000913          	li	s2,0
    83003400:	08000513          	li	a0,128
    83003404:	00032097          	auipc	ra,0x32
    83003408:	a38080e7          	jalr	-1480(ra) # 83034e3c <malloc>
    8300340c:	00050493          	mv	s1,a0
    83003410:	04800613          	li	a2,72
    83003414:	00000593          	li	a1,0
    83003418:	03050513          	addi	a0,a0,48
    8300341c:	00034097          	auipc	ra,0x34
    83003420:	89c080e7          	jalr	-1892(ra) # 83036cb8 <memset>
    83003424:	01010793          	addi	a5,sp,16
    83003428:	00391913          	slli	s2,s2,0x3
    8300342c:	01278933          	add	s2,a5,s2
    83003430:	ff093783          	ld	a5,-16(s2)
    83003434:	fffff717          	auipc	a4,0xfffff
    83003438:	d8870713          	addi	a4,a4,-632 # 830021bc <SOUND_Play>
    8300343c:	00e4b823          	sd	a4,16(s1)
    83003440:	fffff717          	auipc	a4,0xfffff
    83003444:	bec70713          	addi	a4,a4,-1044 # 8300202c <SOUND_FillBuffer>
    83003448:	00e4bc23          	sd	a4,24(s1)
    8300344c:	fffff717          	auipc	a4,0xfffff
    83003450:	cbc70713          	addi	a4,a4,-836 # 83002108 <SOUND_Shutdown>
    83003454:	00e4b423          	sd	a4,8(s1)
    83003458:	02f4b423          	sd	a5,40(s1)
    8300345c:	0284b023          	sd	s0,32(s1)
    83003460:	ffffd097          	auipc	ra,0xffffd
    83003464:	034080e7          	jalr	52(ra) # 83000494 <resampler_create>
    83003468:	02a4bc23          	sd	a0,56(s1)
    8300346c:	ffffd097          	auipc	ra,0xffffd
    83003470:	028080e7          	jalr	40(ra) # 83000494 <resampler_create>
    83003474:	02813083          	ld	ra,40(sp)
    83003478:	02013403          	ld	s0,32(sp)
    8300347c:	04a4b023          	sd	a0,64(s1)
    83003480:	0604ac23          	sw	zero,120(s1)
    83003484:	00048513          	mv	a0,s1
    83003488:	01013903          	ld	s2,16(sp)
    8300348c:	01813483          	ld	s1,24(sp)
    83003490:	03010113          	addi	sp,sp,48
    83003494:	00008067          	ret
    83003498:	00100913          	li	s2,1
    8300349c:	f65ff06f          	j	83003400 <SOUND_Init+0xc0>

00000000830034a0 <OGG_Init>:
    830034a0:	00000513          	li	a0,0
    830034a4:	00008067          	ret

00000000830034a8 <_ZN10CrixPlayerD1Ev>:
    830034a8:	ff010113          	addi	sp,sp,-16
    830034ac:	00813023          	sd	s0,0(sp)
    830034b0:	00113423          	sd	ra,8(sp)
    830034b4:	00050413          	mv	s0,a0
    830034b8:	01853503          	ld	a0,24(a0)
    830034bc:	00041797          	auipc	a5,0x41
    830034c0:	d0478793          	addi	a5,a5,-764 # 830441c0 <_ZTV10CrixPlayer+0x10>
    830034c4:	00f43023          	sd	a5,0(s0)
    830034c8:	00039097          	auipc	ra,0x39
    830034cc:	c4c080e7          	jalr	-948(ra) # 8303c114 <fclose>
    830034d0:	00040513          	mv	a0,s0
    830034d4:	00013403          	ld	s0,0(sp)
    830034d8:	00813083          	ld	ra,8(sp)
    830034dc:	01010113          	addi	sp,sp,16
    830034e0:	00006317          	auipc	t1,0x6
    830034e4:	ee830067          	jr	-280(t1) # 830093c8 <_ZN7CPlayerD1Ev>

00000000830034e8 <_ZN10CrixPlayerD0Ev>:
    830034e8:	ff010113          	addi	sp,sp,-16
    830034ec:	00113423          	sd	ra,8(sp)
    830034f0:	00813023          	sd	s0,0(sp)
    830034f4:	00050413          	mv	s0,a0
    830034f8:	01853503          	ld	a0,24(a0)
    830034fc:	00041797          	auipc	a5,0x41
    83003500:	cc478793          	addi	a5,a5,-828 # 830441c0 <_ZTV10CrixPlayer+0x10>
    83003504:	00f43023          	sd	a5,0(s0)
    83003508:	00039097          	auipc	ra,0x39
    8300350c:	c0c080e7          	jalr	-1012(ra) # 8303c114 <fclose>
    83003510:	00040513          	mv	a0,s0
    83003514:	00006097          	auipc	ra,0x6
    83003518:	eb4080e7          	jalr	-332(ra) # 830093c8 <_ZN7CPlayerD1Ev>
    8300351c:	00040513          	mv	a0,s0
    83003520:	00013403          	ld	s0,0(sp)
    83003524:	00813083          	ld	ra,8(sp)
    83003528:	000045b7          	lui	a1,0x4
    8300352c:	4e858593          	addi	a1,a1,1256 # 44e8 <maskToShift.part.0-0x82ffbc00>
    83003530:	01010113          	addi	sp,sp,16
    83003534:	00032317          	auipc	t1,0x32
    83003538:	8f830067          	jr	-1800(t1) # 83034e2c <_ZdlPvm>

000000008300353c <_ZN10CrixPlayer4loadERPKc>:
    8300353c:	fd010113          	addi	sp,sp,-48
    83003540:	02813023          	sd	s0,32(sp)
    83003544:	00050413          	mv	s0,a0
    83003548:	0005b503          	ld	a0,0(a1)
    8300354c:	00913c23          	sd	s1,24(sp)
    83003550:	00058493          	mv	s1,a1
    83003554:	00041597          	auipc	a1,0x41
    83003558:	d7c58593          	addi	a1,a1,-644 # 830442d0 <_ZN10CrixPlayer10ad_C0_offsE+0x18>
    8300355c:	02113423          	sd	ra,40(sp)
    83003560:	00039097          	auipc	ra,0x39
    83003564:	fb0080e7          	jalr	-80(ra) # 8303c510 <fopen>
    83003568:	00a43c23          	sd	a0,24(s0)
    8300356c:	0e050a63          	beqz	a0,83003660 <_ZN10CrixPlayer4loadERPKc+0x124>
    83003570:	0004b483          	ld	s1,0(s1)
    83003574:	00048513          	mv	a0,s1
    83003578:	00033097          	auipc	ra,0x33
    8300357c:	228080e7          	jalr	552(ra) # 830367a0 <strlen>
    83003580:	ffc50513          	addi	a0,a0,-4
    83003584:	00041597          	auipc	a1,0x41
    83003588:	d5458593          	addi	a1,a1,-684 # 830442d8 <_ZN10CrixPlayer10ad_C0_offsE+0x20>
    8300358c:	00a48533          	add	a0,s1,a0
    83003590:	00033097          	auipc	ra,0x33
    83003594:	fd0080e7          	jalr	-48(ra) # 83036560 <strcasecmp>
    83003598:	0e050063          	beqz	a0,83003678 <_ZN10CrixPlayer4loadERPKc+0x13c>
    8300359c:	01843683          	ld	a3,24(s0)
    830035a0:	00100613          	li	a2,1
    830035a4:	00200593          	li	a1,2
    830035a8:	00c10513          	addi	a0,sp,12
    830035ac:	00034097          	auipc	ra,0x34
    830035b0:	d84080e7          	jalr	-636(ra) # 83037330 <fread>
    830035b4:	00c15703          	lhu	a4,12(sp)
    830035b8:	000057b7          	lui	a5,0x5
    830035bc:	5aa78793          	addi	a5,a5,1450 # 55aa <maskToShift.part.0-0x82ffab3e>
    830035c0:	06f71e63          	bne	a4,a5,8300363c <_ZN10CrixPlayer4loadERPKc+0x100>
    830035c4:	01042783          	lw	a5,16(s0)
    830035c8:	01843503          	ld	a0,24(s0)
    830035cc:	0e078c63          	beqz	a5,830036c4 <_ZN10CrixPlayer4loadERPKc+0x188>
    830035d0:	00000613          	li	a2,0
    830035d4:	00000593          	li	a1,0
    830035d8:	00037097          	auipc	ra,0x37
    830035dc:	5e4080e7          	jalr	1508(ra) # 8303abbc <fseek>
    830035e0:	01843683          	ld	a3,24(s0)
    830035e4:	00100613          	li	a2,1
    830035e8:	00400593          	li	a1,4
    830035ec:	02040513          	addi	a0,s0,32
    830035f0:	00034097          	auipc	ra,0x34
    830035f4:	d40080e7          	jalr	-704(ra) # 83037330 <fread>
    830035f8:	02042703          	lw	a4,32(s0)
    830035fc:	41f7579b          	sraiw	a5,a4,0x1f
    83003600:	01e7d79b          	srliw	a5,a5,0x1e
    83003604:	00e787bb          	addw	a5,a5,a4
    83003608:	4027d79b          	sraiw	a5,a5,0x2
    8300360c:	02f42023          	sw	a5,32(s0)
    83003610:	00043783          	ld	a5,0(s0)
    83003614:	00040513          	mv	a0,s0
    83003618:	00000593          	li	a1,0
    8300361c:	0207b783          	ld	a5,32(a5)
    83003620:	000780e7          	jalr	a5
    83003624:	02813083          	ld	ra,40(sp)
    83003628:	02013403          	ld	s0,32(sp)
    8300362c:	01813483          	ld	s1,24(sp)
    83003630:	00100513          	li	a0,1
    83003634:	03010113          	addi	sp,sp,48
    83003638:	00008067          	ret
    8300363c:	01843503          	ld	a0,24(s0)
    83003640:	00039097          	auipc	ra,0x39
    83003644:	ad4080e7          	jalr	-1324(ra) # 8303c114 <fclose>
    83003648:	02813083          	ld	ra,40(sp)
    8300364c:	02013403          	ld	s0,32(sp)
    83003650:	01813483          	ld	s1,24(sp)
    83003654:	00000513          	li	a0,0
    83003658:	03010113          	addi	sp,sp,48
    8300365c:	00008067          	ret
    83003660:	02813083          	ld	ra,40(sp)
    83003664:	02013403          	ld	s0,32(sp)
    83003668:	01813483          	ld	s1,24(sp)
    8300366c:	00000513          	li	a0,0
    83003670:	03010113          	addi	sp,sp,48
    83003674:	00008067          	ret
    83003678:	01843503          	ld	a0,24(s0)
    8300367c:	00100793          	li	a5,1
    83003680:	00f42823          	sw	a5,16(s0)
    83003684:	00000613          	li	a2,0
    83003688:	00000593          	li	a1,0
    8300368c:	00037097          	auipc	ra,0x37
    83003690:	530080e7          	jalr	1328(ra) # 8303abbc <fseek>
    83003694:	01843683          	ld	a3,24(s0)
    83003698:	00100613          	li	a2,1
    8300369c:	00400593          	li	a1,4
    830036a0:	00c10513          	addi	a0,sp,12
    830036a4:	00034097          	auipc	ra,0x34
    830036a8:	c8c080e7          	jalr	-884(ra) # 83037330 <fread>
    830036ac:	00c12583          	lw	a1,12(sp)
    830036b0:	01843503          	ld	a0,24(s0)
    830036b4:	00000613          	li	a2,0
    830036b8:	00037097          	auipc	ra,0x37
    830036bc:	504080e7          	jalr	1284(ra) # 8303abbc <fseek>
    830036c0:	eddff06f          	j	8300359c <_ZN10CrixPlayer4loadERPKc+0x60>
    830036c4:	00200613          	li	a2,2
    830036c8:	00000593          	li	a1,0
    830036cc:	00037097          	auipc	ra,0x37
    830036d0:	4f0080e7          	jalr	1264(ra) # 8303abbc <fseek>
    830036d4:	01843503          	ld	a0,24(s0)
    830036d8:	000044b7          	lui	s1,0x4
    830036dc:	009404b3          	add	s1,s0,s1
    830036e0:	00036097          	auipc	ra,0x36
    830036e4:	ea8080e7          	jalr	-344(ra) # 83039588 <ftell>
    830036e8:	4ca4a223          	sw	a0,1220(s1) # 44c4 <maskToShift.part.0-0x82ffbc24>
    830036ec:	01843503          	ld	a0,24(s0)
    830036f0:	00000613          	li	a2,0
    830036f4:	00000593          	li	a1,0
    830036f8:	00037097          	auipc	ra,0x37
    830036fc:	4c4080e7          	jalr	1220(ra) # 8303abbc <fseek>
    83003700:	01843683          	ld	a3,24(s0)
    83003704:	4c44e583          	lwu	a1,1220(s1)
    83003708:	00100613          	li	a2,1
    8300370c:	02440513          	addi	a0,s0,36
    83003710:	00034097          	auipc	ra,0x34
    83003714:	c20080e7          	jalr	-992(ra) # 83037330 <fread>
    83003718:	00100793          	li	a5,1
    8300371c:	02f42023          	sw	a5,32(s0)
    83003720:	ef1ff06f          	j	83003610 <_ZN10CrixPlayer4loadERPKc+0xd4>

0000000083003724 <_ZN10CrixPlayer6updateEv>:
    83003724:	f8010113          	addi	sp,sp,-128
    83003728:	000048b7          	lui	a7,0x4
    8300372c:	05613023          	sd	s6,64(sp)
    83003730:	06113c23          	sd	ra,120(sp)
    83003734:	06813823          	sd	s0,112(sp)
    83003738:	06913423          	sd	s1,104(sp)
    8300373c:	07213023          	sd	s2,96(sp)
    83003740:	05313c23          	sd	s3,88(sp)
    83003744:	05413823          	sd	s4,80(sp)
    83003748:	05513423          	sd	s5,72(sp)
    8300374c:	03713c23          	sd	s7,56(sp)
    83003750:	03813823          	sd	s8,48(sp)
    83003754:	03913423          	sd	s9,40(sp)
    83003758:	03a13023          	sd	s10,32(sp)
    8300375c:	01b13c23          	sd	s11,24(sp)
    83003760:	011508b3          	add	a7,a0,a7
    83003764:	4e08a703          	lw	a4,1248(a7) # 44e0 <maskToShift.part.0-0x82ffbc08>
    83003768:	00050b13          	mv	s6,a0
    8300376c:	00e05463          	blez	a4,83003774 <_ZN10CrixPlayer6updateEv+0x50>
    83003770:	3400106f          	j	83004ab0 <_ZN10CrixPlayer6updateEv+0x138c>
    83003774:	4d58c783          	lbu	a5,1237(a7)
    83003778:	1c078e63          	beqz	a5,83003954 <_ZN10CrixPlayer6updateEv+0x230>
    8300377c:	4d68c703          	lbu	a4,1238(a7)
    83003780:	00100793          	li	a5,1
    83003784:	1cf70863          	beq	a4,a5,83003954 <_ZN10CrixPlayer6updateEv+0x230>
    83003788:	000047b7          	lui	a5,0x4
    8300378c:	37678793          	addi	a5,a5,886 # 4376 <maskToShift.part.0-0x82ffbd72>
    83003790:	000044b7          	lui	s1,0x4
    83003794:	00088d13          	mv	s10,a7
    83003798:	00f50c33          	add	s8,a0,a5
    8300379c:	4c0d1c23          	sh	zero,1240(s10)
    830037a0:	0005dd97          	auipc	s11,0x5d
    830037a4:	860d8d93          	addi	s11,s11,-1952 # 83060000 <_ZN10CrixPlayer8for40regE>
    830037a8:	4c8d2683          	lw	a3,1224(s10)
    830037ac:	08000713          	li	a4,128
    830037b0:	02069793          	slli	a5,a3,0x20
    830037b4:	0207d793          	srli	a5,a5,0x20
    830037b8:	00fb07b3          	add	a5,s6,a5
    830037bc:	0247c403          	lbu	s0,36(a5)
    830037c0:	56e40ce3          	beq	s0,a4,83004538 <_ZN10CrixPlayer6updateEv+0xe14>
    830037c4:	4c4d2783          	lw	a5,1220(s10)
    830037c8:	fff7879b          	addiw	a5,a5,-1
    830037cc:	56f6f6e3          	bgeu	a3,a5,83004538 <_ZN10CrixPlayer6updateEv+0xe14>
    830037d0:	fff6879b          	addiw	a5,a3,-1
    830037d4:	02079793          	slli	a5,a5,0x20
    830037d8:	0207d793          	srli	a5,a5,0x20
    830037dc:	00fb07b3          	add	a5,s6,a5
    830037e0:	0247c603          	lbu	a2,36(a5)
    830037e4:	0026869b          	addiw	a3,a3,2
    830037e8:	4cdd2423          	sw	a3,1224(s10)
    830037ec:	4ccd0d23          	sb	a2,1242(s10)
    830037f0:	0f047793          	andi	a5,s0,240
    830037f4:	0a000713          	li	a4,160
    830037f8:	62e78c63          	beq	a5,a4,83003e30 <_ZN10CrixPlayer6updateEv+0x70c>
    830037fc:	22f77c63          	bgeu	a4,a5,83003a34 <_ZN10CrixPlayer6updateEv+0x310>
    83003800:	0b000713          	li	a4,176
    83003804:	7ae78663          	beq	a5,a4,83003fb0 <_ZN10CrixPlayer6updateEv+0x88c>
    83003808:	0c000713          	li	a4,192
    8300380c:	78e79463          	bne	a5,a4,83003f94 <_ZN10CrixPlayer6updateEv+0x870>
    83003810:	4d4d4783          	lbu	a5,1236(s10)
    83003814:	00f47413          	andi	s0,s0,15
    83003818:	03041993          	slli	s3,s0,0x30
    8300381c:	0309d993          	srli	s3,s3,0x30
    83003820:	00040b9b          	sext.w	s7,s0
    83003824:	008b3503          	ld	a0,8(s6)
    83003828:	00078663          	beqz	a5,83003834 <_ZN10CrixPlayer6updateEv+0x110>
    8300382c:	00500793          	li	a5,5
    83003830:	6887e6e3          	bltu	a5,s0,830046bc <_ZN10CrixPlayer6updateEv+0xf98>
    83003834:	00141a13          	slli	s4,s0,0x1
    83003838:	014b06b3          	add	a3,s6,s4
    8300383c:	017b0ab3          	add	s5,s6,s7
    83003840:	01548733          	add	a4,s1,s5
    83003844:	009687b3          	add	a5,a3,s1
    83003848:	27c7d583          	lhu	a1,636(a5)
    8300384c:	29274783          	lbu	a5,658(a4)
    83003850:	2a070223          	sb	zero,676(a4)
    83003854:	05f00613          	li	a2,95
    83003858:	00b787bb          	addw	a5,a5,a1
    8300385c:	03079793          	slli	a5,a5,0x30
    83003860:	0307d793          	srli	a5,a5,0x30
    83003864:	0107971b          	slliw	a4,a5,0x10
    83003868:	4107571b          	sraiw	a4,a4,0x10
    8300386c:	00e65463          	bge	a2,a4,83003874 <_ZN10CrixPlayer6updateEv+0x150>
    83003870:	05f00793          	li	a5,95
    83003874:	0107979b          	slliw	a5,a5,0x10
    83003878:	4107d79b          	sraiw	a5,a5,0x10
    8300387c:	0007871b          	sext.w	a4,a5
    83003880:	fff74713          	not	a4,a4
    83003884:	43f75713          	srai	a4,a4,0x3f
    83003888:	00e7f7b3          	and	a5,a5,a4
    8300388c:	0007891b          	sext.w	s2,a5
    83003890:	012b0933          	add	s2,s6,s2
    83003894:	009687b3          	add	a5,a3,s1
    83003898:	01248933          	add	s2,s1,s2
    8300389c:	3ae7d783          	lhu	a5,942(a5)
    830038a0:	31694683          	lbu	a3,790(s2)
    830038a4:	00053703          	ld	a4,0(a0)
    830038a8:	0017d79b          	srliw	a5,a5,0x1
    830038ac:	00d787bb          	addw	a5,a5,a3
    830038b0:	000026b7          	lui	a3,0x2
    830038b4:	01068693          	addi	a3,a3,16 # 2010 <maskToShift.part.0-0x82ffe0d8>
    830038b8:	00d787b3          	add	a5,a5,a3
    830038bc:	00179793          	slli	a5,a5,0x1
    830038c0:	00fb07b3          	add	a5,s6,a5
    830038c4:	0047d783          	lhu	a5,4(a5)
    830038c8:	01873683          	ld	a3,24(a4)
    830038cc:	0a098713          	addi	a4,s3,160
    830038d0:	00070593          	mv	a1,a4
    830038d4:	0ff7f613          	zext.b	a2,a5
    830038d8:	00e13023          	sd	a4,0(sp)
    830038dc:	00f13423          	sd	a5,8(sp)
    830038e0:	000680e7          	jalr	a3
    830038e4:	008b3503          	ld	a0,8(s6)
    830038e8:	00813783          	ld	a5,8(sp)
    830038ec:	2b694603          	lbu	a2,694(s2)
    830038f0:	00053683          	ld	a3,0(a0)
    830038f4:	4087d79b          	sraiw	a5,a5,0x8
    830038f8:	0037f793          	andi	a5,a5,3
    830038fc:	0026161b          	slliw	a2,a2,0x2
    83003900:	0186b683          	ld	a3,24(a3)
    83003904:	00f6063b          	addw	a2,a2,a5
    83003908:	0b098913          	addi	s2,s3,176
    8300390c:	0ff67613          	zext.b	a2,a2
    83003910:	00090593          	mv	a1,s2
    83003914:	000680e7          	jalr	a3
    83003918:	4dad4783          	lbu	a5,1242(s10)
    8300391c:	00013703          	ld	a4,0(sp)
    83003920:	08079263          	bnez	a5,830039a4 <_ZN10CrixPlayer6updateEv+0x280>
    83003924:	4d8d5783          	lhu	a5,1240(s10)
    83003928:	e80780e3          	beqz	a5,830037a8 <_ZN10CrixPlayer6updateEv+0x84>
    8300392c:	4e0d2703          	lw	a4,1248(s10)
    83003930:	00f7073b          	addw	a4,a4,a5
    83003934:	4eed2023          	sw	a4,1248(s10)
    83003938:	00e05463          	blez	a4,83003940 <_ZN10CrixPlayer6updateEv+0x21c>
    8300393c:	1740106f          	j	83004ab0 <_ZN10CrixPlayer6updateEv+0x138c>
    83003940:	4d5d4783          	lbu	a5,1237(s10)
    83003944:	00078863          	beqz	a5,83003954 <_ZN10CrixPlayer6updateEv+0x230>
    83003948:	4d6d4703          	lbu	a4,1238(s10)
    8300394c:	00100793          	li	a5,1
    83003950:	e4f716e3          	bne	a4,a5,8300379c <_ZN10CrixPlayer6updateEv+0x78>
    83003954:	000047b7          	lui	a5,0x4
    83003958:	00fb0833          	add	a6,s6,a5
    8300395c:	00100793          	li	a5,1
    83003960:	4ef82223          	sw	a5,1252(a6)
    83003964:	00000513          	li	a0,0
    83003968:	07813083          	ld	ra,120(sp)
    8300396c:	07013403          	ld	s0,112(sp)
    83003970:	06813483          	ld	s1,104(sp)
    83003974:	06013903          	ld	s2,96(sp)
    83003978:	05813983          	ld	s3,88(sp)
    8300397c:	05013a03          	ld	s4,80(sp)
    83003980:	04813a83          	ld	s5,72(sp)
    83003984:	04013b03          	ld	s6,64(sp)
    83003988:	03813b83          	ld	s7,56(sp)
    8300398c:	03013c03          	ld	s8,48(sp)
    83003990:	02813c83          	ld	s9,40(sp)
    83003994:	02013d03          	ld	s10,32(sp)
    83003998:	01813d83          	ld	s11,24(sp)
    8300399c:	08010113          	addi	sp,sp,128
    830039a0:	00008067          	ret
    830039a4:	00c00613          	li	a2,12
    830039a8:	00078693          	mv	a3,a5
    830039ac:	00c7f463          	bgeu	a5,a2,830039b4 <_ZN10CrixPlayer6updateEv+0x290>
    830039b0:	00c00693          	li	a3,12
    830039b4:	03069793          	slli	a5,a3,0x30
    830039b8:	0307d793          	srli	a5,a5,0x30
    830039bc:	ff47869b          	addiw	a3,a5,-12 # 3ff4 <maskToShift.part.0-0x82ffc0f4>
    830039c0:	03069693          	slli	a3,a3,0x30
    830039c4:	00500613          	li	a2,5
    830039c8:	0306d693          	srli	a3,a3,0x30
    830039cc:	008b3503          	ld	a0,8(s6)
    830039d0:	568672e3          	bgeu	a2,s0,83004734 <_ZN10CrixPlayer6updateEv+0x1010>
    830039d4:	4d4d4703          	lbu	a4,1236(s10)
    830039d8:	540706e3          	beqz	a4,83004724 <_ZN10CrixPlayer6updateEv+0x1000>
    830039dc:	00600713          	li	a4,6
    830039e0:	00e41463          	bne	s0,a4,830039e8 <_ZN10CrixPlayer6updateEv+0x2c4>
    830039e4:	11c0106f          	j	83004b00 <_ZN10CrixPlayer6updateEv+0x13dc>
    830039e8:	00800713          	li	a4,8
    830039ec:	00e99463          	bne	s3,a4,830039f4 <_ZN10CrixPlayer6updateEv+0x2d0>
    830039f0:	1fc0106f          	j	83004bec <_ZN10CrixPlayer6updateEv+0x14c8>
    830039f4:	00040797          	auipc	a5,0x40
    830039f8:	7f478793          	addi	a5,a5,2036 # 830441e8 <_ZN10CrixPlayer11bd_reg_dataE>
    830039fc:	01778bb3          	add	s7,a5,s7
    83003a00:	4ded4703          	lbu	a4,1246(s10)
    83003a04:	000bc783          	lbu	a5,0(s7) # ffffffffffff8000 <_end+0xffffffff7cf8d9e0>
    83003a08:	02000613          	li	a2,32
    83003a0c:	00e7e7b3          	or	a5,a5,a4
    83003a10:	0ff7f793          	zext.b	a5,a5
    83003a14:	4cfd0f23          	sb	a5,1246(s10)
    83003a18:	00053703          	ld	a4,0(a0)
    83003a1c:	00f66633          	or	a2,a2,a5
    83003a20:	0bd00593          	li	a1,189
    83003a24:	01873783          	ld	a5,24(a4)
    83003a28:	000780e7          	jalr	a5
    83003a2c:	4d8d5783          	lhu	a5,1240(s10)
    83003a30:	ef9ff06f          	j	83003928 <_ZN10CrixPlayer6updateEv+0x204>
    83003a34:	09000713          	li	a4,144
    83003a38:	54e79e63          	bne	a5,a4,83003f94 <_ZN10CrixPlayer6updateEv+0x870>
    83003a3c:	4d2d5703          	lhu	a4,1234(s10)
    83003a40:	00661793          	slli	a5,a2,0x6
    83003a44:	000046b7          	lui	a3,0x4
    83003a48:	02470713          	addi	a4,a4,36
    83003a4c:	00f70733          	add	a4,a4,a5
    83003a50:	37668693          	addi	a3,a3,886 # 4376 <maskToShift.part.0-0x82ffbd72>
    83003a54:	00eb0733          	add	a4,s6,a4
    83003a58:	00db06b3          	add	a3,s6,a3
    83003a5c:	03870593          	addi	a1,a4,56
    83003a60:	00174783          	lbu	a5,1(a4)
    83003a64:	00074603          	lbu	a2,0(a4)
    83003a68:	00270713          	addi	a4,a4,2
    83003a6c:	0087979b          	slliw	a5,a5,0x8
    83003a70:	00c787bb          	addw	a5,a5,a2
    83003a74:	00f69023          	sh	a5,0(a3)
    83003a78:	00268693          	addi	a3,a3,2
    83003a7c:	fee592e3          	bne	a1,a4,83003a60 <_ZN10CrixPlayer6updateEv+0x33c>
    83003a80:	4d4d4303          	lbu	t1,1236(s10)
    83003a84:	00f47413          	andi	s0,s0,15
    83003a88:	3aad5583          	lhu	a1,938(s10)
    83003a8c:	60030063          	beqz	t1,8300408c <_ZN10CrixPlayer6updateEv+0x968>
    83003a90:	00500793          	li	a5,5
    83003a94:	5e87fc63          	bgeu	a5,s0,8300408c <_ZN10CrixPlayer6updateEv+0x968>
    83003a98:	00600793          	li	a5,6
    83003a9c:	56f41ee3          	bne	s0,a5,83004818 <_ZN10CrixPlayer6updateEv+0x10f4>
    83003aa0:	46c48713          	addi	a4,s1,1132 # 446c <maskToShift.part.0-0x82ffbc7c>
    83003aa4:	000c0793          	mv	a5,s8
    83003aa8:	00eb0733          	add	a4,s6,a4
    83003aac:	01ac0613          	addi	a2,s8,26 # ffffffffffff801a <_end+0xffffffff7cf8d9fa>
    83003ab0:	0007d683          	lhu	a3,0(a5)
    83003ab4:	00170713          	addi	a4,a4,1
    83003ab8:	00278793          	addi	a5,a5,2
    83003abc:	fed70fa3          	sb	a3,-1(a4)
    83003ac0:	fef618e3          	bne	a2,a5,83003ab0 <_ZN10CrixPlayer6updateEv+0x38c>
    83003ac4:	0035f593          	andi	a1,a1,3
    83003ac8:	46bd0ca3          	sb	a1,1145(s10)
    83003acc:	008b3503          	ld	a0,8(s6)
    83003ad0:	4ded4603          	lbu	a2,1246(s10)
    83003ad4:	0bd00593          	li	a1,189
    83003ad8:	00053783          	ld	a5,0(a0)
    83003adc:	02066613          	ori	a2,a2,32
    83003ae0:	0ff67613          	zext.b	a2,a2
    83003ae4:	0187b783          	ld	a5,24(a5)
    83003ae8:	000780e7          	jalr	a5
    83003aec:	008b3503          	ld	a0,8(s6)
    83003af0:	00000613          	li	a2,0
    83003af4:	00800593          	li	a1,8
    83003af8:	00053783          	ld	a5,0(a0)
    83003afc:	0187b783          	ld	a5,24(a5)
    83003b00:	000780e7          	jalr	a5
    83003b04:	474d4703          	lbu	a4,1140(s10)
    83003b08:	0005c797          	auipc	a5,0x5c
    83003b0c:	5047c783          	lbu	a5,1284(a5) # 8306000c <_ZN10CrixPlayer8for40regE+0xc>
    83003b10:	0017979b          	slliw	a5,a5,0x1
    83003b14:	fff74713          	not	a4,a4
    83003b18:	03f77713          	andi	a4,a4,63
    83003b1c:	02e787bb          	mulw	a5,a5,a4
    83003b20:	008b3503          	ld	a0,8(s6)
    83003b24:	46cd4603          	lbu	a2,1132(s10)
    83003b28:	05000593          	li	a1,80
    83003b2c:	00053703          	ld	a4,0(a0)
    83003b30:	0066161b          	slliw	a2,a2,0x6
    83003b34:	01873683          	ld	a3,24(a4)
    83003b38:	0fe00713          	li	a4,254
    83003b3c:	03079793          	slli	a5,a5,0x30
    83003b40:	0307d793          	srli	a5,a5,0x30
    83003b44:	07f7879b          	addiw	a5,a5,127
    83003b48:	0107979b          	slliw	a5,a5,0x10
    83003b4c:	0107d79b          	srliw	a5,a5,0x10
    83003b50:	02e7d7bb          	divuw	a5,a5,a4
    83003b54:	03f00713          	li	a4,63
    83003b58:	40f707bb          	subw	a5,a4,a5
    83003b5c:	00f66633          	or	a2,a2,a5
    83003b60:	0ff67613          	zext.b	a2,a2
    83003b64:	000680e7          	jalr	a3
    83003b68:	008b3503          	ld	a0,8(s6)
    83003b6c:	46ed4783          	lbu	a5,1134(s10)
    83003b70:	478d4603          	lbu	a2,1144(s10)
    83003b74:	00053703          	ld	a4,0(a0)
    83003b78:	00179793          	slli	a5,a5,0x1
    83003b7c:	00163613          	seqz	a2,a2
    83003b80:	01873703          	ld	a4,24(a4)
    83003b84:	00f66633          	or	a2,a2,a5
    83003b88:	0ff67613          	zext.b	a2,a2
    83003b8c:	0c600593          	li	a1,198
    83003b90:	000700e7          	jalr	a4
    83003b94:	008b3503          	ld	a0,8(s6)
    83003b98:	46fd4783          	lbu	a5,1135(s10)
    83003b9c:	472d4603          	lbu	a2,1138(s10)
    83003ba0:	00053703          	ld	a4,0(a0)
    83003ba4:	0047979b          	slliw	a5,a5,0x4
    83003ba8:	00f67613          	andi	a2,a2,15
    83003bac:	01873703          	ld	a4,24(a4)
    83003bb0:	00f66633          	or	a2,a2,a5
    83003bb4:	0ff67613          	zext.b	a2,a2
    83003bb8:	07000593          	li	a1,112
    83003bbc:	000700e7          	jalr	a4
    83003bc0:	008b3503          	ld	a0,8(s6)
    83003bc4:	470d4783          	lbu	a5,1136(s10)
    83003bc8:	473d4603          	lbu	a2,1139(s10)
    83003bcc:	00053703          	ld	a4,0(a0)
    83003bd0:	0047979b          	slliw	a5,a5,0x4
    83003bd4:	00f67613          	andi	a2,a2,15
    83003bd8:	01873703          	ld	a4,24(a4)
    83003bdc:	00f66633          	or	a2,a2,a5
    83003be0:	0ff67613          	zext.b	a2,a2
    83003be4:	09000593          	li	a1,144
    83003be8:	000700e7          	jalr	a4
    83003bec:	008b3503          	ld	a0,8(s6)
    83003bf0:	475d4583          	lbu	a1,1141(s10)
    83003bf4:	476d4683          	lbu	a3,1142(s10)
    83003bf8:	46dd4783          	lbu	a5,1133(s10)
    83003bfc:	471d4703          	lbu	a4,1137(s10)
    83003c00:	477d4603          	lbu	a2,1143(s10)
    83003c04:	00053303          	ld	t1,0(a0)
    83003c08:	00b035b3          	snez	a1,a1
    83003c0c:	00759593          	slli	a1,a1,0x7
    83003c10:	00d036b3          	snez	a3,a3
    83003c14:	00f7f793          	andi	a5,a5,15
    83003c18:	00669693          	slli	a3,a3,0x6
    83003c1c:	00b787bb          	addw	a5,a5,a1
    83003c20:	00e03733          	snez	a4,a4
    83003c24:	00571713          	slli	a4,a4,0x5
    83003c28:	00d787bb          	addw	a5,a5,a3
    83003c2c:	00c03633          	snez	a2,a2
    83003c30:	01833683          	ld	a3,24(t1)
    83003c34:	00e787bb          	addw	a5,a5,a4
    83003c38:	00461613          	slli	a2,a2,0x4
    83003c3c:	00c7863b          	addw	a2,a5,a2
    83003c40:	03000593          	li	a1,48
    83003c44:	000680e7          	jalr	a3
    83003c48:	4dcd5783          	lhu	a5,1244(s10)
    83003c4c:	00000613          	li	a2,0
    83003c50:	00078663          	beqz	a5,83003c5c <_ZN10CrixPlayer6updateEv+0x538>
    83003c54:	479d4603          	lbu	a2,1145(s10)
    83003c58:	00367613          	andi	a2,a2,3
    83003c5c:	008b3503          	ld	a0,8(s6)
    83003c60:	0f000593          	li	a1,240
    83003c64:	00053783          	ld	a5,0(a0)
    83003c68:	0187b783          	ld	a5,24(a5)
    83003c6c:	000780e7          	jalr	a5
    83003c70:	39048793          	addi	a5,s1,912
    83003c74:	3acd5583          	lhu	a1,940(s10)
    83003c78:	00fb07b3          	add	a5,s6,a5
    83003c7c:	49648713          	addi	a4,s1,1174
    83003c80:	00eb0733          	add	a4,s6,a4
    83003c84:	01a78613          	addi	a2,a5,26
    83003c88:	0007d683          	lhu	a3,0(a5)
    83003c8c:	00170713          	addi	a4,a4,1
    83003c90:	00278793          	addi	a5,a5,2
    83003c94:	fed70fa3          	sb	a3,-1(a4)
    83003c98:	fef618e3          	bne	a2,a5,83003c88 <_ZN10CrixPlayer6updateEv+0x564>
    83003c9c:	0035f793          	andi	a5,a1,3
    83003ca0:	4afd01a3          	sb	a5,1187(s10)
    83003ca4:	008b3503          	ld	a0,8(s6)
    83003ca8:	4d4d4783          	lbu	a5,1236(s10)
    83003cac:	4ded4603          	lbu	a2,1246(s10)
    83003cb0:	00053703          	ld	a4,0(a0)
    83003cb4:	00f037b3          	snez	a5,a5
    83003cb8:	00579793          	slli	a5,a5,0x5
    83003cbc:	01873703          	ld	a4,24(a4)
    83003cc0:	00c7e633          	or	a2,a5,a2
    83003cc4:	0bd00593          	li	a1,189
    83003cc8:	000700e7          	jalr	a4
    83003ccc:	008b3503          	ld	a0,8(s6)
    83003cd0:	00000613          	li	a2,0
    83003cd4:	00800593          	li	a1,8
    83003cd8:	00053783          	ld	a5,0(a0)
    83003cdc:	0187b783          	ld	a5,24(a5)
    83003ce0:	000780e7          	jalr	a5
    83003ce4:	49ed4703          	lbu	a4,1182(s10)
    83003ce8:	0005c797          	auipc	a5,0x5c
    83003cec:	3277c783          	lbu	a5,807(a5) # 8306000f <_ZN10CrixPlayer8for40regE+0xf>
    83003cf0:	0017979b          	slliw	a5,a5,0x1
    83003cf4:	fff74713          	not	a4,a4
    83003cf8:	03f77713          	andi	a4,a4,63
    83003cfc:	02e787bb          	mulw	a5,a5,a4
    83003d00:	008b3503          	ld	a0,8(s6)
    83003d04:	496d4603          	lbu	a2,1174(s10)
    83003d08:	05300593          	li	a1,83
    83003d0c:	00053703          	ld	a4,0(a0)
    83003d10:	0066161b          	slliw	a2,a2,0x6
    83003d14:	01873683          	ld	a3,24(a4)
    83003d18:	0fe00713          	li	a4,254
    83003d1c:	03079793          	slli	a5,a5,0x30
    83003d20:	0307d793          	srli	a5,a5,0x30
    83003d24:	07f7879b          	addiw	a5,a5,127
    83003d28:	0107979b          	slliw	a5,a5,0x10
    83003d2c:	0107d79b          	srliw	a5,a5,0x10
    83003d30:	02e7d7bb          	divuw	a5,a5,a4
    83003d34:	03f00713          	li	a4,63
    83003d38:	40f707bb          	subw	a5,a4,a5
    83003d3c:	00f66633          	or	a2,a2,a5
    83003d40:	0ff67613          	zext.b	a2,a2
    83003d44:	000680e7          	jalr	a3
    83003d48:	008b3503          	ld	a0,8(s6)
    83003d4c:	499d4783          	lbu	a5,1177(s10)
    83003d50:	49cd4603          	lbu	a2,1180(s10)
    83003d54:	00053703          	ld	a4,0(a0)
    83003d58:	0047979b          	slliw	a5,a5,0x4
    83003d5c:	00f67613          	andi	a2,a2,15
    83003d60:	01873703          	ld	a4,24(a4)
    83003d64:	00f66633          	or	a2,a2,a5
    83003d68:	0ff67613          	zext.b	a2,a2
    83003d6c:	07300593          	li	a1,115
    83003d70:	000700e7          	jalr	a4
    83003d74:	008b3503          	ld	a0,8(s6)
    83003d78:	49ad4783          	lbu	a5,1178(s10)
    83003d7c:	49dd4603          	lbu	a2,1181(s10)
    83003d80:	00053703          	ld	a4,0(a0)
    83003d84:	0047979b          	slliw	a5,a5,0x4
    83003d88:	00f67613          	andi	a2,a2,15
    83003d8c:	01873703          	ld	a4,24(a4)
    83003d90:	00f66633          	or	a2,a2,a5
    83003d94:	0ff67613          	zext.b	a2,a2
    83003d98:	09300593          	li	a1,147
    83003d9c:	000700e7          	jalr	a4
    83003da0:	008b3503          	ld	a0,8(s6)
    83003da4:	49fd4583          	lbu	a1,1183(s10)
    83003da8:	4a0d4683          	lbu	a3,1184(s10)
    83003dac:	497d4783          	lbu	a5,1175(s10)
    83003db0:	49bd4703          	lbu	a4,1179(s10)
    83003db4:	4a1d4603          	lbu	a2,1185(s10)
    83003db8:	00053303          	ld	t1,0(a0)
    83003dbc:	00b035b3          	snez	a1,a1
    83003dc0:	00759593          	slli	a1,a1,0x7
    83003dc4:	00d036b3          	snez	a3,a3
    83003dc8:	00f7f793          	andi	a5,a5,15
    83003dcc:	00669693          	slli	a3,a3,0x6
    83003dd0:	00b787bb          	addw	a5,a5,a1
    83003dd4:	00e03733          	snez	a4,a4
    83003dd8:	00571713          	slli	a4,a4,0x5
    83003ddc:	00d787bb          	addw	a5,a5,a3
    83003de0:	00c03633          	snez	a2,a2
    83003de4:	01833683          	ld	a3,24(t1)
    83003de8:	00e787bb          	addw	a5,a5,a4
    83003dec:	00461613          	slli	a2,a2,0x4
    83003df0:	00c7863b          	addw	a2,a5,a2
    83003df4:	03300593          	li	a1,51
    83003df8:	000680e7          	jalr	a3
    83003dfc:	4dcd5783          	lhu	a5,1244(s10)
    83003e00:	00000613          	li	a2,0
    83003e04:	00078663          	beqz	a5,83003e10 <_ZN10CrixPlayer6updateEv+0x6ec>
    83003e08:	4a3d4603          	lbu	a2,1187(s10)
    83003e0c:	00367613          	andi	a2,a2,3
    83003e10:	008b3503          	ld	a0,8(s6)
    83003e14:	0f300593          	li	a1,243
    83003e18:	00053783          	ld	a5,0(a0)
    83003e1c:	0187b783          	ld	a5,24(a5)
    83003e20:	000780e7          	jalr	a5
    83003e24:	4d8d5783          	lhu	a5,1240(s10)
    83003e28:	980780e3          	beqz	a5,830037a8 <_ZN10CrixPlayer6updateEv+0x84>
    83003e2c:	b01ff06f          	j	8300392c <_ZN10CrixPlayer6updateEv+0x208>
    83003e30:	4d4d4783          	lbu	a5,1236(s10)
    83003e34:	00f47413          	andi	s0,s0,15
    83003e38:	00078663          	beqz	a5,83003e44 <_ZN10CrixPlayer6updateEv+0x720>
    83003e3c:	00600793          	li	a5,6
    83003e40:	ae87e2e3          	bltu	a5,s0,83003924 <_ZN10CrixPlayer6updateEv+0x200>
    83003e44:	0066179b          	slliw	a5,a2,0x6
    83003e48:	ffffe737          	lui	a4,0xffffe
    83003e4c:	00e7873b          	addw	a4,a5,a4
    83003e50:	0017179b          	slliw	a5,a4,0x1
    83003e54:	00e787bb          	addw	a5,a5,a4
    83003e58:	0037979b          	slliw	a5,a5,0x3
    83003e5c:	00e7873b          	addw	a4,a5,a4
    83003e60:	41f7579b          	sraiw	a5,a4,0x1f
    83003e64:	0137d79b          	srliw	a5,a5,0x13
    83003e68:	00e787bb          	addw	a5,a5,a4
    83003e6c:	40d7d79b          	sraiw	a5,a5,0xd
    83003e70:	0004071b          	sext.w	a4,s0
    83003e74:	3e07c2e3          	bltz	a5,83004a58 <_ZN10CrixPlayer6updateEv+0x1334>
    83003e78:	000026b7          	lui	a3,0x2
    83003e7c:	13868693          	addi	a3,a3,312 # 2138 <maskToShift.part.0-0x82ffdfb0>
    83003e80:	00d706b3          	add	a3,a4,a3
    83003e84:	00169693          	slli	a3,a3,0x1
    83003e88:	00db06b3          	add	a3,s6,a3
    83003e8c:	0107979b          	slliw	a5,a5,0x10
    83003e90:	4107d79b          	sraiw	a5,a5,0x10
    83003e94:	00069623          	sh	zero,12(a3)
    83003e98:	0017969b          	slliw	a3,a5,0x1
    83003e9c:	00f687bb          	addw	a5,a3,a5
    83003ea0:	0037979b          	slliw	a5,a5,0x3
    83003ea4:	00141693          	slli	a3,s0,0x1
    83003ea8:	03079613          	slli	a2,a5,0x30
    83003eac:	00db06b3          	add	a3,s6,a3
    83003eb0:	009686b3          	add	a3,a3,s1
    83003eb4:	03065613          	srli	a2,a2,0x30
    83003eb8:	00eb0733          	add	a4,s6,a4
    83003ebc:	3ac69723          	sh	a2,942(a3)
    83003ec0:	00e48733          	add	a4,s1,a4
    83003ec4:	27c6d583          	lhu	a1,636(a3)
    83003ec8:	29274783          	lbu	a5,658(a4) # ffffffffffffe292 <_end+0xffffffff7cf93c72>
    83003ecc:	03041413          	slli	s0,s0,0x30
    83003ed0:	05f00693          	li	a3,95
    83003ed4:	00b787bb          	addw	a5,a5,a1
    83003ed8:	0107959b          	slliw	a1,a5,0x10
    83003edc:	4105d59b          	sraiw	a1,a1,0x10
    83003ee0:	03045413          	srli	s0,s0,0x30
    83003ee4:	2a474983          	lbu	s3,676(a4)
    83003ee8:	00b6d463          	bge	a3,a1,83003ef0 <_ZN10CrixPlayer6updateEv+0x7cc>
    83003eec:	05f00793          	li	a5,95
    83003ef0:	0107979b          	slliw	a5,a5,0x10
    83003ef4:	4107d79b          	sraiw	a5,a5,0x10
    83003ef8:	0007871b          	sext.w	a4,a5
    83003efc:	fff74713          	not	a4,a4
    83003f00:	43f75713          	srai	a4,a4,0x3f
    83003f04:	00e7f7b3          	and	a5,a5,a4
    83003f08:	0007891b          	sext.w	s2,a5
    83003f0c:	012b0933          	add	s2,s6,s2
    83003f10:	01248933          	add	s2,s1,s2
    83003f14:	31694783          	lbu	a5,790(s2)
    83003f18:	008b3503          	ld	a0,8(s6)
    83003f1c:	0016561b          	srliw	a2,a2,0x1
    83003f20:	00002737          	lui	a4,0x2
    83003f24:	00c787bb          	addw	a5,a5,a2
    83003f28:	01070713          	addi	a4,a4,16 # 2010 <maskToShift.part.0-0x82ffe0d8>
    83003f2c:	00e787b3          	add	a5,a5,a4
    83003f30:	00179793          	slli	a5,a5,0x1
    83003f34:	00053703          	ld	a4,0(a0)
    83003f38:	00fb07b3          	add	a5,s6,a5
    83003f3c:	0047da03          	lhu	s4,4(a5)
    83003f40:	01873783          	ld	a5,24(a4)
    83003f44:	0a040593          	addi	a1,s0,160
    83003f48:	0ffa7613          	zext.b	a2,s4
    83003f4c:	000780e7          	jalr	a5
    83003f50:	008b3503          	ld	a0,8(s6)
    83003f54:	2b694783          	lbu	a5,694(s2)
    83003f58:	408a561b          	sraiw	a2,s4,0x8
    83003f5c:	00053703          	ld	a4,0(a0)
    83003f60:	00279793          	slli	a5,a5,0x2
    83003f64:	00367613          	andi	a2,a2,3
    83003f68:	013039b3          	snez	s3,s3
    83003f6c:	00f60633          	add	a2,a2,a5
    83003f70:	00599993          	slli	s3,s3,0x5
    83003f74:	01873783          	ld	a5,24(a4)
    83003f78:	00c9863b          	addw	a2,s3,a2
    83003f7c:	0ff67613          	zext.b	a2,a2
    83003f80:	0b040593          	addi	a1,s0,176
    83003f84:	000780e7          	jalr	a5
    83003f88:	4d8d5783          	lhu	a5,1240(s10)
    83003f8c:	80078ee3          	beqz	a5,830037a8 <_ZN10CrixPlayer6updateEv+0x84>
    83003f90:	99dff06f          	j	8300392c <_ZN10CrixPlayer6updateEv+0x208>
    83003f94:	0084179b          	slliw	a5,s0,0x8
    83003f98:	00c787bb          	addw	a5,a5,a2
    83003f9c:	03079793          	slli	a5,a5,0x30
    83003fa0:	0307d793          	srli	a5,a5,0x30
    83003fa4:	4cfd1c23          	sh	a5,1240(s10)
    83003fa8:	800780e3          	beqz	a5,830037a8 <_ZN10CrixPlayer6updateEv+0x84>
    83003fac:	981ff06f          	j	8300392c <_ZN10CrixPlayer6updateEv+0x208>
    83003fb0:	4d4d4783          	lbu	a5,1236(s10)
    83003fb4:	00f47413          	andi	s0,s0,15
    83003fb8:	0c078063          	beqz	a5,83004078 <_ZN10CrixPlayer6updateEv+0x954>
    83003fbc:	00500793          	li	a5,5
    83003fc0:	0a87fc63          	bgeu	a5,s0,83004078 <_ZN10CrixPlayer6updateEv+0x954>
    83003fc4:	00600793          	li	a5,6
    83003fc8:	2cf40ee3          	beq	s0,a5,83004aa4 <_ZN10CrixPlayer6updateEv+0x1380>
    83003fcc:	0014179b          	slliw	a5,s0,0x1
    83003fd0:	00040717          	auipc	a4,0x40
    83003fd4:	21870713          	addi	a4,a4,536 # 830441e8 <_ZN10CrixPlayer11bd_reg_dataE>
    83003fd8:	0067879b          	addiw	a5,a5,6
    83003fdc:	00f707b3          	add	a5,a4,a5
    83003fe0:	0807c683          	lbu	a3,128(a5)
    83003fe4:	00d70733          	add	a4,a4,a3
    83003fe8:	0a074583          	lbu	a1,160(a4)
    83003fec:	0405859b          	addiw	a1,a1,64
    83003ff0:	0ff5f593          	zext.b	a1,a1
    83003ff4:	07f00793          	li	a5,127
    83003ff8:	00060513          	mv	a0,a2
    83003ffc:	00c7f463          	bgeu	a5,a2,83004004 <_ZN10CrixPlayer6updateEv+0x8e0>
    83004000:	07f00513          	li	a0,127
    83004004:	00369793          	slli	a5,a3,0x3
    83004008:	40d787b3          	sub	a5,a5,a3
    8300400c:	00179793          	slli	a5,a5,0x1
    83004010:	00fb07b3          	add	a5,s6,a5
    83004014:	00f487b3          	add	a5,s1,a5
    83004018:	3cc7c603          	lbu	a2,972(a5)
    8300401c:	0ff57713          	zext.b	a4,a0
    83004020:	00171713          	slli	a4,a4,0x1
    83004024:	fff64613          	not	a2,a2
    83004028:	03f67613          	andi	a2,a2,63
    8300402c:	02c70733          	mul	a4,a4,a2
    83004030:	3c47c603          	lbu	a2,964(a5)
    83004034:	00dd86b3          	add	a3,s11,a3
    83004038:	00a68023          	sb	a0,0(a3)
    8300403c:	008b3503          	ld	a0,8(s6)
    83004040:	0066161b          	slliw	a2,a2,0x6
    83004044:	00053683          	ld	a3,0(a0)
    83004048:	07f7079b          	addiw	a5,a4,127
    8300404c:	0fe00713          	li	a4,254
    83004050:	02e7d7bb          	divuw	a5,a5,a4
    83004054:	03f00713          	li	a4,63
    83004058:	0186b683          	ld	a3,24(a3)
    8300405c:	40f707bb          	subw	a5,a4,a5
    83004060:	00f66633          	or	a2,a2,a5
    83004064:	0ff67613          	zext.b	a2,a2
    83004068:	000680e7          	jalr	a3
    8300406c:	4d8d5783          	lhu	a5,1240(s10)
    83004070:	f2078c63          	beqz	a5,830037a8 <_ZN10CrixPlayer6updateEv+0x84>
    83004074:	8b9ff06f          	j	8300392c <_ZN10CrixPlayer6updateEv+0x208>
    83004078:	0014141b          	slliw	s0,s0,0x1
    8300407c:	00040717          	auipc	a4,0x40
    83004080:	16c70713          	addi	a4,a4,364 # 830441e8 <_ZN10CrixPlayer11bd_reg_dataE>
    83004084:	0014079b          	addiw	a5,s0,1
    83004088:	f55ff06f          	j	83003fdc <_ZN10CrixPlayer6updateEv+0x8b8>
    8300408c:	0014179b          	slliw	a5,s0,0x1
    83004090:	00040997          	auipc	s3,0x40
    83004094:	15898993          	addi	s3,s3,344 # 830441e8 <_ZN10CrixPlayer11bd_reg_dataE>
    83004098:	00078413          	mv	s0,a5
    8300409c:	00f987b3          	add	a5,s3,a5
    830040a0:	0807ca03          	lbu	s4,128(a5)
    830040a4:	3c448693          	addi	a3,s1,964
    830040a8:	000c0793          	mv	a5,s8
    830040ac:	003a1713          	slli	a4,s4,0x3
    830040b0:	41470733          	sub	a4,a4,s4
    830040b4:	00171713          	slli	a4,a4,0x1
    830040b8:	00d70733          	add	a4,a4,a3
    830040bc:	000a0a1b          	sext.w	s4,s4
    830040c0:	00eb0733          	add	a4,s6,a4
    830040c4:	01ac0613          	addi	a2,s8,26
    830040c8:	0007d683          	lhu	a3,0(a5)
    830040cc:	00170713          	addi	a4,a4,1
    830040d0:	00278793          	addi	a5,a5,2
    830040d4:	fed70fa3          	sb	a3,-1(a4)
    830040d8:	fef618e3          	bne	a2,a5,830040c8 <_ZN10CrixPlayer6updateEv+0x9a4>
    830040dc:	003a1913          	slli	s2,s4,0x3
    830040e0:	41490733          	sub	a4,s2,s4
    830040e4:	00171713          	slli	a4,a4,0x1
    830040e8:	00eb0733          	add	a4,s6,a4
    830040ec:	00e48cb3          	add	s9,s1,a4
    830040f0:	0035f593          	andi	a1,a1,3
    830040f4:	3cbc88a3          	sb	a1,977(s9)
    830040f8:	008b3503          	ld	a0,8(s6)
    830040fc:	4ded4603          	lbu	a2,1246(s10)
    83004100:	00603333          	snez	t1,t1
    83004104:	00053683          	ld	a3,0(a0)
    83004108:	00531313          	slli	t1,t1,0x5
    8300410c:	00c36633          	or	a2,t1,a2
    83004110:	0186b783          	ld	a5,24(a3)
    83004114:	0bd00593          	li	a1,189
    83004118:	01498bb3          	add	s7,s3,s4
    8300411c:	000780e7          	jalr	a5
    83004120:	008b3503          	ld	a0,8(s6)
    83004124:	00000613          	li	a2,0
    83004128:	00800593          	li	a1,8
    8300412c:	00053783          	ld	a5,0(a0)
    83004130:	0187b783          	ld	a5,24(a5)
    83004134:	000780e7          	jalr	a5
    83004138:	3cccc683          	lbu	a3,972(s9)
    8300413c:	014d87b3          	add	a5,s11,s4
    83004140:	0007c783          	lbu	a5,0(a5)
    83004144:	fff6c693          	not	a3,a3
    83004148:	03f6f693          	andi	a3,a3,63
    8300414c:	0017979b          	slliw	a5,a5,0x1
    83004150:	02d787bb          	mulw	a5,a5,a3
    83004154:	0fe00313          	li	t1,254
    83004158:	008b3503          	ld	a0,8(s6)
    8300415c:	3c4cc603          	lbu	a2,964(s9)
    83004160:	0a0bca83          	lbu	s5,160(s7)
    83004164:	00053683          	ld	a3,0(a0)
    83004168:	0066161b          	slliw	a2,a2,0x6
    8300416c:	040a859b          	addiw	a1,s5,64
    83004170:	0186b683          	ld	a3,24(a3)
    83004174:	0ff5f593          	zext.b	a1,a1
    83004178:	03079793          	slli	a5,a5,0x30
    8300417c:	0307d793          	srli	a5,a5,0x30
    83004180:	07f7879b          	addiw	a5,a5,127
    83004184:	0107979b          	slliw	a5,a5,0x10
    83004188:	0107d79b          	srliw	a5,a5,0x10
    8300418c:	0267d7bb          	divuw	a5,a5,t1
    83004190:	03f00313          	li	t1,63
    83004194:	40f307bb          	subw	a5,t1,a5
    83004198:	00f66633          	or	a2,a2,a5
    8300419c:	0ff67613          	zext.b	a2,a2
    830041a0:	000680e7          	jalr	a3
    830041a4:	0b8bc683          	lbu	a3,184(s7)
    830041a8:	00100793          	li	a5,1
    830041ac:	02f68c63          	beq	a3,a5,830041e4 <_ZN10CrixPlayer6updateEv+0xac0>
    830041b0:	008b3503          	ld	a0,8(s6)
    830041b4:	3c6cc783          	lbu	a5,966(s9)
    830041b8:	3d0cc603          	lbu	a2,976(s9)
    830041bc:	00053703          	ld	a4,0(a0)
    830041c0:	0d0bc583          	lbu	a1,208(s7)
    830041c4:	00163613          	seqz	a2,a2
    830041c8:	00179793          	slli	a5,a5,0x1
    830041cc:	01873703          	ld	a4,24(a4)
    830041d0:	00f66633          	or	a2,a2,a5
    830041d4:	0c05859b          	addiw	a1,a1,192
    830041d8:	0ff67613          	zext.b	a2,a2
    830041dc:	0ff5f593          	zext.b	a1,a1
    830041e0:	000700e7          	jalr	a4
    830041e4:	41490933          	sub	s2,s2,s4
    830041e8:	008b3503          	ld	a0,8(s6)
    830041ec:	00191913          	slli	s2,s2,0x1
    830041f0:	012b0933          	add	s2,s6,s2
    830041f4:	01248933          	add	s2,s1,s2
    830041f8:	00053703          	ld	a4,0(a0)
    830041fc:	3c794783          	lbu	a5,967(s2)
    83004200:	3ca94603          	lbu	a2,970(s2)
    83004204:	01873703          	ld	a4,24(a4)
    83004208:	0047979b          	slliw	a5,a5,0x4
    8300420c:	00f67613          	andi	a2,a2,15
    83004210:	00f66633          	or	a2,a2,a5
    83004214:	060a859b          	addiw	a1,s5,96
    83004218:	0ff67613          	zext.b	a2,a2
    8300421c:	0ff5f593          	zext.b	a1,a1
    83004220:	000700e7          	jalr	a4
    83004224:	008b3503          	ld	a0,8(s6)
    83004228:	3c894783          	lbu	a5,968(s2)
    8300422c:	3cb94603          	lbu	a2,971(s2)
    83004230:	00053703          	ld	a4,0(a0)
    83004234:	0047979b          	slliw	a5,a5,0x4
    83004238:	00f67613          	andi	a2,a2,15
    8300423c:	01873703          	ld	a4,24(a4)
    83004240:	00f66633          	or	a2,a2,a5
    83004244:	0ff67613          	zext.b	a2,a2
    83004248:	080ac593          	xori	a1,s5,128
    8300424c:	000700e7          	jalr	a4
    83004250:	008b3503          	ld	a0,8(s6)
    83004254:	3cd94583          	lbu	a1,973(s2)
    83004258:	3ce94683          	lbu	a3,974(s2)
    8300425c:	3c594783          	lbu	a5,965(s2)
    83004260:	3c994703          	lbu	a4,969(s2)
    83004264:	3cf94603          	lbu	a2,975(s2)
    83004268:	00053303          	ld	t1,0(a0)
    8300426c:	00b035b3          	snez	a1,a1
    83004270:	00759593          	slli	a1,a1,0x7
    83004274:	00d036b3          	snez	a3,a3
    83004278:	00f7f793          	andi	a5,a5,15
    8300427c:	00669693          	slli	a3,a3,0x6
    83004280:	00b787bb          	addw	a5,a5,a1
    83004284:	00e03733          	snez	a4,a4
    83004288:	00571713          	slli	a4,a4,0x5
    8300428c:	00d787bb          	addw	a5,a5,a3
    83004290:	00c03633          	snez	a2,a2
    83004294:	01833683          	ld	a3,24(t1)
    83004298:	00e787bb          	addw	a5,a5,a4
    8300429c:	00461613          	slli	a2,a2,0x4
    830042a0:	020a859b          	addiw	a1,s5,32
    830042a4:	00c7863b          	addw	a2,a5,a2
    830042a8:	0ff5f593          	zext.b	a1,a1
    830042ac:	000680e7          	jalr	a3
    830042b0:	4dcd5783          	lhu	a5,1244(s10)
    830042b4:	00000613          	li	a2,0
    830042b8:	00078663          	beqz	a5,830042c4 <_ZN10CrixPlayer6updateEv+0xba0>
    830042bc:	3d194603          	lbu	a2,977(s2)
    830042c0:	00367613          	andi	a2,a2,3
    830042c4:	008b3503          	ld	a0,8(s6)
    830042c8:	0e0a859b          	addiw	a1,s5,224
    830042cc:	0014041b          	addiw	s0,s0,1
    830042d0:	00053783          	ld	a5,0(a0)
    830042d4:	0ff5f593          	zext.b	a1,a1
    830042d8:	00898433          	add	s0,s3,s0
    830042dc:	0187b783          	ld	a5,24(a5)
    830042e0:	000780e7          	jalr	a5
    830042e4:	08044903          	lbu	s2,128(s0)
    830042e8:	39048793          	addi	a5,s1,912
    830042ec:	3c448693          	addi	a3,s1,964
    830042f0:	00391713          	slli	a4,s2,0x3
    830042f4:	41270733          	sub	a4,a4,s2
    830042f8:	00171713          	slli	a4,a4,0x1
    830042fc:	3acd5583          	lhu	a1,940(s10)
    83004300:	00fb07b3          	add	a5,s6,a5
    83004304:	00d70733          	add	a4,a4,a3
    83004308:	0009091b          	sext.w	s2,s2
    8300430c:	00eb0733          	add	a4,s6,a4
    83004310:	01a78613          	addi	a2,a5,26
    83004314:	0007d683          	lhu	a3,0(a5)
    83004318:	00170713          	addi	a4,a4,1
    8300431c:	00278793          	addi	a5,a5,2
    83004320:	fed70fa3          	sb	a3,-1(a4)
    83004324:	fef618e3          	bne	a2,a5,83004314 <_ZN10CrixPlayer6updateEv+0xbf0>
    83004328:	00391413          	slli	s0,s2,0x3
    8300432c:	41240ab3          	sub	s5,s0,s2
    83004330:	001a9a93          	slli	s5,s5,0x1
    83004334:	015b0ab3          	add	s5,s6,s5
    83004338:	01548ab3          	add	s5,s1,s5
    8300433c:	0035f793          	andi	a5,a1,3
    83004340:	3cfa88a3          	sb	a5,977(s5)
    83004344:	008b3503          	ld	a0,8(s6)
    83004348:	4d4d4783          	lbu	a5,1236(s10)
    8300434c:	4ded4603          	lbu	a2,1246(s10)
    83004350:	00053703          	ld	a4,0(a0)
    83004354:	00f037b3          	snez	a5,a5
    83004358:	00579793          	slli	a5,a5,0x5
    8300435c:	01873703          	ld	a4,24(a4)
    83004360:	00c7e633          	or	a2,a5,a2
    83004364:	0bd00593          	li	a1,189
    83004368:	000700e7          	jalr	a4
    8300436c:	008b3503          	ld	a0,8(s6)
    83004370:	00000613          	li	a2,0
    83004374:	00800593          	li	a1,8
    83004378:	00053783          	ld	a5,0(a0)
    8300437c:	012989b3          	add	s3,s3,s2
    83004380:	0187b783          	ld	a5,24(a5)
    83004384:	000780e7          	jalr	a5
    83004388:	3ccac703          	lbu	a4,972(s5)
    8300438c:	012d87b3          	add	a5,s11,s2
    83004390:	0007c783          	lbu	a5,0(a5)
    83004394:	fff74713          	not	a4,a4
    83004398:	03f77713          	andi	a4,a4,63
    8300439c:	0017979b          	slliw	a5,a5,0x1
    830043a0:	02e787bb          	mulw	a5,a5,a4
    830043a4:	008b3503          	ld	a0,8(s6)
    830043a8:	3c4ac603          	lbu	a2,964(s5)
    830043ac:	0a09ca03          	lbu	s4,160(s3)
    830043b0:	00053703          	ld	a4,0(a0)
    830043b4:	0066161b          	slliw	a2,a2,0x6
    830043b8:	040a059b          	addiw	a1,s4,64
    830043bc:	01873683          	ld	a3,24(a4)
    830043c0:	0fe00713          	li	a4,254
    830043c4:	0ff5f593          	zext.b	a1,a1
    830043c8:	03079793          	slli	a5,a5,0x30
    830043cc:	0307d793          	srli	a5,a5,0x30
    830043d0:	07f7879b          	addiw	a5,a5,127
    830043d4:	0107979b          	slliw	a5,a5,0x10
    830043d8:	0107d79b          	srliw	a5,a5,0x10
    830043dc:	02e7d7bb          	divuw	a5,a5,a4
    830043e0:	03f00713          	li	a4,63
    830043e4:	40f707bb          	subw	a5,a4,a5
    830043e8:	00f66633          	or	a2,a2,a5
    830043ec:	0ff67613          	zext.b	a2,a2
    830043f0:	000680e7          	jalr	a3
    830043f4:	0b89c703          	lbu	a4,184(s3)
    830043f8:	00100793          	li	a5,1
    830043fc:	02f70c63          	beq	a4,a5,83004434 <_ZN10CrixPlayer6updateEv+0xd10>
    83004400:	008b3503          	ld	a0,8(s6)
    83004404:	3c6ac783          	lbu	a5,966(s5)
    83004408:	3d0ac603          	lbu	a2,976(s5)
    8300440c:	00053703          	ld	a4,0(a0)
    83004410:	0d09c583          	lbu	a1,208(s3)
    83004414:	00163613          	seqz	a2,a2
    83004418:	00179793          	slli	a5,a5,0x1
    8300441c:	01873703          	ld	a4,24(a4)
    83004420:	00f66633          	or	a2,a2,a5
    83004424:	0c05859b          	addiw	a1,a1,192
    83004428:	0ff67613          	zext.b	a2,a2
    8300442c:	0ff5f593          	zext.b	a1,a1
    83004430:	000700e7          	jalr	a4
    83004434:	41240433          	sub	s0,s0,s2
    83004438:	008b3503          	ld	a0,8(s6)
    8300443c:	00141413          	slli	s0,s0,0x1
    83004440:	008b0433          	add	s0,s6,s0
    83004444:	00848433          	add	s0,s1,s0
    83004448:	00053703          	ld	a4,0(a0)
    8300444c:	3c744783          	lbu	a5,967(s0)
    83004450:	3ca44603          	lbu	a2,970(s0)
    83004454:	01873703          	ld	a4,24(a4)
    83004458:	0047979b          	slliw	a5,a5,0x4
    8300445c:	00f67613          	andi	a2,a2,15
    83004460:	00f66633          	or	a2,a2,a5
    83004464:	060a059b          	addiw	a1,s4,96
    83004468:	0ff67613          	zext.b	a2,a2
    8300446c:	0ff5f593          	zext.b	a1,a1
    83004470:	000700e7          	jalr	a4
    83004474:	008b3503          	ld	a0,8(s6)
    83004478:	3c844783          	lbu	a5,968(s0)
    8300447c:	3cb44603          	lbu	a2,971(s0)
    83004480:	00053703          	ld	a4,0(a0)
    83004484:	0047979b          	slliw	a5,a5,0x4
    83004488:	00f67613          	andi	a2,a2,15
    8300448c:	01873703          	ld	a4,24(a4)
    83004490:	00f66633          	or	a2,a2,a5
    83004494:	0ff67613          	zext.b	a2,a2
    83004498:	080a4593          	xori	a1,s4,128
    8300449c:	000700e7          	jalr	a4
    830044a0:	008b3503          	ld	a0,8(s6)
    830044a4:	3cd44583          	lbu	a1,973(s0)
    830044a8:	3ce44683          	lbu	a3,974(s0)
    830044ac:	3c544783          	lbu	a5,965(s0)
    830044b0:	3c944703          	lbu	a4,969(s0)
    830044b4:	3cf44603          	lbu	a2,975(s0)
    830044b8:	00053303          	ld	t1,0(a0)
    830044bc:	00b035b3          	snez	a1,a1
    830044c0:	00759593          	slli	a1,a1,0x7
    830044c4:	00d036b3          	snez	a3,a3
    830044c8:	00f7f793          	andi	a5,a5,15
    830044cc:	00669693          	slli	a3,a3,0x6
    830044d0:	00b787bb          	addw	a5,a5,a1
    830044d4:	00e03733          	snez	a4,a4
    830044d8:	00571713          	slli	a4,a4,0x5
    830044dc:	00d787bb          	addw	a5,a5,a3
    830044e0:	00c03633          	snez	a2,a2
    830044e4:	01833683          	ld	a3,24(t1)
    830044e8:	00e787bb          	addw	a5,a5,a4
    830044ec:	00461613          	slli	a2,a2,0x4
    830044f0:	020a059b          	addiw	a1,s4,32
    830044f4:	00c7863b          	addw	a2,a5,a2
    830044f8:	0ff5f593          	zext.b	a1,a1
    830044fc:	000680e7          	jalr	a3
    83004500:	4dcd5783          	lhu	a5,1244(s10)
    83004504:	00000613          	li	a2,0
    83004508:	00078663          	beqz	a5,83004514 <_ZN10CrixPlayer6updateEv+0xdf0>
    8300450c:	3d144603          	lbu	a2,977(s0)
    83004510:	00367613          	andi	a2,a2,3
    83004514:	008b3503          	ld	a0,8(s6)
    83004518:	0e0a059b          	addiw	a1,s4,224
    8300451c:	00053783          	ld	a5,0(a0)
    83004520:	0ff5f593          	zext.b	a1,a1
    83004524:	0187b783          	ld	a5,24(a5)
    83004528:	000780e7          	jalr	a5
    8300452c:	4d8d5783          	lhu	a5,1240(s10)
    83004530:	a6078c63          	beqz	a5,830037a8 <_ZN10CrixPlayer6updateEv+0x84>
    83004534:	bf8ff06f          	j	8300392c <_ZN10CrixPlayer6updateEv+0x208>
    83004538:	00004c37          	lui	s8,0x4
    8300453c:	000029b7          	lui	s3,0x2
    83004540:	292c0c93          	addi	s9,s8,658 # 4292 <maskToShift.part.0-0x82ffbe56>
    83004544:	00004a37          	lui	s4,0x4
    83004548:	27cc0c13          	addi	s8,s8,636
    8300454c:	01098793          	addi	a5,s3,16 # 2010 <maskToShift.part.0-0x82ffe0d8>
    83004550:	00040d97          	auipc	s11,0x40
    83004554:	c98d8d93          	addi	s11,s11,-872 # 830441e8 <_ZN10CrixPlayer11bd_reg_dataE>
    83004558:	019b0cb3          	add	s9,s6,s9
    8300455c:	018b0c33          	add	s8,s6,s8
    83004560:	00000b93          	li	s7,0
    83004564:	014b04b3          	add	s1,s6,s4
    83004568:	00f13023          	sd	a5,0(sp)
    8300456c:	00500a93          	li	s5,5
    83004570:	00b00913          	li	s2,11
    83004574:	0cc0006f          	j	83004640 <_ZN10CrixPlayer6updateEv+0xf1c>
    83004578:	000c5703          	lhu	a4,0(s8)
    8300457c:	000cc783          	lbu	a5,0(s9)
    83004580:	000c8923          	sb	zero,18(s9)
    83004584:	05f00613          	li	a2,95
    83004588:	00e787bb          	addw	a5,a5,a4
    8300458c:	03079793          	slli	a5,a5,0x30
    83004590:	0307d793          	srli	a5,a5,0x30
    83004594:	0107971b          	slliw	a4,a5,0x10
    83004598:	4107571b          	sraiw	a4,a4,0x10
    8300459c:	00068513          	mv	a0,a3
    830045a0:	00e65463          	bge	a2,a4,830045a8 <_ZN10CrixPlayer6updateEv+0xe84>
    830045a4:	05f00793          	li	a5,95
    830045a8:	0107979b          	slliw	a5,a5,0x10
    830045ac:	4107d79b          	sraiw	a5,a5,0x10
    830045b0:	0007871b          	sext.w	a4,a5
    830045b4:	fff74713          	not	a4,a4
    830045b8:	43f75713          	srai	a4,a4,0x3f
    830045bc:	00e7f7b3          	and	a5,a5,a4
    830045c0:	0007841b          	sext.w	s0,a5
    830045c4:	008b0433          	add	s0,s6,s0
    830045c8:	132c5783          	lhu	a5,306(s8)
    830045cc:	008a0433          	add	s0,s4,s0
    830045d0:	31644603          	lbu	a2,790(s0)
    830045d4:	0006b703          	ld	a4,0(a3)
    830045d8:	00013683          	ld	a3,0(sp)
    830045dc:	0017d79b          	srliw	a5,a5,0x1
    830045e0:	00c787bb          	addw	a5,a5,a2
    830045e4:	00d787b3          	add	a5,a5,a3
    830045e8:	00179793          	slli	a5,a5,0x1
    830045ec:	00fb07b3          	add	a5,s6,a5
    830045f0:	0047d983          	lhu	s3,4(a5)
    830045f4:	01873703          	ld	a4,24(a4)
    830045f8:	001b8b9b          	addiw	s7,s7,1
    830045fc:	0ff9f613          	zext.b	a2,s3
    83004600:	000700e7          	jalr	a4
    83004604:	008b3503          	ld	a0,8(s6)
    83004608:	2b644603          	lbu	a2,694(s0)
    8300460c:	4089d79b          	sraiw	a5,s3,0x8
    83004610:	00053703          	ld	a4,0(a0)
    83004614:	0037f793          	andi	a5,a5,3
    83004618:	0026161b          	slliw	a2,a2,0x2
    8300461c:	01873703          	ld	a4,24(a4)
    83004620:	00f6063b          	addw	a2,a2,a5
    83004624:	0ff67613          	zext.b	a2,a2
    83004628:	0b0d059b          	addiw	a1,s10,176
    8300462c:	000700e7          	jalr	a4
    83004630:	001d8d93          	addi	s11,s11,1
    83004634:	001c8c93          	addi	s9,s9,1
    83004638:	002c0c13          	addi	s8,s8,2
    8300463c:	052b8e63          	beq	s7,s2,83004698 <_ZN10CrixPlayer6updateEv+0xf74>
    83004640:	4d44c783          	lbu	a5,1236(s1)
    83004644:	000b8d1b          	sext.w	s10,s7
    83004648:	0a0d059b          	addiw	a1,s10,160
    8300464c:	008b3683          	ld	a3,8(s6)
    83004650:	f20784e3          	beqz	a5,83004578 <_ZN10CrixPlayer6updateEv+0xe54>
    83004654:	00068513          	mv	a0,a3
    83004658:	f37ad0e3          	bge	s5,s7,83004578 <_ZN10CrixPlayer6updateEv+0xe54>
    8300465c:	000dc603          	lbu	a2,0(s11)
    83004660:	4de4c783          	lbu	a5,1246(s1)
    83004664:	0bd00593          	li	a1,189
    83004668:	fff64613          	not	a2,a2
    8300466c:	00f67633          	and	a2,a2,a5
    83004670:	4cc48f23          	sb	a2,1246(s1)
    83004674:	0006b783          	ld	a5,0(a3)
    83004678:	02066613          	ori	a2,a2,32
    8300467c:	001b8b9b          	addiw	s7,s7,1
    83004680:	0187b783          	ld	a5,24(a5)
    83004684:	001d8d93          	addi	s11,s11,1
    83004688:	001c8c93          	addi	s9,s9,1
    8300468c:	000780e7          	jalr	a5
    83004690:	002c0c13          	addi	s8,s8,2
    83004694:	fb2b96e3          	bne	s7,s2,83004640 <_ZN10CrixPlayer6updateEv+0xf1c>
    83004698:	000047b7          	lui	a5,0x4
    8300469c:	00fb07b3          	add	a5,s6,a5
    830046a0:	4d07d703          	lhu	a4,1232(a5) # 44d0 <maskToShift.part.0-0x82ffbc18>
    830046a4:	4c079c23          	sh	zero,1240(a5)
    830046a8:	0017071b          	addiw	a4,a4,1
    830046ac:	4ce7a423          	sw	a4,1224(a5)
    830046b0:	00100713          	li	a4,1
    830046b4:	4ce78aa3          	sb	a4,1237(a5)
    830046b8:	a9cff06f          	j	83003954 <_ZN10CrixPlayer6updateEv+0x230>
    830046bc:	00040797          	auipc	a5,0x40
    830046c0:	b2c78793          	addi	a5,a5,-1236 # 830441e8 <_ZN10CrixPlayer11bd_reg_dataE>
    830046c4:	017787b3          	add	a5,a5,s7
    830046c8:	0007c603          	lbu	a2,0(a5)
    830046cc:	4ded4783          	lbu	a5,1246(s10)
    830046d0:	0bd00593          	li	a1,189
    830046d4:	fff64613          	not	a2,a2
    830046d8:	00f67633          	and	a2,a2,a5
    830046dc:	4ccd0f23          	sb	a2,1246(s10)
    830046e0:	00053783          	ld	a5,0(a0)
    830046e4:	02066613          	ori	a2,a2,32
    830046e8:	0187b783          	ld	a5,24(a5)
    830046ec:	000780e7          	jalr	a5
    830046f0:	4dad4703          	lbu	a4,1242(s10)
    830046f4:	a2070863          	beqz	a4,83003924 <_ZN10CrixPlayer6updateEv+0x200>
    830046f8:	00c00693          	li	a3,12
    830046fc:	00070793          	mv	a5,a4
    83004700:	3ed76063          	bltu	a4,a3,83004ae0 <_ZN10CrixPlayer6updateEv+0x13bc>
    83004704:	03079793          	slli	a5,a5,0x30
    83004708:	0307d793          	srli	a5,a5,0x30
    8300470c:	ff47869b          	addiw	a3,a5,-12
    83004710:	008b3503          	ld	a0,8(s6)
    83004714:	03069693          	slli	a3,a3,0x30
    83004718:	0306d693          	srli	a3,a3,0x30
    8300471c:	4d4d4703          	lbu	a4,1236(s10)
    83004720:	aa071e63          	bnez	a4,830039dc <_ZN10CrixPlayer6updateEv+0x2b8>
    83004724:	0a098713          	addi	a4,s3,160
    83004728:	0b098913          	addi	s2,s3,176
    8300472c:	00141a13          	slli	s4,s0,0x1
    83004730:	017b0ab3          	add	s5,s6,s7
    83004734:	014b0a33          	add	s4,s6,s4
    83004738:	009a07b3          	add	a5,s4,s1
    8300473c:	27c7d783          	lhu	a5,636(a5)
    83004740:	01548ab3          	add	s5,s1,s5
    83004744:	00100593          	li	a1,1
    83004748:	00d787bb          	addw	a5,a5,a3
    8300474c:	03079793          	slli	a5,a5,0x30
    83004750:	0307d793          	srli	a5,a5,0x30
    83004754:	0107961b          	slliw	a2,a5,0x10
    83004758:	4106561b          	sraiw	a2,a2,0x10
    8300475c:	28da8923          	sb	a3,658(s5)
    83004760:	2aba8223          	sb	a1,676(s5)
    83004764:	0006069b          	sext.w	a3,a2
    83004768:	05f00613          	li	a2,95
    8300476c:	00d65463          	bge	a2,a3,83004774 <_ZN10CrixPlayer6updateEv+0x1050>
    83004770:	05f00793          	li	a5,95
    83004774:	0107979b          	slliw	a5,a5,0x10
    83004778:	4107d79b          	sraiw	a5,a5,0x10
    8300477c:	0007869b          	sext.w	a3,a5
    83004780:	fff6c693          	not	a3,a3
    83004784:	43f6d693          	srai	a3,a3,0x3f
    83004788:	00d7f7b3          	and	a5,a5,a3
    8300478c:	0007841b          	sext.w	s0,a5
    83004790:	008b0433          	add	s0,s6,s0
    83004794:	009a07b3          	add	a5,s4,s1
    83004798:	00848433          	add	s0,s1,s0
    8300479c:	3ae7d783          	lhu	a5,942(a5)
    830047a0:	31644603          	lbu	a2,790(s0)
    830047a4:	00053683          	ld	a3,0(a0)
    830047a8:	0017d79b          	srliw	a5,a5,0x1
    830047ac:	00c787bb          	addw	a5,a5,a2
    830047b0:	00002637          	lui	a2,0x2
    830047b4:	01060613          	addi	a2,a2,16 # 2010 <maskToShift.part.0-0x82ffe0d8>
    830047b8:	00c787b3          	add	a5,a5,a2
    830047bc:	00179793          	slli	a5,a5,0x1
    830047c0:	00fb07b3          	add	a5,s6,a5
    830047c4:	0047d983          	lhu	s3,4(a5)
    830047c8:	0186b783          	ld	a5,24(a3)
    830047cc:	00070593          	mv	a1,a4
    830047d0:	0ff9f613          	zext.b	a2,s3
    830047d4:	000780e7          	jalr	a5
    830047d8:	008b3503          	ld	a0,8(s6)
    830047dc:	2b644603          	lbu	a2,694(s0)
    830047e0:	4089d79b          	sraiw	a5,s3,0x8
    830047e4:	00053703          	ld	a4,0(a0)
    830047e8:	0026161b          	slliw	a2,a2,0x2
    830047ec:	0037f793          	andi	a5,a5,3
    830047f0:	0206061b          	addiw	a2,a2,32
    830047f4:	01873703          	ld	a4,24(a4)
    830047f8:	00f6063b          	addw	a2,a2,a5
    830047fc:	0ff67613          	zext.b	a2,a2
    83004800:	00090593          	mv	a1,s2
    83004804:	000700e7          	jalr	a4
    83004808:	4d8d5783          	lhu	a5,1240(s10)
    8300480c:	00079463          	bnez	a5,83004814 <_ZN10CrixPlayer6updateEv+0x10f0>
    83004810:	f99fe06f          	j	830037a8 <_ZN10CrixPlayer6updateEv+0x84>
    83004814:	918ff06f          	j	8300392c <_ZN10CrixPlayer6updateEv+0x208>
    83004818:	0034041b          	addiw	s0,s0,3
    8300481c:	00040997          	auipc	s3,0x40
    83004820:	9cc98993          	addi	s3,s3,-1588 # 830441e8 <_ZN10CrixPlayer11bd_reg_dataE>
    83004824:	0014179b          	slliw	a5,s0,0x1
    83004828:	00f987b3          	add	a5,s3,a5
    8300482c:	0807ca03          	lbu	s4,128(a5)
    83004830:	3c448693          	addi	a3,s1,964
    83004834:	000c0793          	mv	a5,s8
    83004838:	003a1713          	slli	a4,s4,0x3
    8300483c:	41470733          	sub	a4,a4,s4
    83004840:	00171713          	slli	a4,a4,0x1
    83004844:	00d70733          	add	a4,a4,a3
    83004848:	000a0a1b          	sext.w	s4,s4
    8300484c:	00eb0733          	add	a4,s6,a4
    83004850:	01ac0613          	addi	a2,s8,26
    83004854:	0007d683          	lhu	a3,0(a5)
    83004858:	00170713          	addi	a4,a4,1
    8300485c:	00278793          	addi	a5,a5,2
    83004860:	fed70fa3          	sb	a3,-1(a4)
    83004864:	fef618e3          	bne	a2,a5,83004854 <_ZN10CrixPlayer6updateEv+0x1130>
    83004868:	003a1413          	slli	s0,s4,0x3
    8300486c:	41440ab3          	sub	s5,s0,s4
    83004870:	001a9a93          	slli	s5,s5,0x1
    83004874:	015b0ab3          	add	s5,s6,s5
    83004878:	01548ab3          	add	s5,s1,s5
    8300487c:	0035f593          	andi	a1,a1,3
    83004880:	3cba88a3          	sb	a1,977(s5)
    83004884:	008b3503          	ld	a0,8(s6)
    83004888:	4ded4603          	lbu	a2,1246(s10)
    8300488c:	0bd00593          	li	a1,189
    83004890:	00053783          	ld	a5,0(a0)
    83004894:	02066613          	ori	a2,a2,32
    83004898:	0ff67613          	zext.b	a2,a2
    8300489c:	0187b783          	ld	a5,24(a5)
    830048a0:	014989b3          	add	s3,s3,s4
    830048a4:	000780e7          	jalr	a5
    830048a8:	008b3503          	ld	a0,8(s6)
    830048ac:	00000613          	li	a2,0
    830048b0:	00800593          	li	a1,8
    830048b4:	00053783          	ld	a5,0(a0)
    830048b8:	0187b783          	ld	a5,24(a5)
    830048bc:	000780e7          	jalr	a5
    830048c0:	3ccac703          	lbu	a4,972(s5)
    830048c4:	014d87b3          	add	a5,s11,s4
    830048c8:	0007c783          	lbu	a5,0(a5)
    830048cc:	fff74713          	not	a4,a4
    830048d0:	03f77713          	andi	a4,a4,63
    830048d4:	0017979b          	slliw	a5,a5,0x1
    830048d8:	02e787bb          	mulw	a5,a5,a4
    830048dc:	008b3503          	ld	a0,8(s6)
    830048e0:	3c4ac603          	lbu	a2,964(s5)
    830048e4:	0a09c903          	lbu	s2,160(s3)
    830048e8:	00053703          	ld	a4,0(a0)
    830048ec:	0066161b          	slliw	a2,a2,0x6
    830048f0:	0409059b          	addiw	a1,s2,64
    830048f4:	01873683          	ld	a3,24(a4)
    830048f8:	0fe00713          	li	a4,254
    830048fc:	0ff5f593          	zext.b	a1,a1
    83004900:	03079793          	slli	a5,a5,0x30
    83004904:	0307d793          	srli	a5,a5,0x30
    83004908:	07f7879b          	addiw	a5,a5,127
    8300490c:	0107979b          	slliw	a5,a5,0x10
    83004910:	0107d79b          	srliw	a5,a5,0x10
    83004914:	02e7d7bb          	divuw	a5,a5,a4
    83004918:	03f00713          	li	a4,63
    8300491c:	40f707bb          	subw	a5,a4,a5
    83004920:	00f66633          	or	a2,a2,a5
    83004924:	0ff67613          	zext.b	a2,a2
    83004928:	000680e7          	jalr	a3
    8300492c:	0b89c703          	lbu	a4,184(s3)
    83004930:	00100793          	li	a5,1
    83004934:	02f70c63          	beq	a4,a5,8300496c <_ZN10CrixPlayer6updateEv+0x1248>
    83004938:	008b3503          	ld	a0,8(s6)
    8300493c:	3c6ac783          	lbu	a5,966(s5)
    83004940:	3d0ac603          	lbu	a2,976(s5)
    83004944:	00053703          	ld	a4,0(a0)
    83004948:	0d09c583          	lbu	a1,208(s3)
    8300494c:	00163613          	seqz	a2,a2
    83004950:	00179793          	slli	a5,a5,0x1
    83004954:	01873703          	ld	a4,24(a4)
    83004958:	00f66633          	or	a2,a2,a5
    8300495c:	0c05859b          	addiw	a1,a1,192
    83004960:	0ff67613          	zext.b	a2,a2
    83004964:	0ff5f593          	zext.b	a1,a1
    83004968:	000700e7          	jalr	a4
    8300496c:	41440433          	sub	s0,s0,s4
    83004970:	008b3503          	ld	a0,8(s6)
    83004974:	00141413          	slli	s0,s0,0x1
    83004978:	008b0433          	add	s0,s6,s0
    8300497c:	00848433          	add	s0,s1,s0
    83004980:	00053703          	ld	a4,0(a0)
    83004984:	3c744783          	lbu	a5,967(s0)
    83004988:	3ca44603          	lbu	a2,970(s0)
    8300498c:	01873703          	ld	a4,24(a4)
    83004990:	0047979b          	slliw	a5,a5,0x4
    83004994:	00f67613          	andi	a2,a2,15
    83004998:	00f66633          	or	a2,a2,a5
    8300499c:	0609059b          	addiw	a1,s2,96
    830049a0:	0ff67613          	zext.b	a2,a2
    830049a4:	0ff5f593          	zext.b	a1,a1
    830049a8:	000700e7          	jalr	a4
    830049ac:	008b3503          	ld	a0,8(s6)
    830049b0:	3c844783          	lbu	a5,968(s0)
    830049b4:	3cb44603          	lbu	a2,971(s0)
    830049b8:	00053703          	ld	a4,0(a0)
    830049bc:	0047979b          	slliw	a5,a5,0x4
    830049c0:	00f67613          	andi	a2,a2,15
    830049c4:	01873703          	ld	a4,24(a4)
    830049c8:	00f66633          	or	a2,a2,a5
    830049cc:	0ff67613          	zext.b	a2,a2
    830049d0:	08094593          	xori	a1,s2,128
    830049d4:	000700e7          	jalr	a4
    830049d8:	008b3503          	ld	a0,8(s6)
    830049dc:	3cd44583          	lbu	a1,973(s0)
    830049e0:	3ce44683          	lbu	a3,974(s0)
    830049e4:	3c544783          	lbu	a5,965(s0)
    830049e8:	3c944703          	lbu	a4,969(s0)
    830049ec:	3cf44603          	lbu	a2,975(s0)
    830049f0:	00053303          	ld	t1,0(a0)
    830049f4:	00b035b3          	snez	a1,a1
    830049f8:	00759593          	slli	a1,a1,0x7
    830049fc:	00d036b3          	snez	a3,a3
    83004a00:	00f7f793          	andi	a5,a5,15
    83004a04:	00669693          	slli	a3,a3,0x6
    83004a08:	00b787bb          	addw	a5,a5,a1
    83004a0c:	00e03733          	snez	a4,a4
    83004a10:	00571713          	slli	a4,a4,0x5
    83004a14:	00d787bb          	addw	a5,a5,a3
    83004a18:	00c03633          	snez	a2,a2
    83004a1c:	01833683          	ld	a3,24(t1)
    83004a20:	00e787bb          	addw	a5,a5,a4
    83004a24:	00461613          	slli	a2,a2,0x4
    83004a28:	0209059b          	addiw	a1,s2,32
    83004a2c:	00c7863b          	addw	a2,a5,a2
    83004a30:	0ff5f593          	zext.b	a1,a1
    83004a34:	000680e7          	jalr	a3
    83004a38:	4dcd5783          	lhu	a5,1244(s10)
    83004a3c:	00000613          	li	a2,0
    83004a40:	00078663          	beqz	a5,83004a4c <_ZN10CrixPlayer6updateEv+0x1328>
    83004a44:	3d144603          	lbu	a2,977(s0)
    83004a48:	00367613          	andi	a2,a2,3
    83004a4c:	008b3503          	ld	a0,8(s6)
    83004a50:	0e09059b          	addiw	a1,s2,224
    83004a54:	ac9ff06f          	j	8300451c <_ZN10CrixPlayer6updateEv+0xdf8>
    83004a58:	40f007b3          	neg	a5,a5
    83004a5c:	0107979b          	slliw	a5,a5,0x10
    83004a60:	4107d79b          	sraiw	a5,a5,0x10
    83004a64:	01900593          	li	a1,25
    83004a68:	02b7e63b          	remw	a2,a5,a1
    83004a6c:	000026b7          	lui	a3,0x2
    83004a70:	13868693          	addi	a3,a3,312 # 2138 <maskToShift.part.0-0x82ffdfb0>
    83004a74:	00d706b3          	add	a3,a4,a3
    83004a78:	00169693          	slli	a3,a3,0x1
    83004a7c:	00db06b3          	add	a3,s6,a3
    83004a80:	fff00513          	li	a0,-1
    83004a84:	00a69623          	sh	a0,12(a3)
    83004a88:	0106169b          	slliw	a3,a2,0x10
    83004a8c:	4106d69b          	sraiw	a3,a3,0x10
    83004a90:	02069e63          	bnez	a3,83004acc <_ZN10CrixPlayer6updateEv+0x13a8>
    83004a94:	02b7c7bb          	divw	a5,a5,a1
    83004a98:	0107979b          	slliw	a5,a5,0x10
    83004a9c:	4107d79b          	sraiw	a5,a5,0x10
    83004aa0:	bf8ff06f          	j	83003e98 <_ZN10CrixPlayer6updateEv+0x774>
    83004aa4:	05300593          	li	a1,83
    83004aa8:	00f00693          	li	a3,15
    83004aac:	d48ff06f          	j	83003ff4 <_ZN10CrixPlayer6updateEv+0x8d0>
    83004ab0:	000047b7          	lui	a5,0x4
    83004ab4:	00fb0833          	add	a6,s6,a5
    83004ab8:	4e482503          	lw	a0,1252(a6)
    83004abc:	ff27071b          	addiw	a4,a4,-14
    83004ac0:	4ee82023          	sw	a4,1248(a6)
    83004ac4:	00153513          	seqz	a0,a0
    83004ac8:	ea1fe06f          	j	83003968 <_ZN10CrixPlayer6updateEv+0x244>
    83004acc:	01900793          	li	a5,25
    83004ad0:	40d787bb          	subw	a5,a5,a3
