
/home/guodl/Desktop/ysyx/ysyx-workbench/ics2022/am-kernels/kernels/litenes/build/litenes-riscv64-nemu.elf:     file format elf64-littleriscv


Disassembly of section .text:

0000000080000000 <_start>:
    80000000:	00000413          	li	s0,0
    80000004:	00183117          	auipc	sp,0x183
    80000008:	ffc10113          	addi	sp,sp,-4 # 80183000 <_end>
    8000000c:	094040ef          	jal	ra,800040a0 <_trm_init>

0000000080000010 <draw>:
    80000010:	0ff00793          	li	a5,255
    80000014:	04a7e863          	bltu	a5,a0,80000064 <draw+0x54>
    80000018:	0ef00793          	li	a5,239
    8000001c:	04b7e463          	bltu	a5,a1,80000064 <draw+0x54>
    80000020:	00163797          	auipc	a5,0x163
    80000024:	ca878793          	addi	a5,a5,-856 # 80162cc8 <frame_cnt>
    80000028:	0007a783          	lw	a5,0(a5)
    8000002c:	0017f793          	andi	a5,a5,1
    80000030:	02079a63          	bnez	a5,80000064 <draw+0x54>
    80000034:	00004797          	auipc	a5,0x4
    80000038:	6ec78793          	addi	a5,a5,1772 # 80004720 <palette>
    8000003c:	00261613          	slli	a2,a2,0x2
    80000040:	00c78633          	add	a2,a5,a2
    80000044:	0085959b          	slliw	a1,a1,0x8
    80000048:	00a585bb          	addw	a1,a1,a0
    8000004c:	00062703          	lw	a4,0(a2)
    80000050:	00259593          	slli	a1,a1,0x2
    80000054:	0000f797          	auipc	a5,0xf
    80000058:	3a478793          	addi	a5,a5,932 # 8000f3f8 <_bss_start>
    8000005c:	00b785b3          	add	a1,a5,a1
    80000060:	00e5a023          	sw	a4,0(a1)
    80000064:	00008067          	ret

0000000080000068 <fce_load_rom>:
    80000068:	fc010113          	addi	sp,sp,-64
    8000006c:	01050713          	addi	a4,a0,16
    80000070:	00400613          	li	a2,4
    80000074:	00004597          	auipc	a1,0x4
    80000078:	5fc58593          	addi	a1,a1,1532 # 80004670 <_etext+0x4>
    8000007c:	02113c23          	sd	ra,56(sp)
    80000080:	02813823          	sd	s0,48(sp)
    80000084:	02913423          	sd	s1,40(sp)
    80000088:	03213023          	sd	s2,32(sp)
    8000008c:	01313c23          	sd	s3,24(sp)
    80000090:	01413823          	sd	s4,16(sp)
    80000094:	01513423          	sd	s5,8(sp)
    80000098:	00163697          	auipc	a3,0x163
    8000009c:	c2e6b023          	sd	a4,-992(a3) # 80162cb8 <buf>
    800000a0:	00163717          	auipc	a4,0x163
    800000a4:	c2a73023          	sd	a0,-992(a4) # 80162cc0 <fce_rom_header>
    800000a8:	2e0040ef          	jal	ra,80004388 <memcmp>
    800000ac:	0e051c63          	bnez	a0,800001a4 <fce_load_rom+0x13c>
    800000b0:	00163917          	auipc	s2,0x163
    800000b4:	c1090913          	addi	s2,s2,-1008 # 80162cc0 <fce_rom_header>
    800000b8:	00093703          	ld	a4,0(s2)
    800000bc:	00163997          	auipc	s3,0x163
    800000c0:	bfc98993          	addi	s3,s3,-1028 # 80162cb8 <buf>
    800000c4:	0009b403          	ld	s0,0(s3)
    800000c8:	00675783          	lhu	a5,6(a4)
    800000cc:	00474683          	lbu	a3,4(a4)
    800000d0:	00050a93          	mv	s5,a0
    800000d4:	4047d79b          	sraiw	a5,a5,0x4
    800000d8:	00e69713          	slli	a4,a3,0xe
    800000dc:	00f7f793          	andi	a5,a5,15
    800000e0:	00e40733          	add	a4,s0,a4
    800000e4:	0017b617          	auipc	a2,0x17b
    800000e8:	c2f60223          	sb	a5,-988(a2) # 8017ad08 <mmc_id>
    800000ec:	00163617          	auipc	a2,0x163
    800000f0:	bce63623          	sd	a4,-1076(a2) # 80162cb8 <buf>
    800000f4:	0a079463          	bnez	a5,8000019c <fce_load_rom+0x134>
    800000f8:	00100793          	li	a5,1
    800000fc:	0af68863          	beq	a3,a5,800001ac <fce_load_rom+0x144>
    80000100:	00008637          	lui	a2,0x8
    80000104:	00040593          	mv	a1,s0
    80000108:	00008537          	lui	a0,0x8
    8000010c:	0c4030ef          	jal	ra,800031d0 <mmc_copy>
    80000110:	00093783          	ld	a5,0(s2)
    80000114:	00000413          	li	s0,0
    80000118:	00002a37          	lui	s4,0x2
    8000011c:	0057c783          	lbu	a5,5(a5)
    80000120:	00079c63          	bnez	a5,80000138 <fce_load_rom+0xd0>
    80000124:	0500006f          	j	80000174 <fce_load_rom+0x10c>
    80000128:	00093783          	ld	a5,0(s2)
    8000012c:	0014041b          	addiw	s0,s0,1
    80000130:	0057c783          	lbu	a5,5(a5)
    80000134:	04f45063          	ble	a5,s0,80000174 <fce_load_rom+0x10c>
    80000138:	0009b483          	ld	s1,0(s3)
    8000013c:	014487b3          	add	a5,s1,s4
    80000140:	00048513          	mv	a0,s1
    80000144:	00163717          	auipc	a4,0x163
    80000148:	b6f73a23          	sd	a5,-1164(a4) # 80162cb8 <buf>
    8000014c:	094030ef          	jal	ra,800031e0 <mmc_append_chr_rom_page>
    80000150:	fc041ce3          	bnez	s0,80000128 <fce_load_rom+0xc0>
    80000154:	00002637          	lui	a2,0x2
    80000158:	00048593          	mv	a1,s1
    8000015c:	00000513          	li	a0,0
    80000160:	23d030ef          	jal	ra,80003b9c <ppu_copy>
    80000164:	00093783          	ld	a5,0(s2)
    80000168:	0014041b          	addiw	s0,s0,1
    8000016c:	0057c783          	lbu	a5,5(a5)
    80000170:	fcf444e3          	blt	s0,a5,80000138 <fce_load_rom+0xd0>
    80000174:	03813083          	ld	ra,56(sp)
    80000178:	03013403          	ld	s0,48(sp)
    8000017c:	000a8513          	mv	a0,s5
    80000180:	02813483          	ld	s1,40(sp)
    80000184:	02013903          	ld	s2,32(sp)
    80000188:	01813983          	ld	s3,24(sp)
    8000018c:	01013a03          	ld	s4,16(sp)
    80000190:	00813a83          	ld	s5,8(sp)
    80000194:	04010113          	addi	sp,sp,64
    80000198:	00008067          	ret
    8000019c:	00300713          	li	a4,3
    800001a0:	f4e78ce3          	beq	a5,a4,800000f8 <fce_load_rom+0x90>
    800001a4:	fff00a93          	li	s5,-1
    800001a8:	fcdff06f          	j	80000174 <fce_load_rom+0x10c>
    800001ac:	00040593          	mv	a1,s0
    800001b0:	00004637          	lui	a2,0x4
    800001b4:	00008537          	lui	a0,0x8
    800001b8:	018030ef          	jal	ra,800031d0 <mmc_copy>
    800001bc:	00004637          	lui	a2,0x4
    800001c0:	00040593          	mv	a1,s0
    800001c4:	0000c537          	lui	a0,0xc
    800001c8:	008030ef          	jal	ra,800031d0 <mmc_copy>
    800001cc:	f45ff06f          	j	80000110 <fce_load_rom+0xa8>

00000000800001d0 <fce_init>:
    800001d0:	ff010113          	addi	sp,sp,-16
    800001d4:	00113423          	sd	ra,8(sp)
    800001d8:	680010ef          	jal	ra,80001858 <cpu_init>
    800001dc:	575030ef          	jal	ra,80003f50 <ppu_init>
    800001e0:	00163797          	auipc	a5,0x163
    800001e4:	ae078793          	addi	a5,a5,-1312 # 80162cc0 <fce_rom_header>
    800001e8:	0007b783          	ld	a5,0(a5)
    800001ec:	0067c503          	lbu	a0,6(a5)
    800001f0:	00157513          	andi	a0,a0,1
    800001f4:	675030ef          	jal	ra,80004068 <ppu_set_mirroring>
    800001f8:	00813083          	ld	ra,8(sp)
    800001fc:	01010113          	addi	sp,sp,16
    80000200:	55c0206f          	j	8000275c <cpu_reset>

0000000080000204 <wait_for_frame>:
    80000204:	fd010113          	addi	sp,sp,-48
    80000208:	00810593          	addi	a1,sp,8
    8000020c:	00600513          	li	a0,6
    80000210:	02813023          	sd	s0,32(sp)
    80000214:	02113423          	sd	ra,40(sp)
    80000218:	00913c23          	sd	s1,24(sp)
    8000021c:	01213823          	sd	s2,16(sp)
    80000220:	791030ef          	jal	ra,800041b0 <ioe_read>
    80000224:	00813783          	ld	a5,8(sp)
    80000228:	3e800713          	li	a4,1000
    8000022c:	00163417          	auipc	s0,0x163
    80000230:	aa040413          	addi	s0,s0,-1376 # 80162ccc <gtime>
    80000234:	02e7d7b3          	divu	a5,a5,a4
    80000238:	00042703          	lw	a4,0(s0)
    8000023c:	00f00693          	li	a3,15
    80000240:	0007879b          	sext.w	a5,a5
    80000244:	40e7873b          	subw	a4,a5,a4
    80000248:	02e6c863          	blt	a3,a4,80000278 <wait_for_frame+0x74>
    8000024c:	3e800913          	li	s2,1000
    80000250:	00f00493          	li	s1,15
    80000254:	00810593          	addi	a1,sp,8
    80000258:	00600513          	li	a0,6
    8000025c:	755030ef          	jal	ra,800041b0 <ioe_read>
    80000260:	00813783          	ld	a5,8(sp)
    80000264:	00042703          	lw	a4,0(s0)
    80000268:	0327d7b3          	divu	a5,a5,s2
    8000026c:	0007879b          	sext.w	a5,a5
    80000270:	40e7873b          	subw	a4,a5,a4
    80000274:	fee4d0e3          	ble	a4,s1,80000254 <wait_for_frame+0x50>
    80000278:	02813083          	ld	ra,40(sp)
    8000027c:	02013403          	ld	s0,32(sp)
    80000280:	00163717          	auipc	a4,0x163
    80000284:	a4f72623          	sw	a5,-1460(a4) # 80162ccc <gtime>
    80000288:	01813483          	ld	s1,24(sp)
    8000028c:	01013903          	ld	s2,16(sp)
    80000290:	03010113          	addi	sp,sp,48
    80000294:	00008067          	ret

0000000080000298 <fce_run>:
    80000298:	fa010113          	addi	sp,sp,-96
    8000029c:	00810593          	addi	a1,sp,8
    800002a0:	00600513          	li	a0,6
    800002a4:	03313c23          	sd	s3,56(sp)
    800002a8:	03513423          	sd	s5,40(sp)
    800002ac:	03613023          	sd	s6,32(sp)
    800002b0:	01713c23          	sd	s7,24(sp)
    800002b4:	04113c23          	sd	ra,88(sp)
    800002b8:	04813823          	sd	s0,80(sp)
    800002bc:	04913423          	sd	s1,72(sp)
    800002c0:	05213023          	sd	s2,64(sp)
    800002c4:	03413823          	sd	s4,48(sp)
    800002c8:	6e9030ef          	jal	ra,800041b0 <ioe_read>
    800002cc:	00813a83          	ld	s5,8(sp)
    800002d0:	3e800793          	li	a5,1000
    800002d4:	3e800993          	li	s3,1000
    800002d8:	02fadab3          	divu	s5,s5,a5
    800002dc:	3e800b93          	li	s7,1000
    800002e0:	00004b17          	auipc	s6,0x4
    800002e4:	398b0b13          	addi	s6,s6,920 # 80004678 <_etext+0xc>
    800002e8:	00163797          	auipc	a5,0x163
    800002ec:	9f57a223          	sw	s5,-1564(a5) # 80162ccc <gtime>
    800002f0:	000a8a9b          	sext.w	s5,s5
    800002f4:	00000913          	li	s2,0
    800002f8:	f0dff0ef          	jal	ra,80000204 <wait_for_frame>
    800002fc:	10600413          	li	s0,262
    80000300:	fff4041b          	addiw	s0,s0,-1
    80000304:	738030ef          	jal	ra,80003a3c <ppu_cycle>
    80000308:	7d5020ef          	jal	ra,800032dc <psg_detect_key>
    8000030c:	fe041ae3          	bnez	s0,80000300 <fce_run+0x68>
    80000310:	00810593          	addi	a1,sp,8
    80000314:	00600513          	li	a0,6
    80000318:	699030ef          	jal	ra,800041b0 <ioe_read>
    8000031c:	00813483          	ld	s1,8(sp)
    80000320:	0019091b          	addiw	s2,s2,1
    80000324:	0334d4b3          	divu	s1,s1,s3
    80000328:	00048a1b          	sext.w	s4,s1
    8000032c:	415a07bb          	subw	a5,s4,s5
    80000330:	fcf9f4e3          	bleu	a5,s3,800002f8 <fce_run+0x60>
    80000334:	05000413          	li	s0,80
    80000338:	fff4041b          	addiw	s0,s0,-1
    8000033c:	00800513          	li	a0,8
    80000340:	545030ef          	jal	ra,80004084 <putch>
    80000344:	fe041ae3          	bnez	s0,80000338 <fce_run+0xa0>
    80000348:	0374c5bb          	divw	a1,s1,s7
    8000034c:	00090613          	mv	a2,s2
    80000350:	000b0513          	mv	a0,s6
    80000354:	000a0a9b          	sext.w	s5,s4
    80000358:	19c040ef          	jal	ra,800044f4 <printf>
    8000035c:	f99ff06f          	j	800002f4 <fce_run+0x5c>

0000000080000360 <fce_update_screen>:
    80000360:	00163797          	auipc	a5,0x163
    80000364:	96878793          	addi	a5,a5,-1688 # 80162cc8 <frame_cnt>
    80000368:	0007a783          	lw	a5,0(a5)
    8000036c:	0017879b          	addiw	a5,a5,1
    80000370:	00163717          	auipc	a4,0x163
    80000374:	94f72c23          	sw	a5,-1704(a4) # 80162cc8 <frame_cnt>
    80000378:	0017f793          	andi	a5,a5,1
    8000037c:	00078463          	beqz	a5,80000384 <fce_update_screen+0x24>
    80000380:	00008067          	ret
    80000384:	00004537          	lui	a0,0x4
    80000388:	fc010113          	addi	sp,sp,-64
    8000038c:	f0050513          	addi	a0,a0,-256 # 3f00 <_entry_offset+0x3f00>
    80000390:	02113c23          	sd	ra,56(sp)
    80000394:	02913423          	sd	s1,40(sp)
    80000398:	02813823          	sd	s0,48(sp)
    8000039c:	7e9020ef          	jal	ra,80003384 <ppu_ram_read>
    800003a0:	0005071b          	sext.w	a4,a0
    800003a4:	00271713          	slli	a4,a4,0x2
    800003a8:	00004797          	auipc	a5,0x4
    800003ac:	37878793          	addi	a5,a5,888 # 80004720 <palette>
    800003b0:	00e787b3          	add	a5,a5,a4
    800003b4:	00010593          	mv	a1,sp
    800003b8:	00900513          	li	a0,9
    800003bc:	0007a483          	lw	s1,0(a5)
    800003c0:	5f1030ef          	jal	ra,800041b0 <ioe_read>
    800003c4:	00412703          	lw	a4,4(sp)
    800003c8:	00812783          	lw	a5,8(sp)
    800003cc:	f007061b          	addiw	a2,a4,-256
    800003d0:	f107869b          	addiw	a3,a5,-240
    800003d4:	01f6571b          	srliw	a4,a2,0x1f
    800003d8:	01f6d79b          	srliw	a5,a3,0x1f
    800003dc:	00c7073b          	addw	a4,a4,a2
    800003e0:	00d787bb          	addw	a5,a5,a3
    800003e4:	4017571b          	sraiw	a4,a4,0x1
    800003e8:	4017d69b          	sraiw	a3,a5,0x1
    800003ec:	02071613          	slli	a2,a4,0x20
    800003f0:	00068793          	mv	a5,a3
    800003f4:	06064663          	bltz	a2,80000460 <fce_update_screen+0x100>
    800003f8:	0606c463          	bltz	a3,80000460 <fce_update_screen+0x100>
    800003fc:	00f00693          	li	a3,15
    80000400:	00f12223          	sw	a5,4(sp)
    80000404:	02469793          	slli	a5,a3,0x24
    80000408:	10078793          	addi	a5,a5,256
    8000040c:	0000f417          	auipc	s0,0xf
    80000410:	fec40413          	addi	s0,s0,-20 # 8000f3f8 <_bss_start>
    80000414:	00f13823          	sd	a5,16(sp)
    80000418:	00010593          	mv	a1,sp
    8000041c:	00100793          	li	a5,1
    80000420:	00b00513          	li	a0,11
    80000424:	00e12023          	sw	a4,0(sp)
    80000428:	00f10c23          	sb	a5,24(sp)
    8000042c:	00813423          	sd	s0,8(sp)
    80000430:	59d030ef          	jal	ra,800041cc <ioe_write>
    80000434:	00040793          	mv	a5,s0
    80000438:	0004b717          	auipc	a4,0x4b
    8000043c:	fc070713          	addi	a4,a4,-64 # 8004b3f8 <cpu_op_address_mode>
    80000440:	0097a023          	sw	s1,0(a5)
    80000444:	00478793          	addi	a5,a5,4
    80000448:	fef71ce3          	bne	a4,a5,80000440 <fce_update_screen+0xe0>
    8000044c:	03813083          	ld	ra,56(sp)
    80000450:	03013403          	ld	s0,48(sp)
    80000454:	02813483          	ld	s1,40(sp)
    80000458:	04010113          	addi	sp,sp,64
    8000045c:	00008067          	ret
    80000460:	00004417          	auipc	s0,0x4
    80000464:	23840413          	addi	s0,s0,568 # 80004698 <_etext+0x2c>
    80000468:	04100513          	li	a0,65
    8000046c:	00140413          	addi	s0,s0,1
    80000470:	415030ef          	jal	ra,80004084 <putch>
    80000474:	00044503          	lbu	a0,0(s0)
    80000478:	fe051ae3          	bnez	a0,8000046c <fce_update_screen+0x10c>
    8000047c:	00004417          	auipc	s0,0x4
    80000480:	22c40413          	addi	s0,s0,556 # 800046a8 <_etext+0x3c>
    80000484:	07300513          	li	a0,115
    80000488:	00140413          	addi	s0,s0,1
    8000048c:	3f9030ef          	jal	ra,80004084 <putch>
    80000490:	00044503          	lbu	a0,0(s0)
    80000494:	fe051ae3          	bnez	a0,80000488 <fce_update_screen+0x128>
    80000498:	00004417          	auipc	s0,0x4
    8000049c:	22840413          	addi	s0,s0,552 # 800046c0 <_etext+0x54>
    800004a0:	02000513          	li	a0,32
    800004a4:	00140413          	addi	s0,s0,1
    800004a8:	3dd030ef          	jal	ra,80004084 <putch>
    800004ac:	00044503          	lbu	a0,0(s0)
    800004b0:	fe051ae3          	bnez	a0,800004a4 <fce_update_screen+0x144>
    800004b4:	00100513          	li	a0,1
    800004b8:	3dd030ef          	jal	ra,80004094 <halt>

00000000800004bc <____FE____>:
    800004bc:	00008067          	ret

00000000800004c0 <cpu_op_and>:
    800004c0:	00163717          	auipc	a4,0x163
    800004c4:	83870713          	addi	a4,a4,-1992 # 80162cf8 <cpu>
    800004c8:	00374783          	lbu	a5,3(a4)
    800004cc:	00163697          	auipc	a3,0x163
    800004d0:	8246c683          	lbu	a3,-2012(a3) # 80162cf0 <op_value>
    800004d4:	00004617          	auipc	a2,0x4
    800004d8:	34c60613          	addi	a2,a2,844 # 80004820 <cpu_zn_flag_table>
    800004dc:	00f6f6b3          	and	a3,a3,a5
    800004e0:	00d60633          	add	a2,a2,a3
    800004e4:	00674783          	lbu	a5,6(a4)
    800004e8:	00064603          	lbu	a2,0(a2)
    800004ec:	00d701a3          	sb	a3,3(a4)
    800004f0:	07d7f793          	andi	a5,a5,125
    800004f4:	00c7e7b3          	or	a5,a5,a2
    800004f8:	00f70323          	sb	a5,6(a4)
    800004fc:	00008067          	ret

0000000080000500 <cpu_op_eor>:
    80000500:	00162717          	auipc	a4,0x162
    80000504:	7f870713          	addi	a4,a4,2040 # 80162cf8 <cpu>
    80000508:	00374783          	lbu	a5,3(a4)
    8000050c:	00162697          	auipc	a3,0x162
    80000510:	7e46c683          	lbu	a3,2020(a3) # 80162cf0 <op_value>
    80000514:	00004617          	auipc	a2,0x4
    80000518:	30c60613          	addi	a2,a2,780 # 80004820 <cpu_zn_flag_table>
    8000051c:	00f6c6b3          	xor	a3,a3,a5
    80000520:	00d60633          	add	a2,a2,a3
    80000524:	00674783          	lbu	a5,6(a4)
    80000528:	00064603          	lbu	a2,0(a2)
    8000052c:	00d701a3          	sb	a3,3(a4)
    80000530:	07d7f793          	andi	a5,a5,125
    80000534:	00c7e7b3          	or	a5,a5,a2
    80000538:	00f70323          	sb	a5,6(a4)
    8000053c:	00008067          	ret

0000000080000540 <cpu_op_ora>:
    80000540:	00162717          	auipc	a4,0x162
    80000544:	7b870713          	addi	a4,a4,1976 # 80162cf8 <cpu>
    80000548:	00374783          	lbu	a5,3(a4)
    8000054c:	00162697          	auipc	a3,0x162
    80000550:	7a46c683          	lbu	a3,1956(a3) # 80162cf0 <op_value>
    80000554:	00004617          	auipc	a2,0x4
    80000558:	2cc60613          	addi	a2,a2,716 # 80004820 <cpu_zn_flag_table>
    8000055c:	00f6e6b3          	or	a3,a3,a5
    80000560:	00d60633          	add	a2,a2,a3
    80000564:	00674783          	lbu	a5,6(a4)
    80000568:	00064603          	lbu	a2,0(a2)
    8000056c:	00d701a3          	sb	a3,3(a4)
    80000570:	07d7f793          	andi	a5,a5,125
    80000574:	00c7e7b3          	or	a5,a5,a2
    80000578:	00f70323          	sb	a5,6(a4)
    8000057c:	00008067          	ret

0000000080000580 <cpu_op_lda>:
    80000580:	00162797          	auipc	a5,0x162
    80000584:	77078793          	addi	a5,a5,1904 # 80162cf0 <op_value>
    80000588:	0007a603          	lw	a2,0(a5)
    8000058c:	00162717          	auipc	a4,0x162
    80000590:	76c70713          	addi	a4,a4,1900 # 80162cf8 <cpu>
    80000594:	00004697          	auipc	a3,0x4
    80000598:	28c68693          	addi	a3,a3,652 # 80004820 <cpu_zn_flag_table>
    8000059c:	0ff67593          	andi	a1,a2,255
    800005a0:	00674783          	lbu	a5,6(a4)
    800005a4:	00b686b3          	add	a3,a3,a1
    800005a8:	0006c683          	lbu	a3,0(a3)
    800005ac:	07d7f793          	andi	a5,a5,125
    800005b0:	00c701a3          	sb	a2,3(a4)
    800005b4:	00d7e7b3          	or	a5,a5,a3
    800005b8:	00f70323          	sb	a5,6(a4)
    800005bc:	00008067          	ret

00000000800005c0 <cpu_op_ldx>:
    800005c0:	00162797          	auipc	a5,0x162
    800005c4:	73078793          	addi	a5,a5,1840 # 80162cf0 <op_value>
    800005c8:	0007a603          	lw	a2,0(a5)
    800005cc:	00162717          	auipc	a4,0x162
    800005d0:	72c70713          	addi	a4,a4,1836 # 80162cf8 <cpu>
    800005d4:	00004697          	auipc	a3,0x4
    800005d8:	24c68693          	addi	a3,a3,588 # 80004820 <cpu_zn_flag_table>
    800005dc:	0ff67593          	andi	a1,a2,255
    800005e0:	00674783          	lbu	a5,6(a4)
    800005e4:	00b686b3          	add	a3,a3,a1
    800005e8:	0006c683          	lbu	a3,0(a3)
    800005ec:	07d7f793          	andi	a5,a5,125
    800005f0:	00c70223          	sb	a2,4(a4)
    800005f4:	00d7e7b3          	or	a5,a5,a3
    800005f8:	00f70323          	sb	a5,6(a4)
    800005fc:	00008067          	ret

0000000080000600 <cpu_op_ldy>:
    80000600:	00162797          	auipc	a5,0x162
    80000604:	6f078793          	addi	a5,a5,1776 # 80162cf0 <op_value>
    80000608:	0007a603          	lw	a2,0(a5)
    8000060c:	00162717          	auipc	a4,0x162
    80000610:	6ec70713          	addi	a4,a4,1772 # 80162cf8 <cpu>
    80000614:	00004697          	auipc	a3,0x4
    80000618:	20c68693          	addi	a3,a3,524 # 80004820 <cpu_zn_flag_table>
    8000061c:	0ff67593          	andi	a1,a2,255
    80000620:	00674783          	lbu	a5,6(a4)
    80000624:	00b686b3          	add	a3,a3,a1
    80000628:	0006c683          	lbu	a3,0(a3)
    8000062c:	07d7f793          	andi	a5,a5,125
    80000630:	00c702a3          	sb	a2,5(a4)
    80000634:	00d7e7b3          	or	a5,a5,a3
    80000638:	00f70323          	sb	a5,6(a4)
    8000063c:	00008067          	ret

0000000080000640 <cpu_op_tax>:
    80000640:	00162717          	auipc	a4,0x162
    80000644:	6b870713          	addi	a4,a4,1720 # 80162cf8 <cpu>
    80000648:	00374603          	lbu	a2,3(a4)
    8000064c:	00004697          	auipc	a3,0x4
    80000650:	1d468693          	addi	a3,a3,468 # 80004820 <cpu_zn_flag_table>
    80000654:	00674783          	lbu	a5,6(a4)
    80000658:	00c686b3          	add	a3,a3,a2
    8000065c:	0006c683          	lbu	a3,0(a3)
    80000660:	07d7f793          	andi	a5,a5,125
    80000664:	00c70223          	sb	a2,4(a4)
    80000668:	00d7e7b3          	or	a5,a5,a3
    8000066c:	00f70323          	sb	a5,6(a4)
    80000670:	00008067          	ret

0000000080000674 <cpu_op_txa>:
    80000674:	00162717          	auipc	a4,0x162
    80000678:	68470713          	addi	a4,a4,1668 # 80162cf8 <cpu>
    8000067c:	00474603          	lbu	a2,4(a4)
    80000680:	00004697          	auipc	a3,0x4
    80000684:	1a068693          	addi	a3,a3,416 # 80004820 <cpu_zn_flag_table>
    80000688:	00674783          	lbu	a5,6(a4)
    8000068c:	00c686b3          	add	a3,a3,a2
    80000690:	0006c683          	lbu	a3,0(a3)
    80000694:	07d7f793          	andi	a5,a5,125
    80000698:	00c701a3          	sb	a2,3(a4)
    8000069c:	00d7e7b3          	or	a5,a5,a3
    800006a0:	00f70323          	sb	a5,6(a4)
    800006a4:	00008067          	ret

00000000800006a8 <cpu_op_tay>:
    800006a8:	00162717          	auipc	a4,0x162
    800006ac:	65070713          	addi	a4,a4,1616 # 80162cf8 <cpu>
    800006b0:	00374603          	lbu	a2,3(a4)
    800006b4:	00004697          	auipc	a3,0x4
    800006b8:	16c68693          	addi	a3,a3,364 # 80004820 <cpu_zn_flag_table>
    800006bc:	00674783          	lbu	a5,6(a4)
    800006c0:	00c686b3          	add	a3,a3,a2
    800006c4:	0006c683          	lbu	a3,0(a3)
    800006c8:	07d7f793          	andi	a5,a5,125
    800006cc:	00c702a3          	sb	a2,5(a4)
    800006d0:	00d7e7b3          	or	a5,a5,a3
    800006d4:	00f70323          	sb	a5,6(a4)
    800006d8:	00008067          	ret

00000000800006dc <cpu_op_tya>:
    800006dc:	00162717          	auipc	a4,0x162
    800006e0:	61c70713          	addi	a4,a4,1564 # 80162cf8 <cpu>
    800006e4:	00574603          	lbu	a2,5(a4)
    800006e8:	00004697          	auipc	a3,0x4
    800006ec:	13868693          	addi	a3,a3,312 # 80004820 <cpu_zn_flag_table>
    800006f0:	00674783          	lbu	a5,6(a4)
    800006f4:	00c686b3          	add	a3,a3,a2
    800006f8:	0006c683          	lbu	a3,0(a3)
    800006fc:	07d7f793          	andi	a5,a5,125
    80000700:	00c701a3          	sb	a2,3(a4)
    80000704:	00d7e7b3          	or	a5,a5,a3
    80000708:	00f70323          	sb	a5,6(a4)
    8000070c:	00008067          	ret

0000000080000710 <cpu_op_tsx>:
    80000710:	00162717          	auipc	a4,0x162
    80000714:	5e870713          	addi	a4,a4,1512 # 80162cf8 <cpu>
    80000718:	00274603          	lbu	a2,2(a4)
    8000071c:	00004697          	auipc	a3,0x4
    80000720:	10468693          	addi	a3,a3,260 # 80004820 <cpu_zn_flag_table>
    80000724:	00674783          	lbu	a5,6(a4)
    80000728:	00c686b3          	add	a3,a3,a2
    8000072c:	0006c683          	lbu	a3,0(a3)
    80000730:	07d7f793          	andi	a5,a5,125
    80000734:	00c70223          	sb	a2,4(a4)
    80000738:	00d7e7b3          	or	a5,a5,a3
    8000073c:	00f70323          	sb	a5,6(a4)
    80000740:	00008067          	ret

0000000080000744 <cpu_op_txs>:
    80000744:	00162797          	auipc	a5,0x162
    80000748:	5b478793          	addi	a5,a5,1460 # 80162cf8 <cpu>
    8000074c:	0047c703          	lbu	a4,4(a5)
    80000750:	00e78123          	sb	a4,2(a5)
    80000754:	00008067          	ret

0000000080000758 <cpu_op_jmp>:
    80000758:	00162797          	auipc	a5,0x162
    8000075c:	59c78793          	addi	a5,a5,1436 # 80162cf4 <op_address>
    80000760:	0007a783          	lw	a5,0(a5)
    80000764:	00162717          	auipc	a4,0x162
    80000768:	58f71a23          	sh	a5,1428(a4) # 80162cf8 <cpu>
    8000076c:	00008067          	ret

0000000080000770 <cpu_op_inx>:
    80000770:	00162697          	auipc	a3,0x162
    80000774:	58868693          	addi	a3,a3,1416 # 80162cf8 <cpu>
    80000778:	0046c783          	lbu	a5,4(a3)
    8000077c:	00004617          	auipc	a2,0x4
    80000780:	0a460613          	addi	a2,a2,164 # 80004820 <cpu_zn_flag_table>
    80000784:	0066c703          	lbu	a4,6(a3)
    80000788:	0017879b          	addiw	a5,a5,1
    8000078c:	0ff7f793          	andi	a5,a5,255
    80000790:	00f60633          	add	a2,a2,a5
    80000794:	00064603          	lbu	a2,0(a2)
    80000798:	07d77713          	andi	a4,a4,125
    8000079c:	00f68223          	sb	a5,4(a3)
    800007a0:	00c767b3          	or	a5,a4,a2
    800007a4:	00f68323          	sb	a5,6(a3)
    800007a8:	00008067          	ret

00000000800007ac <cpu_op_iny>:
    800007ac:	00162697          	auipc	a3,0x162
    800007b0:	54c68693          	addi	a3,a3,1356 # 80162cf8 <cpu>
    800007b4:	0056c783          	lbu	a5,5(a3)
    800007b8:	00004617          	auipc	a2,0x4
    800007bc:	06860613          	addi	a2,a2,104 # 80004820 <cpu_zn_flag_table>
    800007c0:	0066c703          	lbu	a4,6(a3)
    800007c4:	0017879b          	addiw	a5,a5,1
    800007c8:	0ff7f793          	andi	a5,a5,255
    800007cc:	00f60633          	add	a2,a2,a5
    800007d0:	00064603          	lbu	a2,0(a2)
    800007d4:	07d77713          	andi	a4,a4,125
    800007d8:	00f682a3          	sb	a5,5(a3)
    800007dc:	00c767b3          	or	a5,a4,a2
    800007e0:	00f68323          	sb	a5,6(a3)
    800007e4:	00008067          	ret

00000000800007e8 <cpu_op_dex>:
    800007e8:	00162697          	auipc	a3,0x162
    800007ec:	51068693          	addi	a3,a3,1296 # 80162cf8 <cpu>
    800007f0:	0046c783          	lbu	a5,4(a3)
    800007f4:	00004617          	auipc	a2,0x4
    800007f8:	02c60613          	addi	a2,a2,44 # 80004820 <cpu_zn_flag_table>
    800007fc:	0066c703          	lbu	a4,6(a3)
    80000800:	fff7879b          	addiw	a5,a5,-1
    80000804:	0ff7f793          	andi	a5,a5,255
    80000808:	00f60633          	add	a2,a2,a5
    8000080c:	00064603          	lbu	a2,0(a2)
    80000810:	07d77713          	andi	a4,a4,125
    80000814:	00f68223          	sb	a5,4(a3)
    80000818:	00c767b3          	or	a5,a4,a2
    8000081c:	00f68323          	sb	a5,6(a3)
    80000820:	00008067          	ret

0000000080000824 <cpu_op_dey>:
    80000824:	00162697          	auipc	a3,0x162
    80000828:	4d468693          	addi	a3,a3,1236 # 80162cf8 <cpu>
    8000082c:	0056c783          	lbu	a5,5(a3)
    80000830:	00004617          	auipc	a2,0x4
    80000834:	ff060613          	addi	a2,a2,-16 # 80004820 <cpu_zn_flag_table>
    80000838:	0066c703          	lbu	a4,6(a3)
    8000083c:	fff7879b          	addiw	a5,a5,-1
    80000840:	0ff7f793          	andi	a5,a5,255
    80000844:	00f60633          	add	a2,a2,a5
    80000848:	00064603          	lbu	a2,0(a2)
    8000084c:	07d77713          	andi	a4,a4,125
    80000850:	00f682a3          	sb	a5,5(a3)
    80000854:	00c767b3          	or	a5,a4,a2
    80000858:	00f68323          	sb	a5,6(a3)
    8000085c:	00008067          	ret

0000000080000860 <cpu_op_lax>:
    80000860:	00162797          	auipc	a5,0x162
    80000864:	49078793          	addi	a5,a5,1168 # 80162cf0 <op_value>
    80000868:	0007a703          	lw	a4,0(a5)
    8000086c:	00162697          	auipc	a3,0x162
    80000870:	48c68693          	addi	a3,a3,1164 # 80162cf8 <cpu>
    80000874:	00004617          	auipc	a2,0x4
    80000878:	fac60613          	addi	a2,a2,-84 # 80004820 <cpu_zn_flag_table>
    8000087c:	0ff77593          	andi	a1,a4,255
    80000880:	0066c783          	lbu	a5,6(a3)
    80000884:	00b60633          	add	a2,a2,a1
    80000888:	00064603          	lbu	a2,0(a2)
    8000088c:	07d7f793          	andi	a5,a5,125
    80000890:	00b68223          	sb	a1,4(a3)
    80000894:	00c7e7b3          	or	a5,a5,a2
    80000898:	00b681a3          	sb	a1,3(a3)
    8000089c:	00f68323          	sb	a5,6(a3)
    800008a0:	00008067          	ret

00000000800008a4 <cpu_op_rts>:
    800008a4:	ff010113          	addi	sp,sp,-16
    800008a8:	00813023          	sd	s0,0(sp)
    800008ac:	00113423          	sd	ra,8(sp)
    800008b0:	00162417          	auipc	s0,0x162
    800008b4:	44840413          	addi	s0,s0,1096 # 80162cf8 <cpu>
    800008b8:	00244783          	lbu	a5,2(s0)
    800008bc:	0027879b          	addiw	a5,a5,2
    800008c0:	0ff7f793          	andi	a5,a5,255
    800008c4:	0ff78513          	addi	a0,a5,255
    800008c8:	00f40123          	sb	a5,2(s0)
    800008cc:	210020ef          	jal	ra,80002adc <memory_readw>
    800008d0:	0015051b          	addiw	a0,a0,1
    800008d4:	00a41023          	sh	a0,0(s0)
    800008d8:	00813083          	ld	ra,8(sp)
    800008dc:	00013403          	ld	s0,0(sp)
    800008e0:	01010113          	addi	sp,sp,16
    800008e4:	00008067          	ret

00000000800008e8 <cpu_op_sta>:
    800008e8:	00162597          	auipc	a1,0x162
    800008ec:	4135c583          	lbu	a1,1043(a1) # 80162cfb <cpu+0x3>
    800008f0:	00162517          	auipc	a0,0x162
    800008f4:	40455503          	lhu	a0,1028(a0) # 80162cf4 <op_address>
    800008f8:	13c0206f          	j	80002a34 <memory_writeb>

00000000800008fc <cpu_op_stx>:
    800008fc:	00162597          	auipc	a1,0x162
    80000900:	4005c583          	lbu	a1,1024(a1) # 80162cfc <cpu+0x4>
    80000904:	00162517          	auipc	a0,0x162
    80000908:	3f055503          	lhu	a0,1008(a0) # 80162cf4 <op_address>
    8000090c:	1280206f          	j	80002a34 <memory_writeb>

0000000080000910 <cpu_op_sty>:
    80000910:	00162597          	auipc	a1,0x162
    80000914:	3ed5c583          	lbu	a1,1005(a1) # 80162cfd <cpu+0x5>
    80000918:	00162517          	auipc	a0,0x162
    8000091c:	3dc55503          	lhu	a0,988(a0) # 80162cf4 <op_address>
    80000920:	1140206f          	j	80002a34 <memory_writeb>

0000000080000924 <cpu_op_inc>:
    80000924:	ff010113          	addi	sp,sp,-16
    80000928:	00162797          	auipc	a5,0x162
    8000092c:	3c878793          	addi	a5,a5,968 # 80162cf0 <op_value>
    80000930:	00813023          	sd	s0,0(sp)
    80000934:	0007a403          	lw	s0,0(a5)
    80000938:	00162517          	auipc	a0,0x162
    8000093c:	3bc55503          	lhu	a0,956(a0) # 80162cf4 <op_address>
    80000940:	00113423          	sd	ra,8(sp)
    80000944:	0014041b          	addiw	s0,s0,1
    80000948:	0ff47413          	andi	s0,s0,255
    8000094c:	00040593          	mv	a1,s0
    80000950:	0e4020ef          	jal	ra,80002a34 <memory_writeb>
    80000954:	00162697          	auipc	a3,0x162
    80000958:	3a468693          	addi	a3,a3,932 # 80162cf8 <cpu>
    8000095c:	00004717          	auipc	a4,0x4
    80000960:	ec470713          	addi	a4,a4,-316 # 80004820 <cpu_zn_flag_table>
    80000964:	0066c783          	lbu	a5,6(a3)
    80000968:	00870433          	add	s0,a4,s0
    8000096c:	00044703          	lbu	a4,0(s0)
    80000970:	07d7f793          	andi	a5,a5,125
    80000974:	00e7e7b3          	or	a5,a5,a4
    80000978:	00f68323          	sb	a5,6(a3)
    8000097c:	00813083          	ld	ra,8(sp)
    80000980:	00013403          	ld	s0,0(sp)
    80000984:	01010113          	addi	sp,sp,16
    80000988:	00008067          	ret

000000008000098c <cpu_op_dec>:
    8000098c:	ff010113          	addi	sp,sp,-16
    80000990:	00162797          	auipc	a5,0x162
    80000994:	36078793          	addi	a5,a5,864 # 80162cf0 <op_value>
    80000998:	00813023          	sd	s0,0(sp)
    8000099c:	0007a403          	lw	s0,0(a5)
    800009a0:	00162517          	auipc	a0,0x162
    800009a4:	35455503          	lhu	a0,852(a0) # 80162cf4 <op_address>
    800009a8:	00113423          	sd	ra,8(sp)
    800009ac:	fff4041b          	addiw	s0,s0,-1
    800009b0:	0ff47413          	andi	s0,s0,255
    800009b4:	00040593          	mv	a1,s0
    800009b8:	07c020ef          	jal	ra,80002a34 <memory_writeb>
    800009bc:	00162697          	auipc	a3,0x162
    800009c0:	33c68693          	addi	a3,a3,828 # 80162cf8 <cpu>
    800009c4:	00004717          	auipc	a4,0x4
    800009c8:	e5c70713          	addi	a4,a4,-420 # 80004820 <cpu_zn_flag_table>
    800009cc:	0066c783          	lbu	a5,6(a3)
    800009d0:	00870433          	add	s0,a4,s0
    800009d4:	00044703          	lbu	a4,0(s0)
    800009d8:	07d7f793          	andi	a5,a5,125
    800009dc:	00e7e7b3          	or	a5,a5,a4
    800009e0:	00f68323          	sb	a5,6(a3)
    800009e4:	00813083          	ld	ra,8(sp)
    800009e8:	00013403          	ld	s0,0(sp)
    800009ec:	01010113          	addi	sp,sp,16
    800009f0:	00008067          	ret

00000000800009f4 <cpu_op_axa>:
    800009f4:	00162797          	auipc	a5,0x162
    800009f8:	30478793          	addi	a5,a5,772 # 80162cf8 <cpu>
    800009fc:	00162717          	auipc	a4,0x162
    80000a00:	2f870713          	addi	a4,a4,760 # 80162cf4 <op_address>
    80000a04:	00072503          	lw	a0,0(a4)
    80000a08:	0037c583          	lbu	a1,3(a5)
    80000a0c:	0047c703          	lbu	a4,4(a5)
    80000a10:	4085579b          	sraiw	a5,a0,0x8
    80000a14:	03051513          	slli	a0,a0,0x30
    80000a18:	00e5f5b3          	and	a1,a1,a4
    80000a1c:	00f5f5b3          	and	a1,a1,a5
    80000a20:	03055513          	srli	a0,a0,0x30
    80000a24:	0ff5f593          	andi	a1,a1,255
    80000a28:	00c0206f          	j	80002a34 <memory_writeb>

0000000080000a2c <cpu_op_axs>:
    80000a2c:	00162797          	auipc	a5,0x162
    80000a30:	2cc78793          	addi	a5,a5,716 # 80162cf8 <cpu>
    80000a34:	0047c703          	lbu	a4,4(a5)
    80000a38:	0037c583          	lbu	a1,3(a5)
    80000a3c:	00162517          	auipc	a0,0x162
    80000a40:	2b855503          	lhu	a0,696(a0) # 80162cf4 <op_address>
    80000a44:	00e5f5b3          	and	a1,a1,a4
    80000a48:	7ed0106f          	j	80002a34 <memory_writeb>

0000000080000a4c <cpu_op_php>:
    80000a4c:	00162797          	auipc	a5,0x162
    80000a50:	2ac78793          	addi	a5,a5,684 # 80162cf8 <cpu>
    80000a54:	0067c583          	lbu	a1,6(a5)
    80000a58:	0027c503          	lbu	a0,2(a5)
    80000a5c:	0305e593          	ori	a1,a1,48
    80000a60:	fff5071b          	addiw	a4,a0,-1
    80000a64:	0ff5f593          	andi	a1,a1,255
    80000a68:	10050513          	addi	a0,a0,256
    80000a6c:	00e78123          	sb	a4,2(a5)
    80000a70:	7c50106f          	j	80002a34 <memory_writeb>

0000000080000a74 <cpu_op_pha>:
    80000a74:	00162797          	auipc	a5,0x162
    80000a78:	28478793          	addi	a5,a5,644 # 80162cf8 <cpu>
    80000a7c:	0027c503          	lbu	a0,2(a5)
    80000a80:	0037c583          	lbu	a1,3(a5)
    80000a84:	fff5071b          	addiw	a4,a0,-1
    80000a88:	10050513          	addi	a0,a0,256
    80000a8c:	00e78123          	sb	a4,2(a5)
    80000a90:	7a50106f          	j	80002a34 <memory_writeb>

0000000080000a94 <cpu_op_jsr>:
    80000a94:	ff010113          	addi	sp,sp,-16
    80000a98:	00813023          	sd	s0,0(sp)
    80000a9c:	00162417          	auipc	s0,0x162
    80000aa0:	25c40413          	addi	s0,s0,604 # 80162cf8 <cpu>
    80000aa4:	00045583          	lhu	a1,0(s0)
    80000aa8:	00113423          	sd	ra,8(sp)
    80000aac:	00244503          	lbu	a0,2(s0)
    80000ab0:	fff5859b          	addiw	a1,a1,-1
    80000ab4:	03059593          	slli	a1,a1,0x30
    80000ab8:	0305d593          	srli	a1,a1,0x30
    80000abc:	0ff50513          	addi	a0,a0,255
    80000ac0:	06c020ef          	jal	ra,80002b2c <memory_writew>
    80000ac4:	00244783          	lbu	a5,2(s0)
    80000ac8:	00162717          	auipc	a4,0x162
    80000acc:	22c70713          	addi	a4,a4,556 # 80162cf4 <op_address>
    80000ad0:	00072703          	lw	a4,0(a4)
    80000ad4:	ffe7879b          	addiw	a5,a5,-2
    80000ad8:	00f40123          	sb	a5,2(s0)
    80000adc:	00e41023          	sh	a4,0(s0)
    80000ae0:	00813083          	ld	ra,8(sp)
    80000ae4:	00013403          	ld	s0,0(sp)
    80000ae8:	01010113          	addi	sp,sp,16
    80000aec:	00008067          	ret

0000000080000af0 <cpu_op_brk>:
    80000af0:	ff010113          	addi	sp,sp,-16
    80000af4:	00813023          	sd	s0,0(sp)
    80000af8:	00162417          	auipc	s0,0x162
    80000afc:	20040413          	addi	s0,s0,512 # 80162cf8 <cpu>
    80000b00:	00045583          	lhu	a1,0(s0)
    80000b04:	00113423          	sd	ra,8(sp)
    80000b08:	00244503          	lbu	a0,2(s0)
    80000b0c:	fff5859b          	addiw	a1,a1,-1
    80000b10:	03059593          	slli	a1,a1,0x30
    80000b14:	0305d593          	srli	a1,a1,0x30
    80000b18:	0ff50513          	addi	a0,a0,255
    80000b1c:	010020ef          	jal	ra,80002b2c <memory_writew>
    80000b20:	00244783          	lbu	a5,2(s0)
    80000b24:	00644583          	lbu	a1,6(s0)
    80000b28:	ffe7851b          	addiw	a0,a5,-2
    80000b2c:	0ff57513          	andi	a0,a0,255
    80000b30:	1005051b          	addiw	a0,a0,256
    80000b34:	03051513          	slli	a0,a0,0x30
    80000b38:	ffd7879b          	addiw	a5,a5,-3
    80000b3c:	03055513          	srli	a0,a0,0x30
    80000b40:	00f40123          	sb	a5,2(s0)
    80000b44:	6f1010ef          	jal	ra,80002a34 <memory_writeb>
    80000b48:	00644783          	lbu	a5,6(s0)
    80000b4c:	00010537          	lui	a0,0x10
    80000b50:	ffa50513          	addi	a0,a0,-6 # fffa <_entry_offset+0xfffa>
    80000b54:	0307e793          	ori	a5,a5,48
    80000b58:	00f40323          	sb	a5,6(s0)
    80000b5c:	781010ef          	jal	ra,80002adc <memory_readw>
    80000b60:	00a41023          	sh	a0,0(s0)
    80000b64:	00813083          	ld	ra,8(sp)
    80000b68:	00013403          	ld	s0,0(sp)
    80000b6c:	01010113          	addi	sp,sp,16
    80000b70:	00008067          	ret

0000000080000b74 <cpu_op_pla>:
    80000b74:	ff010113          	addi	sp,sp,-16
    80000b78:	00813023          	sd	s0,0(sp)
    80000b7c:	00113423          	sd	ra,8(sp)
    80000b80:	00162417          	auipc	s0,0x162
    80000b84:	17840413          	addi	s0,s0,376 # 80162cf8 <cpu>
    80000b88:	00244783          	lbu	a5,2(s0)
    80000b8c:	0017879b          	addiw	a5,a5,1
    80000b90:	0ff7f793          	andi	a5,a5,255
    80000b94:	10078513          	addi	a0,a5,256
    80000b98:	00f40123          	sb	a5,2(s0)
    80000b9c:	651010ef          	jal	ra,800029ec <memory_readb>
    80000ba0:	00004717          	auipc	a4,0x4
    80000ba4:	c8070713          	addi	a4,a4,-896 # 80004820 <cpu_zn_flag_table>
    80000ba8:	00644783          	lbu	a5,6(s0)
    80000bac:	00a70733          	add	a4,a4,a0
    80000bb0:	00074703          	lbu	a4,0(a4)
    80000bb4:	07d7f793          	andi	a5,a5,125
    80000bb8:	00a401a3          	sb	a0,3(s0)
    80000bbc:	00e7e7b3          	or	a5,a5,a4
    80000bc0:	00f40323          	sb	a5,6(s0)
    80000bc4:	00813083          	ld	ra,8(sp)
    80000bc8:	00013403          	ld	s0,0(sp)
    80000bcc:	01010113          	addi	sp,sp,16
    80000bd0:	00008067          	ret

0000000080000bd4 <cpu_op_plp>:
    80000bd4:	ff010113          	addi	sp,sp,-16
    80000bd8:	00813023          	sd	s0,0(sp)
    80000bdc:	00113423          	sd	ra,8(sp)
    80000be0:	00162417          	auipc	s0,0x162
    80000be4:	11840413          	addi	s0,s0,280 # 80162cf8 <cpu>
    80000be8:	00244783          	lbu	a5,2(s0)
    80000bec:	0017879b          	addiw	a5,a5,1
    80000bf0:	0ff7f793          	andi	a5,a5,255
    80000bf4:	10078513          	addi	a0,a5,256
    80000bf8:	00f40123          	sb	a5,2(s0)
    80000bfc:	5f1010ef          	jal	ra,800029ec <memory_readb>
    80000c00:	fcf57513          	andi	a0,a0,-49
    80000c04:	02056513          	ori	a0,a0,32
    80000c08:	00a40323          	sb	a0,6(s0)
    80000c0c:	00813083          	ld	ra,8(sp)
    80000c10:	00013403          	ld	s0,0(sp)
    80000c14:	01010113          	addi	sp,sp,16
    80000c18:	00008067          	ret

0000000080000c1c <cpu_op_rti>:
    80000c1c:	ff010113          	addi	sp,sp,-16
    80000c20:	00113423          	sd	ra,8(sp)
    80000c24:	00813023          	sd	s0,0(sp)
    80000c28:	00162417          	auipc	s0,0x162
    80000c2c:	0d040413          	addi	s0,s0,208 # 80162cf8 <cpu>
    80000c30:	00244783          	lbu	a5,2(s0)
    80000c34:	0017879b          	addiw	a5,a5,1
    80000c38:	0ff7f793          	andi	a5,a5,255
    80000c3c:	10078513          	addi	a0,a5,256
    80000c40:	00f40123          	sb	a5,2(s0)
    80000c44:	5a9010ef          	jal	ra,800029ec <memory_readb>
    80000c48:	00244783          	lbu	a5,2(s0)
    80000c4c:	02056513          	ori	a0,a0,32
    80000c50:	00a40323          	sb	a0,6(s0)
    80000c54:	0027879b          	addiw	a5,a5,2
    80000c58:	0ff7f793          	andi	a5,a5,255
    80000c5c:	0ff78513          	addi	a0,a5,255
    80000c60:	00f40123          	sb	a5,2(s0)
    80000c64:	679010ef          	jal	ra,80002adc <memory_readw>
    80000c68:	00a41023          	sh	a0,0(s0)
    80000c6c:	00813083          	ld	ra,8(sp)
    80000c70:	00013403          	ld	s0,0(sp)
    80000c74:	01010113          	addi	sp,sp,16
    80000c78:	00008067          	ret

0000000080000c7c <cpu_op_bcs>:
    80000c7c:	ff010113          	addi	sp,sp,-16
    80000c80:	00000593          	li	a1,0
    80000c84:	00162517          	auipc	a0,0x162
    80000c88:	07a54503          	lbu	a0,122(a0) # 80162cfe <cpu+0x6>
    80000c8c:	00113423          	sd	ra,8(sp)
    80000c90:	444020ef          	jal	ra,800030d4 <common_bit_set>
    80000c94:	00050c63          	beqz	a0,80000cac <cpu_op_bcs+0x30>
    80000c98:	00162797          	auipc	a5,0x162
    80000c9c:	05c78793          	addi	a5,a5,92 # 80162cf4 <op_address>
    80000ca0:	0007a783          	lw	a5,0(a5)
    80000ca4:	00162717          	auipc	a4,0x162
    80000ca8:	04f71a23          	sh	a5,84(a4) # 80162cf8 <cpu>
    80000cac:	00813083          	ld	ra,8(sp)
    80000cb0:	01010113          	addi	sp,sp,16
    80000cb4:	00008067          	ret

0000000080000cb8 <cpu_op_beq>:
    80000cb8:	ff010113          	addi	sp,sp,-16
    80000cbc:	00100593          	li	a1,1
    80000cc0:	00162517          	auipc	a0,0x162
    80000cc4:	03e54503          	lbu	a0,62(a0) # 80162cfe <cpu+0x6>
    80000cc8:	00113423          	sd	ra,8(sp)
    80000ccc:	408020ef          	jal	ra,800030d4 <common_bit_set>
    80000cd0:	00050c63          	beqz	a0,80000ce8 <cpu_op_beq+0x30>
    80000cd4:	00162797          	auipc	a5,0x162
    80000cd8:	02078793          	addi	a5,a5,32 # 80162cf4 <op_address>
    80000cdc:	0007a783          	lw	a5,0(a5)
    80000ce0:	00162717          	auipc	a4,0x162
    80000ce4:	00f71c23          	sh	a5,24(a4) # 80162cf8 <cpu>
    80000ce8:	00813083          	ld	ra,8(sp)
    80000cec:	01010113          	addi	sp,sp,16
    80000cf0:	00008067          	ret

0000000080000cf4 <cpu_op_bmi>:
    80000cf4:	ff010113          	addi	sp,sp,-16
    80000cf8:	00700593          	li	a1,7
    80000cfc:	00162517          	auipc	a0,0x162
    80000d00:	00254503          	lbu	a0,2(a0) # 80162cfe <cpu+0x6>
    80000d04:	00113423          	sd	ra,8(sp)
    80000d08:	3cc020ef          	jal	ra,800030d4 <common_bit_set>
    80000d0c:	00050c63          	beqz	a0,80000d24 <cpu_op_bmi+0x30>
    80000d10:	00162797          	auipc	a5,0x162
    80000d14:	fe478793          	addi	a5,a5,-28 # 80162cf4 <op_address>
    80000d18:	0007a783          	lw	a5,0(a5)
    80000d1c:	00162717          	auipc	a4,0x162
    80000d20:	fcf71e23          	sh	a5,-36(a4) # 80162cf8 <cpu>
    80000d24:	00813083          	ld	ra,8(sp)
    80000d28:	01010113          	addi	sp,sp,16
    80000d2c:	00008067          	ret

0000000080000d30 <cpu_op_bvs>:
    80000d30:	ff010113          	addi	sp,sp,-16
    80000d34:	00600593          	li	a1,6
    80000d38:	00162517          	auipc	a0,0x162
    80000d3c:	fc654503          	lbu	a0,-58(a0) # 80162cfe <cpu+0x6>
    80000d40:	00113423          	sd	ra,8(sp)
    80000d44:	390020ef          	jal	ra,800030d4 <common_bit_set>
    80000d48:	00050c63          	beqz	a0,80000d60 <cpu_op_bvs+0x30>
    80000d4c:	00162797          	auipc	a5,0x162
    80000d50:	fa878793          	addi	a5,a5,-88 # 80162cf4 <op_address>
    80000d54:	0007a783          	lw	a5,0(a5)
    80000d58:	00162717          	auipc	a4,0x162
    80000d5c:	faf71023          	sh	a5,-96(a4) # 80162cf8 <cpu>
    80000d60:	00813083          	ld	ra,8(sp)
    80000d64:	01010113          	addi	sp,sp,16
    80000d68:	00008067          	ret

0000000080000d6c <cpu_op_bne>:
    80000d6c:	ff010113          	addi	sp,sp,-16
    80000d70:	00100593          	li	a1,1
    80000d74:	00162517          	auipc	a0,0x162
    80000d78:	f8a54503          	lbu	a0,-118(a0) # 80162cfe <cpu+0x6>
    80000d7c:	00113423          	sd	ra,8(sp)
    80000d80:	354020ef          	jal	ra,800030d4 <common_bit_set>
    80000d84:	00051c63          	bnez	a0,80000d9c <cpu_op_bne+0x30>
    80000d88:	00162797          	auipc	a5,0x162
    80000d8c:	f6c78793          	addi	a5,a5,-148 # 80162cf4 <op_address>
    80000d90:	0007a783          	lw	a5,0(a5)
    80000d94:	00162717          	auipc	a4,0x162
    80000d98:	f6f71223          	sh	a5,-156(a4) # 80162cf8 <cpu>
    80000d9c:	00813083          	ld	ra,8(sp)
    80000da0:	01010113          	addi	sp,sp,16
    80000da4:	00008067          	ret

0000000080000da8 <cpu_op_bcc>:
    80000da8:	ff010113          	addi	sp,sp,-16
    80000dac:	00000593          	li	a1,0
    80000db0:	00162517          	auipc	a0,0x162
    80000db4:	f4e54503          	lbu	a0,-178(a0) # 80162cfe <cpu+0x6>
    80000db8:	00113423          	sd	ra,8(sp)
    80000dbc:	318020ef          	jal	ra,800030d4 <common_bit_set>
    80000dc0:	00051c63          	bnez	a0,80000dd8 <cpu_op_bcc+0x30>
    80000dc4:	00162797          	auipc	a5,0x162
    80000dc8:	f3078793          	addi	a5,a5,-208 # 80162cf4 <op_address>
    80000dcc:	0007a783          	lw	a5,0(a5)
    80000dd0:	00162717          	auipc	a4,0x162
    80000dd4:	f2f71423          	sh	a5,-216(a4) # 80162cf8 <cpu>
    80000dd8:	00813083          	ld	ra,8(sp)
    80000ddc:	01010113          	addi	sp,sp,16
    80000de0:	00008067          	ret

0000000080000de4 <cpu_op_bpl>:
    80000de4:	ff010113          	addi	sp,sp,-16
    80000de8:	00700593          	li	a1,7
    80000dec:	00162517          	auipc	a0,0x162
    80000df0:	f1254503          	lbu	a0,-238(a0) # 80162cfe <cpu+0x6>
    80000df4:	00113423          	sd	ra,8(sp)
    80000df8:	2dc020ef          	jal	ra,800030d4 <common_bit_set>
    80000dfc:	00051c63          	bnez	a0,80000e14 <cpu_op_bpl+0x30>
    80000e00:	00162797          	auipc	a5,0x162
    80000e04:	ef478793          	addi	a5,a5,-268 # 80162cf4 <op_address>
    80000e08:	0007a783          	lw	a5,0(a5)
    80000e0c:	00162717          	auipc	a4,0x162
    80000e10:	eef71623          	sh	a5,-276(a4) # 80162cf8 <cpu>
    80000e14:	00813083          	ld	ra,8(sp)
    80000e18:	01010113          	addi	sp,sp,16
    80000e1c:	00008067          	ret

0000000080000e20 <cpu_op_bvc>:
    80000e20:	ff010113          	addi	sp,sp,-16
    80000e24:	00600593          	li	a1,6
    80000e28:	00162517          	auipc	a0,0x162
    80000e2c:	ed654503          	lbu	a0,-298(a0) # 80162cfe <cpu+0x6>
    80000e30:	00113423          	sd	ra,8(sp)
    80000e34:	2a0020ef          	jal	ra,800030d4 <common_bit_set>
    80000e38:	00051c63          	bnez	a0,80000e50 <cpu_op_bvc+0x30>
    80000e3c:	00162797          	auipc	a5,0x162
    80000e40:	eb878793          	addi	a5,a5,-328 # 80162cf4 <op_address>
    80000e44:	0007a783          	lw	a5,0(a5)
    80000e48:	00162717          	auipc	a4,0x162
    80000e4c:	eaf71823          	sh	a5,-336(a4) # 80162cf8 <cpu>
    80000e50:	00813083          	ld	ra,8(sp)
    80000e54:	01010113          	addi	sp,sp,16
    80000e58:	00008067          	ret

0000000080000e5c <cpu_op_adc>:
    80000e5c:	fe010113          	addi	sp,sp,-32
    80000e60:	00913423          	sd	s1,8(sp)
    80000e64:	01213023          	sd	s2,0(sp)
    80000e68:	00162497          	auipc	s1,0x162
    80000e6c:	e9048493          	addi	s1,s1,-368 # 80162cf8 <cpu>
    80000e70:	00162917          	auipc	s2,0x162
    80000e74:	e8090913          	addi	s2,s2,-384 # 80162cf0 <op_value>
    80000e78:	00813823          	sd	s0,16(sp)
    80000e7c:	00092783          	lw	a5,0(s2)
    80000e80:	0034c403          	lbu	s0,3(s1)
    80000e84:	0064c503          	lbu	a0,6(s1)
    80000e88:	00000593          	li	a1,0
    80000e8c:	00113c23          	sd	ra,24(sp)
    80000e90:	00f4043b          	addw	s0,s0,a5
    80000e94:	240020ef          	jal	ra,800030d4 <common_bit_set>
    80000e98:	0085043b          	addw	s0,a0,s0
    80000e9c:	4084561b          	sraiw	a2,s0,0x8
    80000ea0:	00167613          	andi	a2,a2,1
    80000ea4:	00000593          	li	a1,0
    80000ea8:	00162517          	auipc	a0,0x162
    80000eac:	e5650513          	addi	a0,a0,-426 # 80162cfe <cpu+0x6>
    80000eb0:	26c020ef          	jal	ra,8000311c <common_modify_bitb>
    80000eb4:	0034c783          	lbu	a5,3(s1)
    80000eb8:	00092603          	lw	a2,0(s2)
    80000ebc:	00600593          	li	a1,6
    80000ec0:	0087c733          	xor	a4,a5,s0
    80000ec4:	00c7c633          	xor	a2,a5,a2
    80000ec8:	fff64613          	not	a2,a2
    80000ecc:	08067613          	andi	a2,a2,128
    80000ed0:	00e67633          	and	a2,a2,a4
    80000ed4:	00c03633          	snez	a2,a2
    80000ed8:	00162517          	auipc	a0,0x162
    80000edc:	e2650513          	addi	a0,a0,-474 # 80162cfe <cpu+0x6>
    80000ee0:	23c020ef          	jal	ra,8000311c <common_modify_bitb>
    80000ee4:	0ff47693          	andi	a3,s0,255
    80000ee8:	00004717          	auipc	a4,0x4
    80000eec:	93870713          	addi	a4,a4,-1736 # 80004820 <cpu_zn_flag_table>
    80000ef0:	0064c783          	lbu	a5,6(s1)
    80000ef4:	00d70733          	add	a4,a4,a3
    80000ef8:	00074703          	lbu	a4,0(a4)
    80000efc:	008481a3          	sb	s0,3(s1)
    80000f00:	01813083          	ld	ra,24(sp)
    80000f04:	01013403          	ld	s0,16(sp)
    80000f08:	07d7f793          	andi	a5,a5,125
    80000f0c:	00e7e7b3          	or	a5,a5,a4
    80000f10:	00f48323          	sb	a5,6(s1)
    80000f14:	00013903          	ld	s2,0(sp)
    80000f18:	00813483          	ld	s1,8(sp)
    80000f1c:	02010113          	addi	sp,sp,32
    80000f20:	00008067          	ret

0000000080000f24 <cpu_op_sbc>:
    80000f24:	fe010113          	addi	sp,sp,-32
    80000f28:	00913423          	sd	s1,8(sp)
    80000f2c:	01213023          	sd	s2,0(sp)
    80000f30:	00162497          	auipc	s1,0x162
    80000f34:	dc848493          	addi	s1,s1,-568 # 80162cf8 <cpu>
    80000f38:	00162917          	auipc	s2,0x162
    80000f3c:	db890913          	addi	s2,s2,-584 # 80162cf0 <op_value>
    80000f40:	00813823          	sd	s0,16(sp)
    80000f44:	00092783          	lw	a5,0(s2)
    80000f48:	0034c403          	lbu	s0,3(s1)
    80000f4c:	0064c503          	lbu	a0,6(s1)
    80000f50:	00000593          	li	a1,0
    80000f54:	00113c23          	sd	ra,24(sp)
    80000f58:	40f4043b          	subw	s0,s0,a5
    80000f5c:	178020ef          	jal	ra,800030d4 <common_bit_set>
    80000f60:	00154513          	xori	a0,a0,1
    80000f64:	0ff57513          	andi	a0,a0,255
    80000f68:	40a4043b          	subw	s0,s0,a0
    80000f6c:	4084561b          	sraiw	a2,s0,0x8
    80000f70:	00164613          	xori	a2,a2,1
    80000f74:	00167613          	andi	a2,a2,1
    80000f78:	00000593          	li	a1,0
    80000f7c:	00162517          	auipc	a0,0x162
    80000f80:	d8250513          	addi	a0,a0,-638 # 80162cfe <cpu+0x6>
    80000f84:	198020ef          	jal	ra,8000311c <common_modify_bitb>
    80000f88:	0034c783          	lbu	a5,3(s1)
    80000f8c:	00092603          	lw	a2,0(s2)
    80000f90:	00600593          	li	a1,6
    80000f94:	0087c733          	xor	a4,a5,s0
    80000f98:	00c7c633          	xor	a2,a5,a2
    80000f9c:	08067613          	andi	a2,a2,128
    80000fa0:	00e67633          	and	a2,a2,a4
    80000fa4:	00c03633          	snez	a2,a2
    80000fa8:	00162517          	auipc	a0,0x162
    80000fac:	d5650513          	addi	a0,a0,-682 # 80162cfe <cpu+0x6>
    80000fb0:	16c020ef          	jal	ra,8000311c <common_modify_bitb>
    80000fb4:	0ff47693          	andi	a3,s0,255
    80000fb8:	00004717          	auipc	a4,0x4
    80000fbc:	86870713          	addi	a4,a4,-1944 # 80004820 <cpu_zn_flag_table>
    80000fc0:	0064c783          	lbu	a5,6(s1)
    80000fc4:	00d70733          	add	a4,a4,a3
    80000fc8:	00074703          	lbu	a4,0(a4)
    80000fcc:	008481a3          	sb	s0,3(s1)
    80000fd0:	01813083          	ld	ra,24(sp)
    80000fd4:	01013403          	ld	s0,16(sp)
    80000fd8:	07d7f793          	andi	a5,a5,125
    80000fdc:	00e7e7b3          	or	a5,a5,a4
    80000fe0:	00f48323          	sb	a5,6(s1)
    80000fe4:	00013903          	ld	s2,0(sp)
    80000fe8:	00813483          	ld	s1,8(sp)
    80000fec:	02010113          	addi	sp,sp,32
    80000ff0:	00008067          	ret

0000000080000ff4 <cpu_op_ins>:
    80000ff4:	00162797          	auipc	a5,0x162
    80000ff8:	cfc78793          	addi	a5,a5,-772 # 80162cf0 <op_value>
    80000ffc:	0007a583          	lw	a1,0(a5)
    80001000:	ff010113          	addi	sp,sp,-16
    80001004:	00113423          	sd	ra,8(sp)
    80001008:	0015859b          	addiw	a1,a1,1
    8000100c:	0ff5f713          	andi	a4,a1,255
    80001010:	00162517          	auipc	a0,0x162
    80001014:	ce455503          	lhu	a0,-796(a0) # 80162cf4 <op_address>
    80001018:	0ff5f593          	andi	a1,a1,255
    8000101c:	00e7a023          	sw	a4,0(a5)
    80001020:	215010ef          	jal	ra,80002a34 <memory_writeb>
    80001024:	00813083          	ld	ra,8(sp)
    80001028:	01010113          	addi	sp,sp,16
    8000102c:	ef9ff06f          	j	80000f24 <cpu_op_sbc>

0000000080001030 <cpu_op_bit>:
    80001030:	fe010113          	addi	sp,sp,-32
    80001034:	00813823          	sd	s0,16(sp)
    80001038:	00913423          	sd	s1,8(sp)
    8000103c:	00113c23          	sd	ra,24(sp)
    80001040:	00162417          	auipc	s0,0x162
    80001044:	cb840413          	addi	s0,s0,-840 # 80162cf8 <cpu>
    80001048:	00162497          	auipc	s1,0x162
    8000104c:	ca848493          	addi	s1,s1,-856 # 80162cf0 <op_value>
    80001050:	0004a783          	lw	a5,0(s1)
    80001054:	00344603          	lbu	a2,3(s0)
    80001058:	00100593          	li	a1,1
    8000105c:	00162517          	auipc	a0,0x162
    80001060:	ca250513          	addi	a0,a0,-862 # 80162cfe <cpu+0x6>
    80001064:	00f67633          	and	a2,a2,a5
    80001068:	00163613          	seqz	a2,a2
    8000106c:	0b0020ef          	jal	ra,8000311c <common_modify_bitb>
    80001070:	00644783          	lbu	a5,6(s0)
    80001074:	0004c703          	lbu	a4,0(s1)
    80001078:	03f7f793          	andi	a5,a5,63
    8000107c:	fc077713          	andi	a4,a4,-64
    80001080:	00e7e7b3          	or	a5,a5,a4
    80001084:	00f40323          	sb	a5,6(s0)
    80001088:	01813083          	ld	ra,24(sp)
    8000108c:	01013403          	ld	s0,16(sp)
    80001090:	00813483          	ld	s1,8(sp)
    80001094:	02010113          	addi	sp,sp,32
    80001098:	00008067          	ret

000000008000109c <cpu_op_asla>:
    8000109c:	ff010113          	addi	sp,sp,-16
    800010a0:	00813023          	sd	s0,0(sp)
    800010a4:	00113423          	sd	ra,8(sp)
    800010a8:	00162417          	auipc	s0,0x162
    800010ac:	c5040413          	addi	s0,s0,-944 # 80162cf8 <cpu>
    800010b0:	00344603          	lbu	a2,3(s0)
    800010b4:	00000593          	li	a1,0
    800010b8:	00162517          	auipc	a0,0x162
    800010bc:	c4650513          	addi	a0,a0,-954 # 80162cfe <cpu+0x6>
    800010c0:	00765613          	srli	a2,a2,0x7
    800010c4:	058020ef          	jal	ra,8000311c <common_modify_bitb>
    800010c8:	00344783          	lbu	a5,3(s0)
    800010cc:	00003697          	auipc	a3,0x3
    800010d0:	75468693          	addi	a3,a3,1876 # 80004820 <cpu_zn_flag_table>
    800010d4:	00644703          	lbu	a4,6(s0)
    800010d8:	0017979b          	slliw	a5,a5,0x1
    800010dc:	0ff7f793          	andi	a5,a5,255
    800010e0:	00f686b3          	add	a3,a3,a5
    800010e4:	0006c683          	lbu	a3,0(a3)
    800010e8:	07d77713          	andi	a4,a4,125
    800010ec:	00f401a3          	sb	a5,3(s0)
    800010f0:	00d767b3          	or	a5,a4,a3
    800010f4:	00f40323          	sb	a5,6(s0)
    800010f8:	00813083          	ld	ra,8(sp)
    800010fc:	00013403          	ld	s0,0(sp)
    80001100:	01010113          	addi	sp,sp,16
    80001104:	00008067          	ret

0000000080001108 <cpu_op_asl>:
    80001108:	ff010113          	addi	sp,sp,-16
    8000110c:	00813023          	sd	s0,0(sp)
    80001110:	00162417          	auipc	s0,0x162
    80001114:	be040413          	addi	s0,s0,-1056 # 80162cf0 <op_value>
    80001118:	00042603          	lw	a2,0(s0)
    8000111c:	00000593          	li	a1,0
    80001120:	00162517          	auipc	a0,0x162
    80001124:	bde50513          	addi	a0,a0,-1058 # 80162cfe <cpu+0x6>
    80001128:	4076561b          	sraiw	a2,a2,0x7
    8000112c:	00167613          	andi	a2,a2,1
    80001130:	00113423          	sd	ra,8(sp)
    80001134:	7e9010ef          	jal	ra,8000311c <common_modify_bitb>
    80001138:	00042583          	lw	a1,0(s0)
    8000113c:	00162697          	auipc	a3,0x162
    80001140:	bbc68693          	addi	a3,a3,-1092 # 80162cf8 <cpu>
    80001144:	00003717          	auipc	a4,0x3
    80001148:	6dc70713          	addi	a4,a4,1756 # 80004820 <cpu_zn_flag_table>
    8000114c:	0015959b          	slliw	a1,a1,0x1
    80001150:	0fe5f613          	andi	a2,a1,254
    80001154:	0066c783          	lbu	a5,6(a3)
    80001158:	00c70733          	add	a4,a4,a2
    8000115c:	00074703          	lbu	a4,0(a4)
    80001160:	07d7f793          	andi	a5,a5,125
    80001164:	00c42023          	sw	a2,0(s0)
    80001168:	00e7e7b3          	or	a5,a5,a4
    8000116c:	00f68323          	sb	a5,6(a3)
    80001170:	00013403          	ld	s0,0(sp)
    80001174:	00813083          	ld	ra,8(sp)
    80001178:	00162517          	auipc	a0,0x162
    8000117c:	b7c55503          	lhu	a0,-1156(a0) # 80162cf4 <op_address>
    80001180:	00060593          	mv	a1,a2
    80001184:	01010113          	addi	sp,sp,16
    80001188:	0ad0106f          	j	80002a34 <memory_writeb>

000000008000118c <cpu_op_aso>:
    8000118c:	ff010113          	addi	sp,sp,-16
    80001190:	00113423          	sd	ra,8(sp)
    80001194:	f75ff0ef          	jal	ra,80001108 <cpu_op_asl>
    80001198:	00162717          	auipc	a4,0x162
    8000119c:	b6070713          	addi	a4,a4,-1184 # 80162cf8 <cpu>
    800011a0:	00374783          	lbu	a5,3(a4)
    800011a4:	00162697          	auipc	a3,0x162
    800011a8:	b4c6c683          	lbu	a3,-1204(a3) # 80162cf0 <op_value>
    800011ac:	00003617          	auipc	a2,0x3
    800011b0:	67460613          	addi	a2,a2,1652 # 80004820 <cpu_zn_flag_table>
    800011b4:	00f6e6b3          	or	a3,a3,a5
    800011b8:	00d60633          	add	a2,a2,a3
    800011bc:	00674783          	lbu	a5,6(a4)
    800011c0:	00064603          	lbu	a2,0(a2)
    800011c4:	00d701a3          	sb	a3,3(a4)
    800011c8:	07d7f793          	andi	a5,a5,125
    800011cc:	00c7e7b3          	or	a5,a5,a2
    800011d0:	00f70323          	sb	a5,6(a4)
    800011d4:	00813083          	ld	ra,8(sp)
    800011d8:	01010113          	addi	sp,sp,16
    800011dc:	00008067          	ret

00000000800011e0 <cpu_op_lsra>:
    800011e0:	fe010113          	addi	sp,sp,-32
    800011e4:	00913423          	sd	s1,8(sp)
    800011e8:	00162497          	auipc	s1,0x162
    800011ec:	b1048493          	addi	s1,s1,-1264 # 80162cf8 <cpu>
    800011f0:	00813823          	sd	s0,16(sp)
    800011f4:	0034c403          	lbu	s0,3(s1)
    800011f8:	00000593          	li	a1,0
    800011fc:	00162517          	auipc	a0,0x162
    80001200:	b0250513          	addi	a0,a0,-1278 # 80162cfe <cpu+0x6>
    80001204:	00147613          	andi	a2,s0,1
    80001208:	00113c23          	sd	ra,24(sp)
    8000120c:	711010ef          	jal	ra,8000311c <common_modify_bitb>
    80001210:	00145413          	srli	s0,s0,0x1
    80001214:	00003717          	auipc	a4,0x3
    80001218:	60c70713          	addi	a4,a4,1548 # 80004820 <cpu_zn_flag_table>
    8000121c:	0064c783          	lbu	a5,6(s1)
    80001220:	00870733          	add	a4,a4,s0
    80001224:	00074703          	lbu	a4,0(a4)
    80001228:	008481a3          	sb	s0,3(s1)
    8000122c:	01813083          	ld	ra,24(sp)
    80001230:	01013403          	ld	s0,16(sp)
    80001234:	07d7f793          	andi	a5,a5,125
    80001238:	00e7e7b3          	or	a5,a5,a4
    8000123c:	00f48323          	sb	a5,6(s1)
    80001240:	00813483          	ld	s1,8(sp)
    80001244:	02010113          	addi	sp,sp,32
    80001248:	00008067          	ret

000000008000124c <cpu_op_lsr>:
    8000124c:	ff010113          	addi	sp,sp,-16
    80001250:	00813023          	sd	s0,0(sp)
    80001254:	00162417          	auipc	s0,0x162
    80001258:	a9c40413          	addi	s0,s0,-1380 # 80162cf0 <op_value>
    8000125c:	00044603          	lbu	a2,0(s0)
    80001260:	00000593          	li	a1,0
    80001264:	00162517          	auipc	a0,0x162
    80001268:	a9a50513          	addi	a0,a0,-1382 # 80162cfe <cpu+0x6>
    8000126c:	00167613          	andi	a2,a2,1
    80001270:	00113423          	sd	ra,8(sp)
    80001274:	6a9010ef          	jal	ra,8000311c <common_modify_bitb>
    80001278:	00042583          	lw	a1,0(s0)
    8000127c:	00162517          	auipc	a0,0x162
    80001280:	a7855503          	lhu	a0,-1416(a0) # 80162cf4 <op_address>
    80001284:	4015d59b          	sraiw	a1,a1,0x1
    80001288:	0ff5f793          	andi	a5,a1,255
    8000128c:	0ff5f593          	andi	a1,a1,255
    80001290:	00f42023          	sw	a5,0(s0)
    80001294:	7a0010ef          	jal	ra,80002a34 <memory_writeb>
    80001298:	00042603          	lw	a2,0(s0)
    8000129c:	00162697          	auipc	a3,0x162
    800012a0:	a5c68693          	addi	a3,a3,-1444 # 80162cf8 <cpu>
    800012a4:	00003717          	auipc	a4,0x3
    800012a8:	57c70713          	addi	a4,a4,1404 # 80004820 <cpu_zn_flag_table>
    800012ac:	0066c783          	lbu	a5,6(a3)
    800012b0:	00c70733          	add	a4,a4,a2
    800012b4:	00074703          	lbu	a4,0(a4)
    800012b8:	07d7f793          	andi	a5,a5,125
    800012bc:	00e7e7b3          	or	a5,a5,a4
    800012c0:	00f68323          	sb	a5,6(a3)
    800012c4:	00813083          	ld	ra,8(sp)
    800012c8:	00013403          	ld	s0,0(sp)
    800012cc:	01010113          	addi	sp,sp,16
    800012d0:	00008067          	ret

00000000800012d4 <cpu_op_lse>:
    800012d4:	ff010113          	addi	sp,sp,-16
    800012d8:	00113423          	sd	ra,8(sp)
    800012dc:	f71ff0ef          	jal	ra,8000124c <cpu_op_lsr>
    800012e0:	00162717          	auipc	a4,0x162
    800012e4:	a1870713          	addi	a4,a4,-1512 # 80162cf8 <cpu>
    800012e8:	00374783          	lbu	a5,3(a4)
    800012ec:	00162697          	auipc	a3,0x162
    800012f0:	a046c683          	lbu	a3,-1532(a3) # 80162cf0 <op_value>
    800012f4:	00003617          	auipc	a2,0x3
    800012f8:	52c60613          	addi	a2,a2,1324 # 80004820 <cpu_zn_flag_table>
    800012fc:	00f6c6b3          	xor	a3,a3,a5
    80001300:	00d60633          	add	a2,a2,a3
    80001304:	00674783          	lbu	a5,6(a4)
    80001308:	00064603          	lbu	a2,0(a2)
    8000130c:	00d701a3          	sb	a3,3(a4)
    80001310:	07d7f793          	andi	a5,a5,125
    80001314:	00c7e7b3          	or	a5,a5,a2
    80001318:	00f70323          	sb	a5,6(a4)
    8000131c:	00813083          	ld	ra,8(sp)
    80001320:	01010113          	addi	sp,sp,16
    80001324:	00008067          	ret

0000000080001328 <cpu_op_rola>:
    80001328:	fe010113          	addi	sp,sp,-32
    8000132c:	00913423          	sd	s1,8(sp)
    80001330:	00162497          	auipc	s1,0x162
    80001334:	9c848493          	addi	s1,s1,-1592 # 80162cf8 <cpu>
    80001338:	00813823          	sd	s0,16(sp)
    8000133c:	0064c503          	lbu	a0,6(s1)
    80001340:	0034c403          	lbu	s0,3(s1)
    80001344:	00000593          	li	a1,0
    80001348:	00113c23          	sd	ra,24(sp)
    8000134c:	0014141b          	slliw	s0,s0,0x1
    80001350:	585010ef          	jal	ra,800030d4 <common_bit_set>
    80001354:	00a46433          	or	s0,s0,a0
    80001358:	0004041b          	sext.w	s0,s0
    8000135c:	0ff00613          	li	a2,255
    80001360:	00862633          	slt	a2,a2,s0
    80001364:	00000593          	li	a1,0
    80001368:	00162517          	auipc	a0,0x162
    8000136c:	99650513          	addi	a0,a0,-1642 # 80162cfe <cpu+0x6>
    80001370:	5ad010ef          	jal	ra,8000311c <common_modify_bitb>
    80001374:	0ff47693          	andi	a3,s0,255
    80001378:	00003717          	auipc	a4,0x3
    8000137c:	4a870713          	addi	a4,a4,1192 # 80004820 <cpu_zn_flag_table>
    80001380:	0064c783          	lbu	a5,6(s1)
    80001384:	00d70733          	add	a4,a4,a3
    80001388:	00074703          	lbu	a4,0(a4)
    8000138c:	008481a3          	sb	s0,3(s1)
    80001390:	01813083          	ld	ra,24(sp)
    80001394:	01013403          	ld	s0,16(sp)
    80001398:	07d7f793          	andi	a5,a5,125
    8000139c:	00e7e7b3          	or	a5,a5,a4
    800013a0:	00f48323          	sb	a5,6(s1)
    800013a4:	00813483          	ld	s1,8(sp)
    800013a8:	02010113          	addi	sp,sp,32
    800013ac:	00008067          	ret

00000000800013b0 <cpu_op_rol>:
    800013b0:	fe010113          	addi	sp,sp,-32
    800013b4:	00813823          	sd	s0,16(sp)
    800013b8:	00162417          	auipc	s0,0x162
    800013bc:	93840413          	addi	s0,s0,-1736 # 80162cf0 <op_value>
    800013c0:	00913423          	sd	s1,8(sp)
    800013c4:	00042783          	lw	a5,0(s0)
    800013c8:	00162497          	auipc	s1,0x162
    800013cc:	93048493          	addi	s1,s1,-1744 # 80162cf8 <cpu>
    800013d0:	0064c503          	lbu	a0,6(s1)
    800013d4:	00113c23          	sd	ra,24(sp)
    800013d8:	0017979b          	slliw	a5,a5,0x1
    800013dc:	00000593          	li	a1,0
    800013e0:	00f42023          	sw	a5,0(s0)
    800013e4:	4f1010ef          	jal	ra,800030d4 <common_bit_set>
    800013e8:	00042783          	lw	a5,0(s0)
    800013ec:	0ff00613          	li	a2,255
    800013f0:	00000593          	li	a1,0
    800013f4:	00f567b3          	or	a5,a0,a5
    800013f8:	0007879b          	sext.w	a5,a5
    800013fc:	00f62633          	slt	a2,a2,a5
    80001400:	00162517          	auipc	a0,0x162
    80001404:	8fe50513          	addi	a0,a0,-1794 # 80162cfe <cpu+0x6>
    80001408:	00f42023          	sw	a5,0(s0)
    8000140c:	511010ef          	jal	ra,8000311c <common_modify_bitb>
    80001410:	00042583          	lw	a1,0(s0)
    80001414:	00162517          	auipc	a0,0x162
    80001418:	8e055503          	lhu	a0,-1824(a0) # 80162cf4 <op_address>
    8000141c:	0ff5f793          	andi	a5,a1,255
    80001420:	0ff5f593          	andi	a1,a1,255
    80001424:	00f42023          	sw	a5,0(s0)
    80001428:	60c010ef          	jal	ra,80002a34 <memory_writeb>
    8000142c:	00042683          	lw	a3,0(s0)
    80001430:	00003717          	auipc	a4,0x3
    80001434:	3f070713          	addi	a4,a4,1008 # 80004820 <cpu_zn_flag_table>
    80001438:	0064c783          	lbu	a5,6(s1)
    8000143c:	00d70733          	add	a4,a4,a3
    80001440:	00074703          	lbu	a4,0(a4)
    80001444:	01813083          	ld	ra,24(sp)
    80001448:	01013403          	ld	s0,16(sp)
    8000144c:	07d7f793          	andi	a5,a5,125
    80001450:	00e7e7b3          	or	a5,a5,a4
    80001454:	00f48323          	sb	a5,6(s1)
    80001458:	00813483          	ld	s1,8(sp)
    8000145c:	02010113          	addi	sp,sp,32
    80001460:	00008067          	ret

0000000080001464 <cpu_op_rla>:
    80001464:	ff010113          	addi	sp,sp,-16
    80001468:	00113423          	sd	ra,8(sp)
    8000146c:	f45ff0ef          	jal	ra,800013b0 <cpu_op_rol>
    80001470:	00162717          	auipc	a4,0x162
    80001474:	88870713          	addi	a4,a4,-1912 # 80162cf8 <cpu>
    80001478:	00374783          	lbu	a5,3(a4)
    8000147c:	00162697          	auipc	a3,0x162
    80001480:	8746c683          	lbu	a3,-1932(a3) # 80162cf0 <op_value>
    80001484:	00003617          	auipc	a2,0x3
    80001488:	39c60613          	addi	a2,a2,924 # 80004820 <cpu_zn_flag_table>
    8000148c:	00f6f6b3          	and	a3,a3,a5
    80001490:	00d60633          	add	a2,a2,a3
    80001494:	00674783          	lbu	a5,6(a4)
    80001498:	00064603          	lbu	a2,0(a2)
    8000149c:	00d701a3          	sb	a3,3(a4)
    800014a0:	07d7f793          	andi	a5,a5,125
    800014a4:	00c7e7b3          	or	a5,a5,a2
    800014a8:	00f70323          	sb	a5,6(a4)
    800014ac:	00813083          	ld	ra,8(sp)
    800014b0:	01010113          	addi	sp,sp,16
    800014b4:	00008067          	ret

00000000800014b8 <cpu_op_rora>:
    800014b8:	fe010113          	addi	sp,sp,-32
    800014bc:	00113c23          	sd	ra,24(sp)
    800014c0:	00813823          	sd	s0,16(sp)
    800014c4:	00913423          	sd	s1,8(sp)
    800014c8:	00162417          	auipc	s0,0x162
    800014cc:	83040413          	addi	s0,s0,-2000 # 80162cf8 <cpu>
    800014d0:	00644503          	lbu	a0,6(s0)
    800014d4:	00000593          	li	a1,0
    800014d8:	3fd010ef          	jal	ra,800030d4 <common_bit_set>
    800014dc:	00344603          	lbu	a2,3(s0)
    800014e0:	00050493          	mv	s1,a0
    800014e4:	00000593          	li	a1,0
    800014e8:	00162517          	auipc	a0,0x162
    800014ec:	81650513          	addi	a0,a0,-2026 # 80162cfe <cpu+0x6>
    800014f0:	00167613          	andi	a2,a2,1
    800014f4:	429010ef          	jal	ra,8000311c <common_modify_bitb>
    800014f8:	00344783          	lbu	a5,3(s0)
    800014fc:	00749713          	slli	a4,s1,0x7
    80001500:	00100593          	li	a1,1
    80001504:	0017d793          	srli	a5,a5,0x1
    80001508:	00e7e7b3          	or	a5,a5,a4
    8000150c:	0ff7f793          	andi	a5,a5,255
    80001510:	00161517          	auipc	a0,0x161
    80001514:	7ee50513          	addi	a0,a0,2030 # 80162cfe <cpu+0x6>
    80001518:	0017b613          	seqz	a2,a5
    8000151c:	00f401a3          	sb	a5,3(s0)
    80001520:	3fd010ef          	jal	ra,8000311c <common_modify_bitb>
    80001524:	01013403          	ld	s0,16(sp)
    80001528:	01813083          	ld	ra,24(sp)
    8000152c:	00048613          	mv	a2,s1
    80001530:	00813483          	ld	s1,8(sp)
    80001534:	00700593          	li	a1,7
    80001538:	00161517          	auipc	a0,0x161
    8000153c:	7c650513          	addi	a0,a0,1990 # 80162cfe <cpu+0x6>
    80001540:	02010113          	addi	sp,sp,32
    80001544:	3d90106f          	j	8000311c <common_modify_bitb>

0000000080001548 <cpu_op_ror>:
    80001548:	fe010113          	addi	sp,sp,-32
    8000154c:	00000593          	li	a1,0
    80001550:	00161517          	auipc	a0,0x161
    80001554:	7ae54503          	lbu	a0,1966(a0) # 80162cfe <cpu+0x6>
    80001558:	00113c23          	sd	ra,24(sp)
    8000155c:	00813823          	sd	s0,16(sp)
    80001560:	00913423          	sd	s1,8(sp)
    80001564:	00161417          	auipc	s0,0x161
    80001568:	78c40413          	addi	s0,s0,1932 # 80162cf0 <op_value>
    8000156c:	369010ef          	jal	ra,800030d4 <common_bit_set>
    80001570:	00044603          	lbu	a2,0(s0)
    80001574:	00050493          	mv	s1,a0
    80001578:	00000593          	li	a1,0
    8000157c:	00161517          	auipc	a0,0x161
    80001580:	78250513          	addi	a0,a0,1922 # 80162cfe <cpu+0x6>
    80001584:	00167613          	andi	a2,a2,1
    80001588:	395010ef          	jal	ra,8000311c <common_modify_bitb>
    8000158c:	00042783          	lw	a5,0(s0)
    80001590:	0074971b          	slliw	a4,s1,0x7
    80001594:	00100593          	li	a1,1
    80001598:	4017d79b          	sraiw	a5,a5,0x1
    8000159c:	00e7e7b3          	or	a5,a5,a4
    800015a0:	0ff7f793          	andi	a5,a5,255
    800015a4:	0017b613          	seqz	a2,a5
    800015a8:	00161517          	auipc	a0,0x161
    800015ac:	75650513          	addi	a0,a0,1878 # 80162cfe <cpu+0x6>
    800015b0:	00f42023          	sw	a5,0(s0)
    800015b4:	369010ef          	jal	ra,8000311c <common_modify_bitb>
    800015b8:	00048613          	mv	a2,s1
    800015bc:	00700593          	li	a1,7
    800015c0:	00161517          	auipc	a0,0x161
    800015c4:	73e50513          	addi	a0,a0,1854 # 80162cfe <cpu+0x6>
    800015c8:	355010ef          	jal	ra,8000311c <common_modify_bitb>
    800015cc:	00044583          	lbu	a1,0(s0)
    800015d0:	01013403          	ld	s0,16(sp)
    800015d4:	01813083          	ld	ra,24(sp)
    800015d8:	00813483          	ld	s1,8(sp)
    800015dc:	00161517          	auipc	a0,0x161
    800015e0:	71855503          	lhu	a0,1816(a0) # 80162cf4 <op_address>
    800015e4:	02010113          	addi	sp,sp,32
    800015e8:	44c0106f          	j	80002a34 <memory_writeb>

00000000800015ec <cpu_op_rra>:
    800015ec:	ff010113          	addi	sp,sp,-16
    800015f0:	00113423          	sd	ra,8(sp)
    800015f4:	f55ff0ef          	jal	ra,80001548 <cpu_op_ror>
    800015f8:	00813083          	ld	ra,8(sp)
    800015fc:	01010113          	addi	sp,sp,16
    80001600:	85dff06f          	j	80000e5c <cpu_op_adc>

0000000080001604 <cpu_op_cmp>:
    80001604:	00161797          	auipc	a5,0x161
    80001608:	6ec78793          	addi	a5,a5,1772 # 80162cf0 <op_value>
    8000160c:	0007a603          	lw	a2,0(a5)
    80001610:	fe010113          	addi	sp,sp,-32
    80001614:	00813823          	sd	s0,16(sp)
    80001618:	00161417          	auipc	s0,0x161
    8000161c:	6e344403          	lbu	s0,1763(s0) # 80162cfb <cpu+0x3>
    80001620:	00913423          	sd	s1,8(sp)
    80001624:	40c404bb          	subw	s1,s0,a2
    80001628:	fff4c613          	not	a2,s1
    8000162c:	00000593          	li	a1,0
    80001630:	03f65613          	srli	a2,a2,0x3f
    80001634:	00161517          	auipc	a0,0x161
    80001638:	6ca50513          	addi	a0,a0,1738 # 80162cfe <cpu+0x6>
    8000163c:	00113c23          	sd	ra,24(sp)
    80001640:	2dd010ef          	jal	ra,8000311c <common_modify_bitb>
    80001644:	0014b613          	seqz	a2,s1
    80001648:	00100593          	li	a1,1
    8000164c:	00161517          	auipc	a0,0x161
    80001650:	6b250513          	addi	a0,a0,1714 # 80162cfe <cpu+0x6>
    80001654:	2c9010ef          	jal	ra,8000311c <common_modify_bitb>
    80001658:	01013403          	ld	s0,16(sp)
    8000165c:	4074d61b          	sraiw	a2,s1,0x7
    80001660:	01813083          	ld	ra,24(sp)
    80001664:	00813483          	ld	s1,8(sp)
    80001668:	00167613          	andi	a2,a2,1
    8000166c:	00700593          	li	a1,7
    80001670:	00161517          	auipc	a0,0x161
    80001674:	68e50513          	addi	a0,a0,1678 # 80162cfe <cpu+0x6>
    80001678:	02010113          	addi	sp,sp,32
    8000167c:	2a10106f          	j	8000311c <common_modify_bitb>

0000000080001680 <cpu_op_dcm>:
    80001680:	00161797          	auipc	a5,0x161
    80001684:	67078793          	addi	a5,a5,1648 # 80162cf0 <op_value>
    80001688:	0007a583          	lw	a1,0(a5)
    8000168c:	ff010113          	addi	sp,sp,-16
    80001690:	00113423          	sd	ra,8(sp)
    80001694:	fff5859b          	addiw	a1,a1,-1
    80001698:	0ff5f713          	andi	a4,a1,255
    8000169c:	00161517          	auipc	a0,0x161
    800016a0:	65855503          	lhu	a0,1624(a0) # 80162cf4 <op_address>
    800016a4:	0ff5f593          	andi	a1,a1,255
    800016a8:	00e7a023          	sw	a4,0(a5)
    800016ac:	388010ef          	jal	ra,80002a34 <memory_writeb>
    800016b0:	00813083          	ld	ra,8(sp)
    800016b4:	01010113          	addi	sp,sp,16
    800016b8:	f4dff06f          	j	80001604 <cpu_op_cmp>

00000000800016bc <cpu_op_cpx>:
    800016bc:	00161797          	auipc	a5,0x161
    800016c0:	63478793          	addi	a5,a5,1588 # 80162cf0 <op_value>
    800016c4:	0007a603          	lw	a2,0(a5)
    800016c8:	fe010113          	addi	sp,sp,-32
    800016cc:	00813823          	sd	s0,16(sp)
    800016d0:	00161417          	auipc	s0,0x161
    800016d4:	62c44403          	lbu	s0,1580(s0) # 80162cfc <cpu+0x4>
    800016d8:	00913423          	sd	s1,8(sp)
    800016dc:	40c404bb          	subw	s1,s0,a2
    800016e0:	fff4c613          	not	a2,s1
    800016e4:	00000593          	li	a1,0
    800016e8:	03f65613          	srli	a2,a2,0x3f
    800016ec:	00161517          	auipc	a0,0x161
    800016f0:	61250513          	addi	a0,a0,1554 # 80162cfe <cpu+0x6>
    800016f4:	00113c23          	sd	ra,24(sp)
    800016f8:	225010ef          	jal	ra,8000311c <common_modify_bitb>
    800016fc:	0014b613          	seqz	a2,s1
    80001700:	00100593          	li	a1,1
    80001704:	00161517          	auipc	a0,0x161
    80001708:	5fa50513          	addi	a0,a0,1530 # 80162cfe <cpu+0x6>
    8000170c:	211010ef          	jal	ra,8000311c <common_modify_bitb>
    80001710:	01013403          	ld	s0,16(sp)
    80001714:	4074d61b          	sraiw	a2,s1,0x7
    80001718:	01813083          	ld	ra,24(sp)
    8000171c:	00813483          	ld	s1,8(sp)
    80001720:	00167613          	andi	a2,a2,1
    80001724:	00700593          	li	a1,7
    80001728:	00161517          	auipc	a0,0x161
    8000172c:	5d650513          	addi	a0,a0,1494 # 80162cfe <cpu+0x6>
    80001730:	02010113          	addi	sp,sp,32
    80001734:	1e90106f          	j	8000311c <common_modify_bitb>

0000000080001738 <cpu_op_cpy>:
    80001738:	00161797          	auipc	a5,0x161
    8000173c:	5b878793          	addi	a5,a5,1464 # 80162cf0 <op_value>
    80001740:	0007a603          	lw	a2,0(a5)
    80001744:	fe010113          	addi	sp,sp,-32
    80001748:	00813823          	sd	s0,16(sp)
    8000174c:	00161417          	auipc	s0,0x161
    80001750:	5b144403          	lbu	s0,1457(s0) # 80162cfd <cpu+0x5>
    80001754:	00913423          	sd	s1,8(sp)
    80001758:	40c404bb          	subw	s1,s0,a2
    8000175c:	fff4c613          	not	a2,s1
    80001760:	00000593          	li	a1,0
    80001764:	03f65613          	srli	a2,a2,0x3f
    80001768:	00161517          	auipc	a0,0x161
    8000176c:	59650513          	addi	a0,a0,1430 # 80162cfe <cpu+0x6>
    80001770:	00113c23          	sd	ra,24(sp)
    80001774:	1a9010ef          	jal	ra,8000311c <common_modify_bitb>
    80001778:	0014b613          	seqz	a2,s1
    8000177c:	00100593          	li	a1,1
    80001780:	00161517          	auipc	a0,0x161
    80001784:	57e50513          	addi	a0,a0,1406 # 80162cfe <cpu+0x6>
    80001788:	195010ef          	jal	ra,8000311c <common_modify_bitb>
    8000178c:	01013403          	ld	s0,16(sp)
    80001790:	4074d61b          	sraiw	a2,s1,0x7
    80001794:	01813083          	ld	ra,24(sp)
    80001798:	00813483          	ld	s1,8(sp)
    8000179c:	00167613          	andi	a2,a2,1
    800017a0:	00700593          	li	a1,7
    800017a4:	00161517          	auipc	a0,0x161
    800017a8:	55a50513          	addi	a0,a0,1370 # 80162cfe <cpu+0x6>
    800017ac:	02010113          	addi	sp,sp,32
    800017b0:	16d0106f          	j	8000311c <common_modify_bitb>

00000000800017b4 <cpu_op_clc>:
    800017b4:	00000593          	li	a1,0
    800017b8:	00161517          	auipc	a0,0x161
    800017bc:	54650513          	addi	a0,a0,1350 # 80162cfe <cpu+0x6>
    800017c0:	1410106f          	j	80003100 <common_unset_bitb>

00000000800017c4 <cpu_op_cld>:
    800017c4:	00300593          	li	a1,3
    800017c8:	00161517          	auipc	a0,0x161
    800017cc:	53650513          	addi	a0,a0,1334 # 80162cfe <cpu+0x6>
    800017d0:	1310106f          	j	80003100 <common_unset_bitb>

00000000800017d4 <cpu_op_cli>:
    800017d4:	00200593          	li	a1,2
    800017d8:	00161517          	auipc	a0,0x161
    800017dc:	52650513          	addi	a0,a0,1318 # 80162cfe <cpu+0x6>
    800017e0:	1210106f          	j	80003100 <common_unset_bitb>

00000000800017e4 <cpu_op_clv>:
    800017e4:	00600593          	li	a1,6
    800017e8:	00161517          	auipc	a0,0x161
    800017ec:	51650513          	addi	a0,a0,1302 # 80162cfe <cpu+0x6>
    800017f0:	1110106f          	j	80003100 <common_unset_bitb>

00000000800017f4 <cpu_op_sec>:
    800017f4:	00000593          	li	a1,0
    800017f8:	00161517          	auipc	a0,0x161
    800017fc:	50650513          	addi	a0,a0,1286 # 80162cfe <cpu+0x6>
    80001800:	0e90106f          	j	800030e8 <common_set_bitb>

0000000080001804 <cpu_op_sed>:
    80001804:	00300593          	li	a1,3
    80001808:	00161517          	auipc	a0,0x161
    8000180c:	4f650513          	addi	a0,a0,1270 # 80162cfe <cpu+0x6>
    80001810:	0d90106f          	j	800030e8 <common_set_bitb>

0000000080001814 <cpu_op_sei>:
    80001814:	00200593          	li	a1,2
    80001818:	00161517          	auipc	a0,0x161
    8000181c:	4e650513          	addi	a0,a0,1254 # 80162cfe <cpu+0x6>
    80001820:	0c90106f          	j	800030e8 <common_set_bitb>

0000000080001824 <cpu_op_nop>:
    80001824:	00008067          	ret

0000000080001828 <cpu_ram_read>:
    80001828:	00161797          	auipc	a5,0x161
    8000182c:	4d878793          	addi	a5,a5,1240 # 80162d00 <CPU_RAM>
    80001830:	7ff57513          	andi	a0,a0,2047
    80001834:	00a78533          	add	a0,a5,a0
    80001838:	00054503          	lbu	a0,0(a0)
    8000183c:	00008067          	ret

0000000080001840 <cpu_ram_write>:
    80001840:	7ff57513          	andi	a0,a0,2047
    80001844:	00161797          	auipc	a5,0x161
    80001848:	4bc78793          	addi	a5,a5,1212 # 80162d00 <CPU_RAM>
    8000184c:	00a78533          	add	a0,a5,a0
    80001850:	00b50023          	sb	a1,0(a0)
    80001854:	00008067          	ret

0000000080001858 <cpu_init>:
    80001858:	f7010113          	addi	sp,sp,-144
    8000185c:	00500393          	li	t2,5
    80001860:	07213c23          	sd	s2,120(sp)
    80001864:	00300813          	li	a6,3
    80001868:	02039913          	slli	s2,t2,0x20
    8000186c:	05713823          	sd	s7,80(sp)
    80001870:	02181893          	slli	a7,a6,0x21
    80001874:	00290b93          	addi	s7,s2,2
    80001878:	0004a697          	auipc	a3,0x4a
    8000187c:	38068693          	addi	a3,a3,896 # 8004bbf8 <cpu_op_cycles>
    80001880:	08813423          	sd	s0,136(sp)
    80001884:	08913023          	sd	s1,128(sp)
    80001888:	07313823          	sd	s3,112(sp)
    8000188c:	07413423          	sd	s4,104(sp)
    80001890:	07513023          	sd	s5,96(sp)
    80001894:	05613c23          	sd	s6,88(sp)
    80001898:	05813423          	sd	s8,72(sp)
    8000189c:	05913023          	sd	s9,64(sp)
    800018a0:	03a13c23          	sd	s10,56(sp)
    800018a4:	03b13823          	sd	s11,48(sp)
    800018a8:	00300a13          	li	s4,3
    800018ac:	01713423          	sd	s7,8(sp)
    800018b0:	00788d13          	addi	s10,a7,7
    800018b4:	00100b93          	li	s7,1
    800018b8:	0004a717          	auipc	a4,0x4a
    800018bc:	74070713          	addi	a4,a4,1856 # 8004bff8 <cpu_op_handler>
    800018c0:	000b8913          	mv	s2,s7
    800018c4:	022b9d93          	slli	s11,s7,0x22
    800018c8:	01a6b023          	sd	s10,0(a3)
    800018cc:	fffffb97          	auipc	s7,0xfffff
    800018d0:	224b8b93          	addi	s7,s7,548 # 80000af0 <cpu_op_brk>
    800018d4:	020a1d13          	slli	s10,s4,0x20
    800018d8:	01773023          	sd	s7,0(a4)
    800018dc:	003d0b93          	addi	s7,s10,3
    800018e0:	00500d13          	li	s10,5
    800018e4:	01a6ac23          	sw	s10,24(a3)
    800018e8:	fffffd17          	auipc	s10,0xfffff
    800018ec:	164d0d13          	addi	s10,s10,356 # 80000a4c <cpu_op_php>
    800018f0:	05a73023          	sd	s10,64(a4)
    800018f4:	02191d13          	slli	s10,s2,0x21
    800018f8:	0004a797          	auipc	a5,0x4a
    800018fc:	b0078793          	addi	a5,a5,-1280 # 8004b3f8 <cpu_op_address_mode>
    80001900:	00001617          	auipc	a2,0x1
    80001904:	27060613          	addi	a2,a2,624 # 80002b70 <cpu_address_implied>
    80001908:	00001597          	auipc	a1,0x1
    8000190c:	2ac58593          	addi	a1,a1,684 # 80002bb4 <cpu_address_zero_page>
    80001910:	00001297          	auipc	t0,0x1
    80001914:	65828293          	addi	t0,t0,1624 # 80002f68 <cpu_address_indirect_x>
    80001918:	00001497          	auipc	s1,0x1
    8000191c:	25c48493          	addi	s1,s1,604 # 80002b74 <cpu_address_immediate>
    80001920:	fffff417          	auipc	s0,0xfffff
    80001924:	c2040413          	addi	s0,s0,-992 # 80000540 <cpu_op_ora>
    80001928:	00200993          	li	s3,2
    8000192c:	fffffc97          	auipc	s9,0xfffff
    80001930:	7dcc8c93          	addi	s9,s9,2012 # 80001108 <cpu_op_asl>
    80001934:	002d8d93          	addi	s11,s11,2
    80001938:	003d0d13          	addi	s10,s10,3
    8000193c:	01b13823          	sd	s11,16(sp)
    80001940:	01713c23          	sd	s7,24(sp)
    80001944:	0057b423          	sd	t0,8(a5)
    80001948:	0497b423          	sd	s1,72(a5)
    8000194c:	00c7b023          	sd	a2,0(a5)
    80001950:	00873423          	sd	s0,8(a4)
    80001954:	0146aa23          	sw	s4,20(a3)
    80001958:	02873423          	sd	s0,40(a4)
    8000195c:	02b7b423          	sd	a1,40(a5)
    80001960:	03973823          	sd	s9,48(a4)
    80001964:	02b7b823          	sd	a1,48(a5)
    80001968:	04c7b023          	sd	a2,64(a5)
    8000196c:	04873423          	sd	s0,72(a4)
    80001970:	03a6b023          	sd	s10,32(a3)
    80001974:	0336a423          	sw	s3,40(a3)
    80001978:	fffffd17          	auipc	s10,0xfffff
    8000197c:	724d0d13          	addi	s10,s10,1828 # 8000109c <cpu_op_asla>
    80001980:	05a73823          	sd	s10,80(a4)
    80001984:	00813b83          	ld	s7,8(sp)
    80001988:	07973823          	sd	s9,112(a4)
    8000198c:	0b973823          	sd	s9,176(a4)
    80001990:	0576b023          	sd	s7,64(a3)
    80001994:	00000b97          	auipc	s7,0x0
    80001998:	e20b8b93          	addi	s7,s7,-480 # 800017b4 <cpu_op_clc>
    8000199c:	0d773023          	sd	s7,192(a4)
    800019a0:	01013b83          	ld	s7,16(sp)
    800019a4:	0f973823          	sd	s9,240(a4)
    800019a8:	00600c93          	li	s9,6
    800019ac:	00001517          	auipc	a0,0x1
    800019b0:	33450513          	addi	a0,a0,820 # 80002ce0 <cpu_address_absolute>
    800019b4:	00001817          	auipc	a6,0x1
    800019b8:	25c80813          	addi	a6,a6,604 # 80002c10 <cpu_address_zero_page_x>
    800019bc:	00001897          	auipc	a7,0x1
    800019c0:	37088893          	addi	a7,a7,880 # 80002d2c <cpu_address_absolute_x>
    800019c4:	00600e13          	li	t3,6
    800019c8:	00001e97          	auipc	t4,0x1
    800019cc:	3f8e8e93          	addi	t4,t4,1016 # 80002dc0 <cpu_address_absolute_y>
    800019d0:	00001f97          	auipc	t6,0x1
    800019d4:	634f8f93          	addi	t6,t6,1588 # 80003004 <cpu_address_indirect_y>
    800019d8:	00700f13          	li	t5,7
    800019dc:	00400b13          	li	s6,4
    800019e0:	00001a97          	auipc	s5,0x1
    800019e4:	478a8a93          	addi	s5,s5,1144 # 80002e58 <cpu_address_relative>
    800019e8:	06873423          	sd	s0,104(a4)
    800019ec:	fffffd17          	auipc	s10,0xfffff
    800019f0:	3f8d0d13          	addi	s10,s10,1016 # 80000de4 <cpu_op_bpl>
    800019f4:	08873423          	sd	s0,136(a4)
    800019f8:	0a873423          	sd	s0,168(a4)
    800019fc:	0776b023          	sd	s7,96(a3)
    80001a00:	0c873423          	sd	s0,200(a4)
    80001a04:	000c8b93          	mv	s7,s9
    80001a08:	0e873423          	sd	s0,232(a4)
    80001a0c:	020c9c93          	slli	s9,s9,0x20
    80001a10:	fffff417          	auipc	s0,0xfffff
    80001a14:	08440413          	addi	s0,s0,132 # 80000a94 <cpu_op_jsr>
    80001a18:	06a7b423          	sd	a0,104(a5)
    80001a1c:	06a7b823          	sd	a0,112(a5)
    80001a20:	0957b023          	sd	s5,128(a5)
    80001a24:	017c8cb3          	add	s9,s9,s7
    80001a28:	04c7b823          	sd	a2,80(a5)
    80001a2c:	0366aa23          	sw	s6,52(a3)
    80001a30:	03c6ac23          	sw	t3,56(a3)
    80001a34:	09a73023          	sd	s10,128(a4)
    80001a38:	09f7b423          	sd	t6,136(a5)
    80001a3c:	0566aa23          	sw	s6,84(a3)
    80001a40:	0b07b423          	sd	a6,168(a5)
    80001a44:	05c6ac23          	sw	t3,88(a3)
    80001a48:	0b07b823          	sd	a6,176(a5)
    80001a4c:	0cc7b023          	sd	a2,192(a5)
    80001a50:	0dd7b423          	sd	t4,200(a5)
    80001a54:	0766aa23          	sw	s6,116(a3)
    80001a58:	0f17b423          	sd	a7,232(a5)
    80001a5c:	0f17b823          	sd	a7,240(a5)
    80001a60:	10873023          	sd	s0,256(a4)
    80001a64:	07e6ac23          	sw	t5,120(a3)
    80001a68:	10a7b023          	sd	a0,256(a5)
    80001a6c:	0996b023          	sd	s9,128(a3)
    80001a70:	fffffc97          	auipc	s9,0xfffff
    80001a74:	5c0c8c93          	addi	s9,s9,1472 # 80001030 <cpu_op_bit>
    80001a78:	13973023          	sd	s9,288(a4)
    80001a7c:	01813c83          	ld	s9,24(sp)
    80001a80:	fffff417          	auipc	s0,0xfffff
    80001a84:	15440413          	addi	s0,s0,340 # 80000bd4 <cpu_op_plp>
    80001a88:	14873023          	sd	s0,320(a4)
    80001a8c:	0996b823          	sd	s9,144(a3)
    80001a90:	00000c97          	auipc	s9,0x0
    80001a94:	898c8c93          	addi	s9,s9,-1896 # 80001328 <cpu_op_rola>
    80001a98:	15973823          	sd	s9,336(a4)
    80001a9c:	fffffc97          	auipc	s9,0xfffff
    80001aa0:	594c8c93          	addi	s9,s9,1428 # 80001030 <cpu_op_bit>
    80001aa4:	17973023          	sd	s9,352(a4)
    80001aa8:	02191c93          	slli	s9,s2,0x21
    80001aac:	004c8c93          	addi	s9,s9,4
    80001ab0:	0b96b823          	sd	s9,176(a3)
    80001ab4:	fffffc97          	auipc	s9,0xfffff
    80001ab8:	240c8c93          	addi	s9,s9,576 # 80000cf4 <cpu_op_bmi>
    80001abc:	19973023          	sd	s9,384(a4)
    80001ac0:	00813c83          	ld	s9,8(sp)
    80001ac4:	02191413          	slli	s0,s2,0x21
    80001ac8:	fffffc17          	auipc	s8,0xfffff
    80001acc:	9f8c0c13          	addi	s8,s8,-1544 # 800004c0 <cpu_op_and>
    80001ad0:	00600d13          	li	s10,6
    80001ad4:	00000d97          	auipc	s11,0x0
    80001ad8:	8dcd8d93          	addi	s11,s11,-1828 # 800013b0 <cpu_op_rol>
    80001adc:	00440413          	addi	s0,s0,4
    80001ae0:	1057b423          	sd	t0,264(a5)
    80001ae4:	1497b423          	sd	s1,328(a5)
    80001ae8:	16a7b023          	sd	a0,352(a5)
    80001aec:	16a7b423          	sd	a0,360(a5)
    80001af0:	16a7b823          	sd	a0,368(a5)
    80001af4:	1957b023          	sd	s5,384(a5)
    80001af8:	11873423          	sd	s8,264(a4)
    80001afc:	12b7b023          	sd	a1,288(a5)
    80001b00:	13873423          	sd	s8,296(a4)
    80001b04:	12b7b423          	sd	a1,296(a5)
    80001b08:	13b73823          	sd	s11,304(a4)
    80001b0c:	12b7b823          	sd	a1,304(a5)
    80001b10:	14c7b023          	sd	a2,320(a5)
    80001b14:	15873423          	sd	s8,328(a4)
    80001b18:	0a86b023          	sd	s0,160(a3)
    80001b1c:	0b36a423          	sw	s3,168(a3)
    80001b20:	14c7b823          	sd	a2,336(a5)
    80001b24:	17873423          	sd	s8,360(a4)
    80001b28:	0ba6ac23          	sw	s10,184(a3)
    80001b2c:	17b73823          	sd	s11,368(a4)
    80001b30:	0d96b023          	sd	s9,192(a3)
    80001b34:	0876ac23          	sw	t2,152(a3)
    80001b38:	19873423          	sd	s8,392(a4)
    80001b3c:	1b873423          	sd	s8,424(a4)
    80001b40:	1d873423          	sd	s8,456(a4)
    80001b44:	1f873423          	sd	s8,488(a4)
    80001b48:	fffffc17          	auipc	s8,0xfffff
    80001b4c:	0d4c0c13          	addi	s8,s8,212 # 80000c1c <cpu_op_rti>
    80001b50:	21873023          	sd	s8,512(a4)
    80001b54:	020b9c13          	slli	s8,s7,0x20
    80001b58:	017c0c33          	add	s8,s8,s7
    80001b5c:	00000c97          	auipc	s9,0x0
    80001b60:	c98c8c93          	addi	s9,s9,-872 # 800017f4 <cpu_op_sec>
    80001b64:	1d973023          	sd	s9,448(a4)
    80001b68:	1186b023          	sd	s8,256(a3)
    80001b6c:	01013c83          	ld	s9,16(sp)
    80001b70:	fffffc17          	auipc	s8,0xfffff
    80001b74:	6dcc0c13          	addi	s8,s8,1756 # 8000124c <cpu_op_lsr>
    80001b78:	23873823          	sd	s8,560(a4)
    80001b7c:	fffffc17          	auipc	s8,0xfffff
    80001b80:	ef8c0c13          	addi	s8,s8,-264 # 80000a74 <cpu_op_pha>
    80001b84:	fffff417          	auipc	s0,0xfffff
    80001b88:	97c40413          	addi	s0,s0,-1668 # 80000500 <cpu_op_eor>
    80001b8c:	25873023          	sd	s8,576(a4)
    80001b90:	02191c13          	slli	s8,s2,0x21
    80001b94:	2057b423          	sd	t0,520(a5)
    80001b98:	19f7b423          	sd	t6,392(a5)
    80001b9c:	0d66aa23          	sw	s6,212(a3)
    80001ba0:	1b07b423          	sd	a6,424(a5)
    80001ba4:	0da6ac23          	sw	s10,216(a3)
    80001ba8:	1bb73823          	sd	s11,432(a4)
    80001bac:	1b07b823          	sd	a6,432(a5)
    80001bb0:	1cc7b023          	sd	a2,448(a5)
    80001bb4:	0f96b023          	sd	s9,224(a3)
    80001bb8:	1dd7b423          	sd	t4,456(a5)
    80001bbc:	0f66aa23          	sw	s6,244(a3)
    80001bc0:	1f17b423          	sd	a7,488(a5)
    80001bc4:	1fb73823          	sd	s11,496(a4)
    80001bc8:	1f17b823          	sd	a7,496(a5)
    80001bcc:	20c7b023          	sd	a2,512(a5)
    80001bd0:	20873423          	sd	s0,520(a4)
    80001bd4:	1146aa23          	sw	s4,276(a3)
    80001bd8:	22873423          	sd	s0,552(a4)
    80001bdc:	22b7b423          	sd	a1,552(a5)
    80001be0:	22b7b823          	sd	a1,560(a5)
    80001be4:	24c7b023          	sd	a2,576(a5)
    80001be8:	003c0c13          	addi	s8,s8,3
    80001bec:	0fe6ac23          	sw	t5,248(a3)
    80001bf0:	1076ac23          	sw	t2,280(a3)
    80001bf4:	24873423          	sd	s0,584(a4)
    80001bf8:	1386b023          	sd	s8,288(a3)
    80001bfc:	fffffc17          	auipc	s8,0xfffff
    80001c00:	5e4c0c13          	addi	s8,s8,1508 # 800011e0 <cpu_op_lsra>
    80001c04:	25873823          	sd	s8,592(a4)
    80001c08:	fffffc17          	auipc	s8,0xfffff
    80001c0c:	b50c0c13          	addi	s8,s8,-1200 # 80000758 <cpu_op_jmp>
    80001c10:	27873023          	sd	s8,608(a4)
    80001c14:	fffffc17          	auipc	s8,0xfffff
    80001c18:	20cc0c13          	addi	s8,s8,524 # 80000e20 <cpu_op_bvc>
    80001c1c:	29873023          	sd	s8,640(a4)
    80001c20:	00813c03          	ld	s8,8(sp)
    80001c24:	02291d93          	slli	s11,s2,0x22
    80001c28:	003d8d93          	addi	s11,s11,3
    80001c2c:	1586b023          	sd	s8,320(a3)
    80001c30:	00000c17          	auipc	s8,0x0
    80001c34:	ba4c0c13          	addi	s8,s8,-1116 # 800017d4 <cpu_op_cli>
    80001c38:	2d873023          	sd	s8,704(a4)
    80001c3c:	01013c03          	ld	s8,16(sp)
    80001c40:	13b6b823          	sd	s11,304(a3)
    80001c44:	fffffd97          	auipc	s11,0xfffff
    80001c48:	608d8d93          	addi	s11,s11,1544 # 8000124c <cpu_op_lsr>
    80001c4c:	2497b423          	sd	s1,584(a5)
    80001c50:	26a7b023          	sd	a0,608(a5)
    80001c54:	26a7b423          	sd	a0,616(a5)
    80001c58:	26a7b823          	sd	a0,624(a5)
    80001c5c:	2957b023          	sd	s5,640(a5)
    80001c60:	1336a423          	sw	s3,296(a3)
    80001c64:	24c7b823          	sd	a2,592(a5)
    80001c68:	26873423          	sd	s0,616(a4)
    80001c6c:	13a6ac23          	sw	s10,312(a3)
    80001c70:	27b73823          	sd	s11,624(a4)
    80001c74:	28873423          	sd	s0,648(a4)
    80001c78:	29f7b423          	sd	t6,648(a5)
    80001c7c:	1566aa23          	sw	s6,340(a3)
    80001c80:	2a873423          	sd	s0,680(a4)
    80001c84:	2b07b423          	sd	a6,680(a5)
    80001c88:	15a6ac23          	sw	s10,344(a3)
    80001c8c:	2bb73823          	sd	s11,688(a4)
    80001c90:	2b07b823          	sd	a6,688(a5)
    80001c94:	2cc7b023          	sd	a2,704(a5)
    80001c98:	1786b023          	sd	s8,352(a3)
    80001c9c:	2c873423          	sd	s0,712(a4)
    80001ca0:	2dd7b423          	sd	t4,712(a5)
    80001ca4:	1766aa23          	sw	s6,372(a3)
    80001ca8:	2e873423          	sd	s0,744(a4)
    80001cac:	2fb73823          	sd	s11,752(a4)
    80001cb0:	fffff417          	auipc	s0,0xfffff
    80001cb4:	bf440413          	addi	s0,s0,-1036 # 800008a4 <cpu_op_rts>
    80001cb8:	020b9d93          	slli	s11,s7,0x20
    80001cbc:	30873023          	sd	s0,768(a4)
    80001cc0:	017d8433          	add	s0,s11,s7
    80001cc4:	00300b93          	li	s7,3
    80001cc8:	021b9b93          	slli	s7,s7,0x21
    80001ccc:	002b8b93          	addi	s7,s7,2
    80001cd0:	03713023          	sd	s7,32(sp)
    80001cd4:	fffffb97          	auipc	s7,0xfffff
    80001cd8:	a84b8b93          	addi	s7,s7,-1404 # 80000758 <cpu_op_jmp>
    80001cdc:	37773023          	sd	s7,864(a4)
    80001ce0:	00001b97          	auipc	s7,0x1
    80001ce4:	1f8b8b93          	addi	s7,s7,504 # 80002ed8 <cpu_address_indirect>
    80001ce8:	3777b023          	sd	s7,864(a5)
    80001cec:	1886b023          	sd	s0,384(a3)
    80001cf0:	02291b93          	slli	s7,s2,0x22
    80001cf4:	00000417          	auipc	s0,0x0
    80001cf8:	85440413          	addi	s0,s0,-1964 # 80001548 <cpu_op_ror>
    80001cfc:	32873823          	sd	s0,816(a4)
    80001d00:	02191d93          	slli	s11,s2,0x21
    80001d04:	fffff417          	auipc	s0,0xfffff
    80001d08:	e7040413          	addi	s0,s0,-400 # 80000b74 <cpu_op_pla>
    80001d0c:	005b8b93          	addi	s7,s7,5
    80001d10:	fffffc97          	auipc	s9,0xfffff
    80001d14:	14cc8c93          	addi	s9,s9,332 # 80000e5c <cpu_op_adc>
    80001d18:	34873023          	sd	s0,832(a4)
    80001d1c:	004d8d93          	addi	s11,s11,4
    80001d20:	fffff417          	auipc	s0,0xfffff
    80001d24:	79840413          	addi	s0,s0,1944 # 800014b8 <cpu_op_rora>
    80001d28:	1b76b823          	sd	s7,432(a3)
    80001d2c:	00000b97          	auipc	s7,0x0
    80001d30:	81cb8b93          	addi	s7,s7,-2020 # 80001548 <cpu_op_ror>
    80001d34:	3057b423          	sd	t0,776(a5)
    80001d38:	3497b423          	sd	s1,840(a5)
    80001d3c:	36a7b423          	sd	a0,872(a5)
    80001d40:	36a7b823          	sd	a0,880(a5)
    80001d44:	2f17b423          	sd	a7,744(a5)
    80001d48:	2f17b823          	sd	a7,752(a5)
    80001d4c:	30c7b023          	sd	a2,768(a5)
    80001d50:	31973423          	sd	s9,776(a4)
    80001d54:	1946aa23          	sw	s4,404(a3)
    80001d58:	33973423          	sd	s9,808(a4)
    80001d5c:	32b7b423          	sd	a1,808(a5)
    80001d60:	32b7b823          	sd	a1,816(a5)
    80001d64:	34c7b023          	sd	a2,832(a5)
    80001d68:	35973423          	sd	s9,840(a4)
    80001d6c:	1bb6b023          	sd	s11,416(a3)
    80001d70:	1b36a423          	sw	s3,424(a3)
    80001d74:	34873823          	sd	s0,848(a4)
    80001d78:	02291c13          	slli	s8,s2,0x22
    80001d7c:	34c7b823          	sd	a2,848(a5)
    80001d80:	37973423          	sd	s9,872(a4)
    80001d84:	1ba6ac23          	sw	s10,440(a3)
    80001d88:	37773823          	sd	s7,880(a4)
    80001d8c:	fffff917          	auipc	s2,0xfffff
    80001d90:	fa490913          	addi	s2,s2,-92 # 80000d30 <cpu_op_bvs>
    80001d94:	17e6ac23          	sw	t5,376(a3)
    80001d98:	1876ac23          	sw	t2,408(a3)
    80001d9c:	39273023          	sd	s2,896(a4)
    80001da0:	00813903          	ld	s2,8(sp)
    80001da4:	3b773823          	sd	s7,944(a4)
    80001da8:	3f773823          	sd	s7,1008(a4)
    80001dac:	1d26b023          	sd	s2,448(a3)
    80001db0:	fffffb97          	auipc	s7,0xfffff
    80001db4:	b60b8b93          	addi	s7,s7,-1184 # 80000910 <cpu_op_sty>
    80001db8:	00000917          	auipc	s2,0x0
    80001dbc:	a5c90913          	addi	s2,s2,-1444 # 80001814 <cpu_op_sei>
    80001dc0:	3d273023          	sd	s2,960(a4)
    80001dc4:	43773023          	sd	s7,1056(a4)
    80001dc8:	01013903          	ld	s2,16(sp)
    80001dcc:	01813b83          	ld	s7,24(sp)
    80001dd0:	fffffd97          	auipc	s11,0xfffff
    80001dd4:	b18d8d93          	addi	s11,s11,-1256 # 800008e8 <cpu_op_sta>
    80001dd8:	3957b023          	sd	s5,896(a5)
    80001ddc:	4057b423          	sd	t0,1032(a5)
    80001de0:	39973423          	sd	s9,904(a4)
    80001de4:	39f7b423          	sd	t6,904(a5)
    80001de8:	1d66aa23          	sw	s6,468(a3)
    80001dec:	3b973423          	sd	s9,936(a4)
    80001df0:	3b07b423          	sd	a6,936(a5)
    80001df4:	1da6ac23          	sw	s10,472(a3)
    80001df8:	3b07b823          	sd	a6,944(a5)
    80001dfc:	3cc7b023          	sd	a2,960(a5)
    80001e00:	1f26b023          	sd	s2,480(a3)
    80001e04:	3d973423          	sd	s9,968(a4)
    80001e08:	3dd7b423          	sd	t4,968(a5)
    80001e0c:	1f66aa23          	sw	s6,500(a3)
    80001e10:	3f973423          	sd	s9,1000(a4)
    80001e14:	3f17b423          	sd	a7,1000(a5)
    80001e18:	3f17b823          	sd	a7,1008(a5)
    80001e1c:	21a6a223          	sw	s10,516(a3)
    80001e20:	41b73423          	sd	s11,1032(a4)
    80001e24:	42b7b023          	sd	a1,1056(a5)
    80001e28:	43b73423          	sd	s11,1064(a4)
    80001e2c:	42b7b423          	sd	a1,1064(a5)
    80001e30:	2176b823          	sd	s7,528(a3)
    80001e34:	1fe6ac23          	sw	t5,504(a3)
    80001e38:	fffffb97          	auipc	s7,0xfffff
    80001e3c:	ac4b8b93          	addi	s7,s7,-1340 # 800008fc <cpu_op_stx>
    80001e40:	2146ac23          	sw	s4,536(a3)
    80001e44:	43773823          	sd	s7,1072(a4)
    80001e48:	fffffb97          	auipc	s7,0xfffff
    80001e4c:	ac8b8b93          	addi	s7,s7,-1336 # 80000910 <cpu_op_sty>
    80001e50:	47773023          	sd	s7,1120(a4)
    80001e54:	fffffb97          	auipc	s7,0xfffff
    80001e58:	aa8b8b93          	addi	s7,s7,-1368 # 800008fc <cpu_op_stx>
    80001e5c:	47773823          	sd	s7,1136(a4)
    80001e60:	02013b83          	ld	s7,32(sp)
    80001e64:	fffff917          	auipc	s2,0xfffff
    80001e68:	9c090913          	addi	s2,s2,-1600 # 80000824 <cpu_op_dey>
    80001e6c:	45273023          	sd	s2,1088(a4)
    80001e70:	2576b023          	sd	s7,576(a3)
    80001e74:	fffff917          	auipc	s2,0xfffff
    80001e78:	80090913          	addi	s2,s2,-2048 # 80000674 <cpu_op_txa>
    80001e7c:	fffffb97          	auipc	s7,0xfffff
    80001e80:	a94b8b93          	addi	s7,s7,-1388 # 80000910 <cpu_op_sty>
    80001e84:	45273823          	sd	s2,1104(a4)
    80001e88:	4b773023          	sd	s7,1184(a4)
    80001e8c:	fffff917          	auipc	s2,0xfffff
    80001e90:	f1c90913          	addi	s2,s2,-228 # 80000da8 <cpu_op_bcc>
    80001e94:	00100b93          	li	s7,1
    80001e98:	49273023          	sd	s2,1152(a4)
    80001e9c:	021b9913          	slli	s2,s7,0x21
    80001ea0:	00290b93          	addi	s7,s2,2
    80001ea4:	03713423          	sd	s7,40(sp)
    80001ea8:	fffffb97          	auipc	s7,0xfffff
    80001eac:	a54b8b93          	addi	s7,s7,-1452 # 800008fc <cpu_op_stx>
    80001eb0:	00400413          	li	s0,4
    80001eb4:	004c0c13          	addi	s8,s8,4
    80001eb8:	4b773823          	sd	s7,1200(a4)
    80001ebc:	fffff917          	auipc	s2,0xfffff
    80001ec0:	82090913          	addi	s2,s2,-2016 # 800006dc <cpu_op_tya>
    80001ec4:	00001b97          	auipc	s7,0x1
    80001ec8:	db4b8b93          	addi	s7,s7,-588 # 80002c78 <cpu_address_zero_page_y>
    80001ecc:	46a7b023          	sd	a0,1120(a5)
    80001ed0:	46a7b423          	sd	a0,1128(a5)
    80001ed4:	46a7b823          	sd	a0,1136(a5)
    80001ed8:	4957b023          	sd	s5,1152(a5)
    80001edc:	4b77b823          	sd	s7,1200(a5)
    80001ee0:	42b7b823          	sd	a1,1072(a5)
    80001ee4:	2336a023          	sw	s3,544(a3)
    80001ee8:	44c7b023          	sd	a2,1088(a5)
    80001eec:	2336a423          	sw	s3,552(a3)
    80001ef0:	44c7b823          	sd	a2,1104(a5)
    80001ef4:	47b73423          	sd	s11,1128(a4)
    80001ef8:	2386b823          	sd	s8,560(a3)
    80001efc:	2286ac23          	sw	s0,568(a3)
    80001f00:	49b73423          	sd	s11,1160(a4)
    80001f04:	49f7b423          	sd	t6,1160(a5)
    80001f08:	4b07b023          	sd	a6,1184(a5)
    80001f0c:	4bb73423          	sd	s11,1192(a4)
    80001f10:	4b07b423          	sd	a6,1192(a5)
    80001f14:	2586b823          	sd	s8,592(a3)
    80001f18:	2486ac23          	sw	s0,600(a3)
    80001f1c:	4d273023          	sd	s2,1216(a4)
    80001f20:	4cc7b023          	sd	a2,1216(a5)
    80001f24:	00813903          	ld	s2,8(sp)
    80001f28:	01813b83          	ld	s7,24(sp)
    80001f2c:	4db73423          	sd	s11,1224(a4)
    80001f30:	4fb73423          	sd	s11,1256(a4)
    80001f34:	02013d83          	ld	s11,32(sp)
    80001f38:	2736a423          	sw	s3,616(a3)
    80001f3c:	2936a423          	sw	s3,648(a3)
    80001f40:	ffffe997          	auipc	s3,0xffffe
    80001f44:	76898993          	addi	s3,s3,1896 # 800006a8 <cpu_op_tay>
    80001f48:	ffffeb17          	auipc	s6,0xffffe
    80001f4c:	638b0b13          	addi	s6,s6,1592 # 80000580 <cpu_op_lda>
    80001f50:	ffffed17          	auipc	s10,0xffffe
    80001f54:	6b0d0d13          	addi	s10,s10,1712 # 80000600 <cpu_op_ldy>
    80001f58:	ffffec97          	auipc	s9,0xffffe
    80001f5c:	668c8c93          	addi	s9,s9,1640 # 800005c0 <cpu_op_ldx>
    80001f60:	2726b023          	sd	s2,608(a3)
    80001f64:	55373023          	sd	s3,1344(a4)
    80001f68:	ffffe917          	auipc	s2,0xffffe
    80001f6c:	7dc90913          	addi	s2,s2,2012 # 80000744 <cpu_op_txs>
    80001f70:	00200993          	li	s3,2
    80001f74:	5097b023          	sd	s1,1280(a5)
    80001f78:	5057b423          	sd	t0,1288(a5)
    80001f7c:	5097b823          	sd	s1,1296(a5)
    80001f80:	5497b423          	sd	s1,1352(a5)
    80001f84:	4dd7b423          	sd	t4,1224(a5)
    80001f88:	4cc7b823          	sd	a2,1232(a5)
    80001f8c:	4f17b423          	sd	a7,1256(a5)
    80001f90:	51a73023          	sd	s10,1280(a4)
    80001f94:	51673423          	sd	s6,1288(a4)
    80001f98:	29b6b023          	sd	s11,640(a3)
    80001f9c:	51973823          	sd	s9,1296(a4)
    80001fa0:	53a73023          	sd	s10,1312(a4)
    80001fa4:	52b7b023          	sd	a1,1312(a5)
    80001fa8:	53673423          	sd	s6,1320(a4)
    80001fac:	52b7b423          	sd	a1,1320(a5)
    80001fb0:	2976b823          	sd	s7,656(a3)
    80001fb4:	2946ac23          	sw	s4,664(a3)
    80001fb8:	53973823          	sd	s9,1328(a4)
    80001fbc:	52b7b823          	sd	a1,1328(a5)
    80001fc0:	54c7b023          	sd	a2,1344(a5)
    80001fc4:	55673423          	sd	s6,1352(a4)
    80001fc8:	4d273823          	sd	s2,1232(a4)
    80001fcc:	2676aa23          	sw	t2,628(a3)
    80001fd0:	02813903          	ld	s2,40(sp)
    80001fd4:	2b36a423          	sw	s3,680(a3)
    80001fd8:	ffffe997          	auipc	s3,0xffffe
    80001fdc:	66898993          	addi	s3,s3,1640 # 80000640 <cpu_op_tax>
    80001fe0:	55373823          	sd	s3,1360(a4)
    80001fe4:	fffff997          	auipc	s3,0xfffff
    80001fe8:	c9898993          	addi	s3,s3,-872 # 80000c7c <cpu_op_bcs>
    80001fec:	59373023          	sd	s3,1408(a4)
    80001ff0:	00813983          	ld	s3,8(sp)
    80001ff4:	56a7b023          	sd	a0,1376(a5)
    80001ff8:	56a7b423          	sd	a0,1384(a5)
    80001ffc:	2d36b023          	sd	s3,704(a3)
    80002000:	00001997          	auipc	s3,0x1
    80002004:	c7898993          	addi	s3,s3,-904 # 80002c78 <cpu_address_zero_page_y>
    80002008:	5b37b823          	sd	s3,1456(a5)
    8000200c:	fffff997          	auipc	s3,0xfffff
    80002010:	7d898993          	addi	s3,s3,2008 # 800017e4 <cpu_op_clv>
    80002014:	5d373023          	sd	s3,1472(a4)
    80002018:	01013983          	ld	s3,16(sp)
    8000201c:	56a7b823          	sd	a0,1392(a5)
    80002020:	5957b023          	sd	s5,1408(a5)
    80002024:	2b26b023          	sd	s2,672(a3)
    80002028:	54c7b823          	sd	a2,1360(a5)
    8000202c:	57a73023          	sd	s10,1376(a4)
    80002030:	57673423          	sd	s6,1384(a4)
    80002034:	2b86b823          	sd	s8,688(a3)
    80002038:	2a86ac23          	sw	s0,696(a3)
    8000203c:	57973823          	sd	s9,1392(a4)
    80002040:	59673423          	sd	s6,1416(a4)
    80002044:	59f7b423          	sd	t6,1416(a5)
    80002048:	5ba73023          	sd	s10,1440(a4)
    8000204c:	5b07b023          	sd	a6,1440(a5)
    80002050:	5b673423          	sd	s6,1448(a4)
    80002054:	5b07b423          	sd	a6,1448(a5)
    80002058:	2d86b823          	sd	s8,720(a3)
    8000205c:	2c86ac23          	sw	s0,728(a3)
    80002060:	5b973823          	sd	s9,1456(a4)
    80002064:	5cc7b023          	sd	a2,1472(a5)
    80002068:	5d673423          	sd	s6,1480(a4)
    8000206c:	5dd7b423          	sd	t4,1480(a5)
    80002070:	2f36b023          	sd	s3,736(a3)
    80002074:	5f673423          	sd	s6,1512(a4)
    80002078:	00500b13          	li	s6,5
    8000207c:	5f973823          	sd	s9,1520(a4)
    80002080:	3166ac23          	sw	s6,792(a3)
    80002084:	02013c83          	ld	s9,32(sp)
    80002088:	ffffeb17          	auipc	s6,0xffffe
    8000208c:	724b0b13          	addi	s6,s6,1828 # 800007ac <cpu_op_iny>
    80002090:	00200993          	li	s3,2
    80002094:	5fa73023          	sd	s10,1504(a4)
    80002098:	65673023          	sd	s6,1600(a4)
    8000209c:	fffffd17          	auipc	s10,0xfffff
    800020a0:	69cd0d13          	addi	s10,s10,1692 # 80001738 <cpu_op_cpy>
    800020a4:	00200b13          	li	s6,2
    800020a8:	fffffd97          	auipc	s11,0xfffff
    800020ac:	55cd8d93          	addi	s11,s11,1372 # 80001604 <cpu_op_cmp>
    800020b0:	2f36a423          	sw	s3,744(a3)
    800020b4:	61a73023          	sd	s10,1536(a4)
    800020b8:	ffffe997          	auipc	s3,0xffffe
    800020bc:	65898993          	addi	s3,s3,1624 # 80000710 <cpu_op_tsx>
    800020c0:	63a73023          	sd	s10,1568(a4)
    800020c4:	3366a423          	sw	s6,808(a3)
    800020c8:	fffffd17          	auipc	s10,0xfffff
    800020cc:	8c4d0d13          	addi	s10,s10,-1852 # 8000098c <cpu_op_dec>
    800020d0:	ffffeb17          	auipc	s6,0xffffe
    800020d4:	718b0b13          	addi	s6,s6,1816 # 800007e8 <cpu_op_dex>
    800020d8:	6097b023          	sd	s1,1536(a5)
    800020dc:	6057b423          	sd	t0,1544(a5)
    800020e0:	6497b423          	sd	s1,1608(a5)
    800020e4:	5d373823          	sd	s3,1488(a4)
    800020e8:	5cc7b823          	sd	a2,1488(a5)
    800020ec:	5f17b023          	sd	a7,1504(a5)
    800020f0:	5f17b423          	sd	a7,1512(a5)
    800020f4:	2f86b823          	sd	s8,752(a3)
    800020f8:	2e86ac23          	sw	s0,760(a3)
    800020fc:	5fd7b823          	sd	t4,1520(a5)
    80002100:	3196b023          	sd	s9,768(a3)
    80002104:	61b73423          	sd	s11,1544(a4)
    80002108:	62b7b023          	sd	a1,1568(a5)
    8000210c:	63b73423          	sd	s11,1576(a4)
    80002110:	62b7b423          	sd	a1,1576(a5)
    80002114:	3176b823          	sd	s7,784(a3)
    80002118:	63a73823          	sd	s10,1584(a4)
    8000211c:	62b7b823          	sd	a1,1584(a5)
    80002120:	64c7b023          	sd	a2,1600(a5)
    80002124:	65b73423          	sd	s11,1608(a4)
    80002128:	3326b023          	sd	s2,800(a3)
    8000212c:	65673823          	sd	s6,1616(a4)
    80002130:	fffffb17          	auipc	s6,0xfffff
    80002134:	85cb0b13          	addi	s6,s6,-1956 # 8000098c <cpu_op_dec>
    80002138:	64c7b823          	sd	a2,1616(a5)
    8000213c:	67673823          	sd	s6,1648(a4)
    80002140:	fffffb17          	auipc	s6,0xfffff
    80002144:	c2cb0b13          	addi	s6,s6,-980 # 80000d6c <cpu_op_bne>
    80002148:	69673023          	sd	s6,1664(a4)
    8000214c:	00813b03          	ld	s6,8(sp)
    80002150:	fffffd17          	auipc	s10,0xfffff
    80002154:	5e8d0d13          	addi	s10,s10,1512 # 80001738 <cpu_op_cpy>
    80002158:	67b73423          	sd	s11,1640(a4)
    8000215c:	3566b023          	sd	s6,832(a3)
    80002160:	fffffb17          	auipc	s6,0xfffff
    80002164:	82cb0b13          	addi	s6,s6,-2004 # 8000098c <cpu_op_dec>
    80002168:	6b673823          	sd	s6,1712(a4)
    8000216c:	fffffb17          	auipc	s6,0xfffff
    80002170:	658b0b13          	addi	s6,s6,1624 # 800017c4 <cpu_op_cld>
    80002174:	6d673023          	sd	s6,1728(a4)
    80002178:	01013b03          	ld	s6,16(sp)
    8000217c:	69b73423          	sd	s11,1672(a4)
    80002180:	6bb73423          	sd	s11,1704(a4)
    80002184:	6db73423          	sd	s11,1736(a4)
    80002188:	6fb73423          	sd	s11,1768(a4)
    8000218c:	fffffd97          	auipc	s11,0xfffff
    80002190:	800d8d93          	addi	s11,s11,-2048 # 8000098c <cpu_op_dec>
    80002194:	66a7b023          	sd	a0,1632(a5)
    80002198:	66a7b423          	sd	a0,1640(a5)
    8000219c:	66a7b823          	sd	a0,1648(a5)
    800021a0:	6957b023          	sd	s5,1664(a5)
    800021a4:	67a73023          	sd	s10,1632(a4)
    800021a8:	3386b823          	sd	s8,816(a3)
    800021ac:	33c6ac23          	sw	t3,824(a3)
    800021b0:	69f7b423          	sd	t6,1672(a5)
    800021b4:	3486aa23          	sw	s0,852(a3)
    800021b8:	6b07b423          	sd	a6,1704(a5)
    800021bc:	35c6ac23          	sw	t3,856(a3)
    800021c0:	6b07b823          	sd	a6,1712(a5)
    800021c4:	6cc7b023          	sd	a2,1728(a5)
    800021c8:	3766b023          	sd	s6,864(a3)
    800021cc:	6dd7b423          	sd	t4,1736(a5)
    800021d0:	fffffb17          	auipc	s6,0xfffff
    800021d4:	4ecb0b13          	addi	s6,s6,1260 # 800016bc <cpu_op_cpx>
    800021d8:	3686aa23          	sw	s0,884(a3)
    800021dc:	6f17b423          	sd	a7,1768(a5)
    800021e0:	6fb73823          	sd	s11,1776(a4)
    800021e4:	6f17b823          	sd	a7,1776(a5)
    800021e8:	37e6ac23          	sw	t5,888(a3)
    800021ec:	71673023          	sd	s6,1792(a4)
    800021f0:	ffffed97          	auipc	s11,0xffffe
    800021f4:	580d8d93          	addi	s11,s11,1408 # 80000770 <cpu_op_inx>
    800021f8:	3b26b023          	sd	s2,928(a3)
    800021fc:	00813903          	ld	s2,8(sp)
    80002200:	75b73023          	sd	s11,1856(a4)
    80002204:	fffffd97          	auipc	s11,0xfffff
    80002208:	620d8d93          	addi	s11,s11,1568 # 80001824 <cpu_op_nop>
    8000220c:	fffff997          	auipc	s3,0xfffff
    80002210:	d1898993          	addi	s3,s3,-744 # 80000f24 <cpu_op_sbc>
    80002214:	ffffed17          	auipc	s10,0xffffe
    80002218:	710d0d13          	addi	s10,s10,1808 # 80000924 <cpu_op_inc>
    8000221c:	3976b823          	sd	s7,912(a3)
    80002220:	75b73823          	sd	s11,1872(a4)
    80002224:	00200b93          	li	s7,2
    80002228:	fffffd97          	auipc	s11,0xfffff
    8000222c:	494d8d93          	addi	s11,s11,1172 # 800016bc <cpu_op_cpx>
    80002230:	3b86b823          	sd	s8,944(a3)
    80002234:	fffffc17          	auipc	s8,0xfffff
    80002238:	a84c0c13          	addi	s8,s8,-1404 # 80000cb8 <cpu_op_beq>
    8000223c:	7097b023          	sd	s1,1792(a5)
    80002240:	7057b423          	sd	t0,1800(a5)
    80002244:	7497b423          	sd	s1,1864(a5)
    80002248:	76a7b023          	sd	a0,1888(a5)
    8000224c:	76a7b423          	sd	a0,1896(a5)
    80002250:	76a7b823          	sd	a0,1904(a5)
    80002254:	7957b023          	sd	s5,1920(a5)
    80002258:	3996b023          	sd	s9,896(a3)
    8000225c:	71373423          	sd	s3,1800(a4)
    80002260:	73673023          	sd	s6,1824(a4)
    80002264:	72b7b023          	sd	a1,1824(a5)
    80002268:	73373423          	sd	s3,1832(a4)
    8000226c:	72b7b423          	sd	a1,1832(a5)
    80002270:	73a73823          	sd	s10,1840(a4)
    80002274:	72b7b823          	sd	a1,1840(a5)
    80002278:	74c7b023          	sd	a2,1856(a5)
    8000227c:	75373423          	sd	s3,1864(a4)
    80002280:	3b76a423          	sw	s7,936(a3)
    80002284:	74c7b823          	sd	a2,1872(a5)
    80002288:	77b73023          	sd	s11,1888(a4)
    8000228c:	77373423          	sd	s3,1896(a4)
    80002290:	3bc6ac23          	sw	t3,952(a3)
    80002294:	77a73823          	sd	s10,1904(a4)
    80002298:	79873023          	sd	s8,1920(a4)
    8000229c:	3d26b023          	sd	s2,960(a3)
    800022a0:	3876ac23          	sw	t2,920(a3)
    800022a4:	79373423          	sd	s3,1928(a4)
    800022a8:	01013b83          	ld	s7,16(sp)
    800022ac:	00800b13          	li	s6,8
    800022b0:	fffffc97          	auipc	s9,0xfffff
    800022b4:	edcc8c93          	addi	s9,s9,-292 # 8000118c <cpu_op_aso>
    800022b8:	fffffc17          	auipc	s8,0xfffff
    800022bc:	54cc0c13          	addi	s8,s8,1356 # 80001804 <cpu_op_sed>
    800022c0:	fffffa97          	auipc	s5,0xfffff
    800022c4:	1a4a8a93          	addi	s5,s5,420 # 80001464 <cpu_op_rla>
    800022c8:	fffff917          	auipc	s2,0xfffff
    800022cc:	00c90913          	addi	s2,s2,12 # 800012d4 <cpu_op_lse>
    800022d0:	0057bc23          	sd	t0,24(a5)
    800022d4:	06a7bc23          	sd	a0,120(a5)
    800022d8:	79f7b423          	sd	t6,1928(a5)
    800022dc:	3c86aa23          	sw	s0,980(a3)
    800022e0:	7b373423          	sd	s3,1960(a4)
    800022e4:	7b07b423          	sd	a6,1960(a5)
    800022e8:	3dc6ac23          	sw	t3,984(a3)
    800022ec:	7ba73823          	sd	s10,1968(a4)
    800022f0:	7b07b823          	sd	a6,1968(a5)
    800022f4:	7d873023          	sd	s8,1984(a4)
    800022f8:	7cc7b023          	sd	a2,1984(a5)
    800022fc:	3f76b023          	sd	s7,992(a3)
    80002300:	7d373423          	sd	s3,1992(a4)
    80002304:	7dd7b423          	sd	t4,1992(a5)
    80002308:	3e86aa23          	sw	s0,1012(a3)
    8000230c:	7f373423          	sd	s3,2024(a4)
    80002310:	7f17b423          	sd	a7,2024(a5)
    80002314:	7fa73823          	sd	s10,2032(a4)
    80002318:	7f17b823          	sd	a7,2032(a5)
    8000231c:	0166a623          	sw	s6,12(a3)
    80002320:	01973c23          	sd	s9,24(a4)
    80002324:	03973c23          	sd	s9,56(a4)
    80002328:	02b7bc23          	sd	a1,56(a5)
    8000232c:	03c6ae23          	sw	t3,60(a3)
    80002330:	07973c23          	sd	s9,120(a4)
    80002334:	0566a623          	sw	s6,76(a3)
    80002338:	09973c23          	sd	s9,152(a4)
    8000233c:	09f7bc23          	sd	t6,152(a5)
    80002340:	05c6ae23          	sw	t3,92(a3)
    80002344:	3fe6ac23          	sw	t5,1016(a3)
    80002348:	0076ae23          	sw	t2,28(a3)
    8000234c:	0b973c23          	sd	s9,184(a4)
    80002350:	fffffb97          	auipc	s7,0xfffff
    80002354:	29cb8b93          	addi	s7,s7,668 # 800015ec <cpu_op_rra>
    80002358:	1057bc23          	sd	t0,280(a5)
    8000235c:	16a7bc23          	sd	a0,376(a5)
    80002360:	2057bc23          	sd	t0,536(a5)
    80002364:	0b07bc23          	sd	a6,184(a5)
    80002368:	0d973c23          	sd	s9,216(a4)
    8000236c:	0dd7bc23          	sd	t4,216(a5)
    80002370:	0f973c23          	sd	s9,248(a4)
    80002374:	0f17bc23          	sd	a7,248(a5)
    80002378:	0966a623          	sw	s6,140(a3)
    8000237c:	11573c23          	sd	s5,280(a4)
    80002380:	13573c23          	sd	s5,312(a4)
    80002384:	12b7bc23          	sd	a1,312(a5)
    80002388:	0bc6ae23          	sw	t3,188(a3)
    8000238c:	17573c23          	sd	s5,376(a4)
    80002390:	0d66a623          	sw	s6,204(a3)
    80002394:	19573c23          	sd	s5,408(a4)
    80002398:	19f7bc23          	sd	t6,408(a5)
    8000239c:	0dc6ae23          	sw	t3,220(a3)
    800023a0:	1b573c23          	sd	s5,440(a4)
    800023a4:	1b07bc23          	sd	a6,440(a5)
    800023a8:	1d573c23          	sd	s5,472(a4)
    800023ac:	1dd7bc23          	sd	t4,472(a5)
    800023b0:	1f573c23          	sd	s5,504(a4)
    800023b4:	1f17bc23          	sd	a7,504(a5)
    800023b8:	1166a623          	sw	s6,268(a3)
    800023bc:	21273c23          	sd	s2,536(a4)
    800023c0:	07e6a623          	sw	t5,108(a3)
    800023c4:	07e6ae23          	sw	t5,124(a3)
    800023c8:	0876ae23          	sw	t2,156(a3)
    800023cc:	0fe6a623          	sw	t5,236(a3)
    800023d0:	0fe6ae23          	sw	t5,252(a3)
    800023d4:	1076ae23          	sw	t2,284(a3)
    800023d8:	23273c23          	sd	s2,568(a4)
    800023dc:	ffffec17          	auipc	s8,0xffffe
    800023e0:	650c0c13          	addi	s8,s8,1616 # 80000a2c <cpu_op_axs>
    800023e4:	26a7bc23          	sd	a0,632(a5)
    800023e8:	3057bc23          	sd	t0,792(a5)
    800023ec:	36a7bc23          	sd	a0,888(a5)
    800023f0:	22b7bc23          	sd	a1,568(a5)
    800023f4:	13c6ae23          	sw	t3,316(a3)
    800023f8:	27273c23          	sd	s2,632(a4)
    800023fc:	1566a623          	sw	s6,332(a3)
    80002400:	29273c23          	sd	s2,664(a4)
    80002404:	29f7bc23          	sd	t6,664(a5)
    80002408:	15c6ae23          	sw	t3,348(a3)
    8000240c:	2b273c23          	sd	s2,696(a4)
    80002410:	2b07bc23          	sd	a6,696(a5)
    80002414:	2d273c23          	sd	s2,728(a4)
    80002418:	2dd7bc23          	sd	t4,728(a5)
    8000241c:	2f273c23          	sd	s2,760(a4)
    80002420:	2f17bc23          	sd	a7,760(a5)
    80002424:	1966a623          	sw	s6,396(a3)
    80002428:	31773c23          	sd	s7,792(a4)
    8000242c:	33773c23          	sd	s7,824(a4)
    80002430:	32b7bc23          	sd	a1,824(a5)
    80002434:	1bc6ae23          	sw	t3,444(a3)
    80002438:	37773c23          	sd	s7,888(a4)
    8000243c:	1d66a623          	sw	s6,460(a3)
    80002440:	39773c23          	sd	s7,920(a4)
    80002444:	39f7bc23          	sd	t6,920(a5)
    80002448:	1dc6ae23          	sw	t3,476(a3)
    8000244c:	3b773c23          	sd	s7,952(a4)
    80002450:	3b07bc23          	sd	a6,952(a5)
    80002454:	17e6a623          	sw	t5,364(a3)
    80002458:	17e6ae23          	sw	t5,380(a3)
    8000245c:	1876ae23          	sw	t2,412(a3)
    80002460:	1fe6a623          	sw	t5,492(a3)
    80002464:	3d773c23          	sd	s7,984(a4)
    80002468:	ffffea97          	auipc	s5,0xffffe
    8000246c:	3f8a8a93          	addi	s5,s5,1016 # 80000860 <cpu_op_lax>
    80002470:	ffffec97          	auipc	s9,0xffffe
    80002474:	584c8c93          	addi	s9,s9,1412 # 800009f4 <cpu_op_axa>
    80002478:	41873c23          	sd	s8,1048(a4)
    8000247c:	43873c23          	sd	s8,1080(a4)
    80002480:	47873c23          	sd	s8,1144(a4)
    80002484:	4b873c23          	sd	s8,1208(a4)
    80002488:	00000c17          	auipc	s8,0x0
    8000248c:	7f0c0c13          	addi	s8,s8,2032 # 80002c78 <cpu_address_zero_page_y>
    80002490:	fffff917          	auipc	s2,0xfffff
    80002494:	b6490913          	addi	s2,s2,-1180 # 80000ff4 <cpu_op_ins>
    80002498:	4057bc23          	sd	t0,1048(a5)
    8000249c:	46a7bc23          	sd	a0,1144(a5)
    800024a0:	4b87bc23          	sd	s8,1208(a5)
    800024a4:	5057bc23          	sd	t0,1304(a5)
    800024a8:	56a7bc23          	sd	a0,1400(a5)
    800024ac:	3dd7bc23          	sd	t4,984(a5)
    800024b0:	3f773c23          	sd	s7,1016(a4)
    800024b4:	3f17bc23          	sd	a7,1016(a5)
    800024b8:	fffffb97          	auipc	s7,0xfffff
    800024bc:	1c8b8b93          	addi	s7,s7,456 # 80001680 <cpu_op_dcm>
    800024c0:	21c6a623          	sw	t3,524(a3)
    800024c4:	2146ae23          	sw	s4,540(a3)
    800024c8:	42b7bc23          	sd	a1,1080(a5)
    800024cc:	2286ae23          	sw	s0,572(a3)
    800024d0:	25c6a623          	sw	t3,588(a3)
    800024d4:	49973c23          	sd	s9,1176(a4)
    800024d8:	49f7bc23          	sd	t6,1176(a5)
    800024dc:	2486ae23          	sw	s0,604(a3)
    800024e0:	4f973c23          	sd	s9,1272(a4)
    800024e4:	4fd7bc23          	sd	t4,1272(a5)
    800024e8:	29c6a623          	sw	t3,652(a3)
    800024ec:	51573c23          	sd	s5,1304(a4)
    800024f0:	2946ae23          	sw	s4,668(a3)
    800024f4:	53573c23          	sd	s5,1336(a4)
    800024f8:	52b7bc23          	sd	a1,1336(a5)
    800024fc:	2a86ae23          	sw	s0,700(a3)
    80002500:	57573c23          	sd	s5,1400(a4)
    80002504:	1fe6ae23          	sw	t5,508(a3)
    80002508:	2676ae23          	sw	t2,636(a3)
    8000250c:	2c76a623          	sw	t2,716(a3)
    80002510:	59573c23          	sd	s5,1432(a4)
    80002514:	00100313          	li	t1,1
    80002518:	5b87bc23          	sd	s8,1464(a5)
    8000251c:	6057bc23          	sd	t0,1560(a5)
    80002520:	66a7bc23          	sd	a0,1656(a5)
    80002524:	7057bc23          	sd	t0,1816(a5)
    80002528:	59f7bc23          	sd	t6,1432(a5)
    8000252c:	2c86ae23          	sw	s0,732(a3)
    80002530:	5b573c23          	sd	s5,1464(a4)
    80002534:	2e86ae23          	sw	s0,764(a3)
    80002538:	5f573c23          	sd	s5,1528(a4)
    8000253c:	ffffe417          	auipc	s0,0xffffe
    80002540:	f8040413          	addi	s0,s0,-128 # 800004bc <____FE____>
    80002544:	5fd7bc23          	sd	t4,1528(a5)
    80002548:	3166a623          	sw	s6,780(a3)
    8000254c:	61773c23          	sd	s7,1560(a4)
    80002550:	63773c23          	sd	s7,1592(a4)
    80002554:	62b7bc23          	sd	a1,1592(a5)
    80002558:	33c6ae23          	sw	t3,828(a3)
    8000255c:	67773c23          	sd	s7,1656(a4)
    80002560:	3566a623          	sw	s6,844(a3)
    80002564:	69773c23          	sd	s7,1688(a4)
    80002568:	69f7bc23          	sd	t6,1688(a5)
    8000256c:	35c6ae23          	sw	t3,860(a3)
    80002570:	6b773c23          	sd	s7,1720(a4)
    80002574:	6b07bc23          	sd	a6,1720(a5)
    80002578:	6d773c23          	sd	s7,1752(a4)
    8000257c:	6dd7bc23          	sd	t4,1752(a5)
    80002580:	6f773c23          	sd	s7,1784(a4)
    80002584:	6f17bc23          	sd	a7,1784(a5)
    80002588:	3966a623          	sw	s6,908(a3)
    8000258c:	71273c23          	sd	s2,1816(a4)
    80002590:	73273c23          	sd	s2,1848(a4)
    80002594:	00200b93          	li	s7,2
    80002598:	3076ae23          	sw	t2,796(a3)
    8000259c:	37e6ae23          	sw	t5,892(a3)
    800025a0:	3876ae23          	sw	t2,924(a3)
    800025a4:	72b7bc23          	sd	a1,1848(a5)
    800025a8:	7497bc23          	sd	s1,1880(a5)
    800025ac:	76a7bc23          	sd	a0,1912(a5)
    800025b0:	06a7b023          	sd	a0,96(a5)
    800025b4:	3b76a623          	sw	s7,940(a3)
    800025b8:	75373c23          	sd	s3,1880(a4)
    800025bc:	3bc6ae23          	sw	t3,956(a3)
    800025c0:	77273c23          	sd	s2,1912(a4)
    800025c4:	3d66a623          	sw	s6,972(a3)
    800025c8:	79273c23          	sd	s2,1944(a4)
    800025cc:	79f7bc23          	sd	t6,1944(a5)
    800025d0:	3dc6ae23          	sw	t3,988(a3)
    800025d4:	7b273c23          	sd	s2,1976(a4)
    800025d8:	7b07bc23          	sd	a6,1976(a5)
    800025dc:	7d273c23          	sd	s2,2008(a4)
    800025e0:	7dd7bc23          	sd	t4,2008(a5)
    800025e4:	7f273c23          	sd	s2,2040(a4)
    800025e8:	7f17bc23          	sd	a7,2040(a5)
    800025ec:	02873023          	sd	s0,32(a4)
    800025f0:	02b7b023          	sd	a1,32(a5)
    800025f4:	06873023          	sd	s0,96(a4)
    800025f8:	0a873023          	sd	s0,160(a4)
    800025fc:	0b07b023          	sd	a6,160(a5)
    80002600:	0c873823          	sd	s0,208(a4)
    80002604:	0cc7b823          	sd	a2,208(a5)
    80002608:	0e873023          	sd	s0,224(a4)
    8000260c:	0f17b023          	sd	a7,224(a5)
    80002610:	3fe6ae23          	sw	t5,1020(a3)
    80002614:	0066a823          	sw	t1,16(a3)
    80002618:	0266a823          	sw	t1,48(a3)
    8000261c:	0466a823          	sw	t1,80(a3)
    80002620:	0666a423          	sw	t1,104(a3)
    80002624:	0666a823          	sw	t1,112(a3)
    80002628:	0c66a823          	sw	t1,208(a3)
    8000262c:	1a873023          	sd	s0,416(a4)
    80002630:	1b07b023          	sd	a6,416(a5)
    80002634:	1c873823          	sd	s0,464(a4)
    80002638:	1cc7b823          	sd	a2,464(a5)
    8000263c:	1e873023          	sd	s0,480(a4)
    80002640:	1f17b023          	sd	a7,480(a5)
    80002644:	22873023          	sd	s0,544(a4)
    80002648:	22b7b023          	sd	a1,544(a5)
    8000264c:	2a873023          	sd	s0,672(a4)
    80002650:	2b07b023          	sd	a6,672(a5)
    80002654:	2c873823          	sd	s0,720(a4)
    80002658:	2cc7b823          	sd	a2,720(a5)
    8000265c:	2e873023          	sd	s0,736(a4)
    80002660:	2f17b023          	sd	a7,736(a5)
    80002664:	32873023          	sd	s0,800(a4)
    80002668:	32b7b023          	sd	a1,800(a5)
    8000266c:	3a873023          	sd	s0,928(a4)
    80002670:	3b07b023          	sd	a6,928(a5)
    80002674:	3c873823          	sd	s0,976(a4)
    80002678:	3cc7b823          	sd	a2,976(a5)
    8000267c:	3e873023          	sd	s0,992(a4)
    80002680:	3f17b023          	sd	a7,992(a5)
    80002684:	0e66a423          	sw	t1,232(a3)
    80002688:	0e66a823          	sw	t1,240(a3)
    8000268c:	1066a823          	sw	t1,272(a3)
    80002690:	1466a823          	sw	t1,336(a3)
    80002694:	1666a423          	sw	t1,360(a3)
    80002698:	1666a823          	sw	t1,368(a3)
    8000269c:	1866a823          	sw	t1,400(a3)
    800026a0:	1c66a823          	sw	t1,464(a3)
    800026a4:	1e66a423          	sw	t1,488(a3)
    800026a8:	1e66a823          	sw	t1,496(a3)
    800026ac:	2066a023          	sw	t1,512(a3)
    800026b0:	00160e17          	auipc	t3,0x160
    800026b4:	648e0e13          	addi	t3,t3,1608 # 80162cf8 <cpu>
    800026b8:	4097b023          	sd	s1,1024(a5)
    800026bc:	6b07b023          	sd	a6,1696(a5)
    800026c0:	6cc7b823          	sd	a2,1744(a5)
    800026c4:	6f17b023          	sd	a7,1760(a5)
    800026c8:	7b07b023          	sd	a6,1952(a5)
    800026cc:	7cc7b823          	sd	a2,2000(a5)
    800026d0:	7f17b023          	sd	a7,2016(a5)
    800026d4:	02400793          	li	a5,36
    800026d8:	000e1123          	sh	zero,2(t3)
    800026dc:	000e1223          	sh	zero,4(t3)
    800026e0:	00fe0323          	sb	a5,6(t3)
    800026e4:	40873023          	sd	s0,1024(a4)
    800026e8:	6a873023          	sd	s0,1696(a4)
    800026ec:	6c873823          	sd	s0,1744(a4)
    800026f0:	6e873023          	sd	s0,1760(a4)
    800026f4:	7a873023          	sd	s0,1952(a4)
    800026f8:	7c873823          	sd	s0,2000(a4)
    800026fc:	7e873023          	sd	s0,2016(a4)
    80002700:	00700293          	li	t0,7
    80002704:	08813403          	ld	s0,136(sp)
    80002708:	02029513          	slli	a0,t0,0x20
    8000270c:	00150513          	addi	a0,a0,1
    80002710:	08013483          	ld	s1,128(sp)
    80002714:	07813903          	ld	s2,120(sp)
    80002718:	07013983          	ld	s3,112(sp)
    8000271c:	06813a03          	ld	s4,104(sp)
    80002720:	06013a83          	ld	s5,96(sp)
    80002724:	05813b03          	ld	s6,88(sp)
    80002728:	05013b83          	ld	s7,80(sp)
    8000272c:	04813c03          	ld	s8,72(sp)
    80002730:	3466a823          	sw	t1,848(a3)
    80002734:	36a6b423          	sd	a0,872(a3)
    80002738:	3666a823          	sw	t1,880(a3)
    8000273c:	3c66a823          	sw	t1,976(a3)
    80002740:	3ea6b423          	sd	a0,1000(a3)
    80002744:	3e66a823          	sw	t1,1008(a3)
    80002748:	04013c83          	ld	s9,64(sp)
    8000274c:	03813d03          	ld	s10,56(sp)
    80002750:	03013d83          	ld	s11,48(sp)
    80002754:	09010113          	addi	sp,sp,144
    80002758:	00008067          	ret

000000008000275c <cpu_reset>:
    8000275c:	00010537          	lui	a0,0x10
    80002760:	ff010113          	addi	sp,sp,-16
    80002764:	ffc50513          	addi	a0,a0,-4 # fffc <_entry_offset+0xfffc>
    80002768:	00113423          	sd	ra,8(sp)
    8000276c:	370000ef          	jal	ra,80002adc <memory_readw>
    80002770:	00160797          	auipc	a5,0x160
    80002774:	58878793          	addi	a5,a5,1416 # 80162cf8 <cpu>
    80002778:	0027c683          	lbu	a3,2(a5)
    8000277c:	0067c703          	lbu	a4,6(a5)
    80002780:	00a79023          	sh	a0,0(a5)
    80002784:	ffd6869b          	addiw	a3,a3,-3
    80002788:	00476713          	ori	a4,a4,4
    8000278c:	00d78123          	sb	a3,2(a5)
    80002790:	00e78323          	sb	a4,6(a5)
    80002794:	00813083          	ld	ra,8(sp)
    80002798:	01010113          	addi	sp,sp,16
    8000279c:	00008067          	ret

00000000800027a0 <cpu_interrupt>:
    800027a0:	ff010113          	addi	sp,sp,-16
    800027a4:	00113423          	sd	ra,8(sp)
    800027a8:	3cd000ef          	jal	ra,80003374 <ppu_generates_nmi>
    800027ac:	08050463          	beqz	a0,80002834 <cpu_interrupt+0x94>
    800027b0:	00160797          	auipc	a5,0x160
    800027b4:	54e7c783          	lbu	a5,1358(a5) # 80162cfe <cpu+0x6>
    800027b8:	0047e793          	ori	a5,a5,4
    800027bc:	00500593          	li	a1,5
    800027c0:	00160517          	auipc	a0,0x160
    800027c4:	53e50513          	addi	a0,a0,1342 # 80162cfe <cpu+0x6>
    800027c8:	00160717          	auipc	a4,0x160
    800027cc:	52f70b23          	sb	a5,1334(a4) # 80162cfe <cpu+0x6>
    800027d0:	131000ef          	jal	ra,80003100 <common_unset_bitb>
    800027d4:	00160517          	auipc	a0,0x160
    800027d8:	52654503          	lbu	a0,1318(a0) # 80162cfa <cpu+0x2>
    800027dc:	00160597          	auipc	a1,0x160
    800027e0:	51c5d583          	lhu	a1,1308(a1) # 80162cf8 <cpu>
    800027e4:	0ff50513          	addi	a0,a0,255
    800027e8:	344000ef          	jal	ra,80002b2c <memory_writew>
    800027ec:	00160797          	auipc	a5,0x160
    800027f0:	50e7c783          	lbu	a5,1294(a5) # 80162cfa <cpu+0x2>
    800027f4:	ffe7851b          	addiw	a0,a5,-2
    800027f8:	0ff57513          	andi	a0,a0,255
    800027fc:	1005051b          	addiw	a0,a0,256
    80002800:	03051513          	slli	a0,a0,0x30
    80002804:	ffd7879b          	addiw	a5,a5,-3
    80002808:	00160597          	auipc	a1,0x160
    8000280c:	4f65c583          	lbu	a1,1270(a1) # 80162cfe <cpu+0x6>
    80002810:	03055513          	srli	a0,a0,0x30
    80002814:	00160717          	auipc	a4,0x160
    80002818:	4ef70323          	sb	a5,1254(a4) # 80162cfa <cpu+0x2>
    8000281c:	218000ef          	jal	ra,80002a34 <memory_writeb>
    80002820:	00010537          	lui	a0,0x10
    80002824:	ffa50513          	addi	a0,a0,-6 # fffa <_entry_offset+0xfffa>
    80002828:	2b4000ef          	jal	ra,80002adc <memory_readw>
    8000282c:	00160797          	auipc	a5,0x160
    80002830:	4ca79623          	sh	a0,1228(a5) # 80162cf8 <cpu>
    80002834:	00813083          	ld	ra,8(sp)
    80002838:	01010113          	addi	sp,sp,16
    8000283c:	00008067          	ret

0000000080002840 <cpu_clock>:
    80002840:	00160797          	auipc	a5,0x160
    80002844:	49078793          	addi	a5,a5,1168 # 80162cd0 <cpu_cycles>
    80002848:	0007b503          	ld	a0,0(a5)
    8000284c:	00008067          	ret

0000000080002850 <cpu_run>:
    80002850:	fc010113          	addi	sp,sp,-64
    80002854:	02813823          	sd	s0,48(sp)
    80002858:	00300413          	li	s0,3
    8000285c:	02854433          	div	s0,a0,s0
    80002860:	02113c23          	sd	ra,56(sp)
    80002864:	02913423          	sd	s1,40(sp)
    80002868:	03213023          	sd	s2,32(sp)
    8000286c:	01313c23          	sd	s3,24(sp)
    80002870:	01413823          	sd	s4,16(sp)
    80002874:	01513423          	sd	s5,8(sp)
    80002878:	0a805c63          	blez	s0,80002930 <cpu_run+0xe0>
    8000287c:	00049a17          	auipc	s4,0x49
    80002880:	b7ca0a13          	addi	s4,s4,-1156 # 8004b3f8 <cpu_op_address_mode>
    80002884:	00049997          	auipc	s3,0x49
    80002888:	37498993          	addi	s3,s3,884 # 8004bbf8 <cpu_op_cycles>
    8000288c:	00168917          	auipc	s2,0x168
    80002890:	47490913          	addi	s2,s2,1140 # 8016ad00 <op_cycles>
    80002894:	00160497          	auipc	s1,0x160
    80002898:	43c48493          	addi	s1,s1,1084 # 80162cd0 <cpu_cycles>
    8000289c:	00049a97          	auipc	s5,0x49
    800028a0:	75ca8a93          	addi	s5,s5,1884 # 8004bff8 <cpu_op_handler>
    800028a4:	00160517          	auipc	a0,0x160
    800028a8:	45455503          	lhu	a0,1108(a0) # 80162cf8 <cpu>
    800028ac:	0015079b          	addiw	a5,a0,1
    800028b0:	00160717          	auipc	a4,0x160
    800028b4:	44f71423          	sh	a5,1096(a4) # 80162cf8 <cpu>
    800028b8:	134000ef          	jal	ra,800029ec <memory_readb>
    800028bc:	0005079b          	sext.w	a5,a0
    800028c0:	00379713          	slli	a4,a5,0x3
    800028c4:	00ea0733          	add	a4,s4,a4
    800028c8:	00073703          	ld	a4,0(a4)
    800028cc:	00160697          	auipc	a3,0x160
    800028d0:	40a68623          	sb	a0,1036(a3) # 80162cd8 <op_code>
    800028d4:	02070463          	beqz	a4,800028fc <cpu_run+0xac>
    800028d8:	000700e7          	jalr	a4
    800028dc:	00160797          	auipc	a5,0x160
    800028e0:	3fc7c783          	lbu	a5,1020(a5) # 80162cd8 <op_code>
    800028e4:	00379793          	slli	a5,a5,0x3
    800028e8:	00fa87b3          	add	a5,s5,a5
    800028ec:	0007b783          	ld	a5,0(a5)
    800028f0:	000780e7          	jalr	a5
    800028f4:	00160797          	auipc	a5,0x160
    800028f8:	3e47c783          	lbu	a5,996(a5) # 80162cd8 <op_code>
    800028fc:	00279793          	slli	a5,a5,0x2
    80002900:	00f987b3          	add	a5,s3,a5
    80002904:	00092683          	lw	a3,0(s2)
    80002908:	0007a783          	lw	a5,0(a5)
    8000290c:	0004b703          	ld	a4,0(s1)
    80002910:	00168617          	auipc	a2,0x168
    80002914:	3e062823          	sw	zero,1008(a2) # 8016ad00 <op_cycles>
    80002918:	00d787bb          	addw	a5,a5,a3
    8000291c:	40f70733          	sub	a4,a4,a5
    80002920:	40f40433          	sub	s0,s0,a5
    80002924:	00160797          	auipc	a5,0x160
    80002928:	3ae7b623          	sd	a4,940(a5) # 80162cd0 <cpu_cycles>
    8000292c:	f6804ce3          	bgtz	s0,800028a4 <cpu_run+0x54>
    80002930:	03813083          	ld	ra,56(sp)
    80002934:	03013403          	ld	s0,48(sp)
    80002938:	02813483          	ld	s1,40(sp)
    8000293c:	02013903          	ld	s2,32(sp)
    80002940:	01813983          	ld	s3,24(sp)
    80002944:	01013a03          	ld	s4,16(sp)
    80002948:	00813a83          	ld	s5,8(sp)
    8000294c:	04010113          	addi	sp,sp,64
    80002950:	00008067          	ret

0000000080002954 <main>:
    80002954:	fe010113          	addi	sp,sp,-32
    80002958:	00113c23          	sd	ra,24(sp)
    8000295c:	7f8010ef          	jal	ra,80004154 <ioe_init>
    80002960:	00002517          	auipc	a0,0x2
    80002964:	fc050513          	addi	a0,a0,-64 # 80004920 <cpu_zn_flag_table+0x100>
    80002968:	38d010ef          	jal	ra,800044f4 <printf>
    8000296c:	00002517          	auipc	a0,0x2
    80002970:	09c50513          	addi	a0,a0,156 # 80004a08 <cpu_zn_flag_table+0x1e8>
    80002974:	00002897          	auipc	a7,0x2
    80002978:	fec88893          	addi	a7,a7,-20 # 80004960 <cpu_zn_flag_table+0x140>
    8000297c:	00002817          	auipc	a6,0x2
    80002980:	fec80813          	addi	a6,a6,-20 # 80004968 <cpu_zn_flag_table+0x148>
    80002984:	00002797          	auipc	a5,0x2
    80002988:	fec78793          	addi	a5,a5,-20 # 80004970 <cpu_zn_flag_table+0x150>
    8000298c:	00002717          	auipc	a4,0x2
    80002990:	fec70713          	addi	a4,a4,-20 # 80004978 <cpu_zn_flag_table+0x158>
    80002994:	00002697          	auipc	a3,0x2
    80002998:	fec68693          	addi	a3,a3,-20 # 80004980 <cpu_zn_flag_table+0x160>
    8000299c:	00002617          	auipc	a2,0x2
    800029a0:	fec60613          	addi	a2,a2,-20 # 80004988 <cpu_zn_flag_table+0x168>
    800029a4:	00002597          	auipc	a1,0x2
    800029a8:	fec58593          	addi	a1,a1,-20 # 80004990 <cpu_zn_flag_table+0x170>
    800029ac:	00a13023          	sd	a0,0(sp)
    800029b0:	00002517          	auipc	a0,0x2
    800029b4:	fe850513          	addi	a0,a0,-24 # 80004998 <cpu_zn_flag_table+0x178>
    800029b8:	33d010ef          	jal	ra,800044f4 <printf>
    800029bc:	00002517          	auipc	a0,0x2
    800029c0:	05450513          	addi	a0,a0,84 # 80004a10 <cpu_zn_flag_table+0x1f0>
    800029c4:	331010ef          	jal	ra,800044f4 <printf>
    800029c8:	00002517          	auipc	a0,0x2
    800029cc:	61850513          	addi	a0,a0,1560 # 80004fe0 <rom_mario_nes>
    800029d0:	e98fd0ef          	jal	ra,80000068 <fce_load_rom>
    800029d4:	ffcfd0ef          	jal	ra,800001d0 <fce_init>
    800029d8:	8c1fd0ef          	jal	ra,80000298 <fce_run>
    800029dc:	01813083          	ld	ra,24(sp)
    800029e0:	00100513          	li	a0,1
    800029e4:	02010113          	addi	sp,sp,32
    800029e8:	00008067          	ret

00000000800029ec <memory_readb>:
    800029ec:	00d55793          	srli	a5,a0,0xd
    800029f0:	00100713          	li	a4,1
    800029f4:	00050693          	mv	a3,a0
    800029f8:	02e78c63          	beq	a5,a4,80002a30 <memory_readb+0x44>
    800029fc:	02078663          	beqz	a5,80002a28 <memory_readb+0x3c>
    80002a00:	00200713          	li	a4,2
    80002a04:	00e78e63          	beq	a5,a4,80002a20 <memory_readb+0x34>
    80002a08:	00300713          	li	a4,3
    80002a0c:	00e79c63          	bne	a5,a4,80002a24 <memory_readb+0x38>
    80002a10:	00002537          	lui	a0,0x2
    80002a14:	fff50513          	addi	a0,a0,-1 # 1fff <_entry_offset+0x1fff>
    80002a18:	00a6f533          	and	a0,a3,a0
    80002a1c:	e0dfe06f          	j	80001828 <cpu_ram_read>
    80002a20:	0210006f          	j	80003240 <psgio_read>
    80002a24:	72c0006f          	j	80003150 <mmc_read>
    80002a28:	7ff57513          	andi	a0,a0,2047
    80002a2c:	dfdfe06f          	j	80001828 <cpu_ram_read>
    80002a30:	17c0106f          	j	80003bac <ppuio_read>

0000000080002a34 <memory_writeb>:
    80002a34:	000047b7          	lui	a5,0x4
    80002a38:	01478793          	addi	a5,a5,20 # 4014 <_entry_offset+0x4014>
    80002a3c:	02f50c63          	beq	a0,a5,80002a74 <memory_writeb+0x40>
    80002a40:	00d55793          	srli	a5,a0,0xd
    80002a44:	00100693          	li	a3,1
    80002a48:	00050713          	mv	a4,a0
    80002a4c:	08d78663          	beq	a5,a3,80002ad8 <memory_writeb+0xa4>
    80002a50:	06078e63          	beqz	a5,80002acc <memory_writeb+0x98>
    80002a54:	00200693          	li	a3,2
    80002a58:	06d78e63          	beq	a5,a3,80002ad4 <memory_writeb+0xa0>
    80002a5c:	00300693          	li	a3,3
    80002a60:	06d79463          	bne	a5,a3,80002ac8 <memory_writeb+0x94>
    80002a64:	00002537          	lui	a0,0x2
    80002a68:	fff50513          	addi	a0,a0,-1 # 1fff <_entry_offset+0x1fff>
    80002a6c:	00a77533          	and	a0,a4,a0
    80002a70:	dd1fe06f          	j	80001840 <cpu_ram_write>
    80002a74:	fe010113          	addi	sp,sp,-32
    80002a78:	00813823          	sd	s0,16(sp)
    80002a7c:	00859413          	slli	s0,a1,0x8
    80002a80:	00913423          	sd	s1,8(sp)
    80002a84:	1004049b          	addiw	s1,s0,256
    80002a88:	03049493          	slli	s1,s1,0x30
    80002a8c:	0304d493          	srli	s1,s1,0x30
    80002a90:	00113c23          	sd	ra,24(sp)
    80002a94:	0004849b          	sext.w	s1,s1
    80002a98:	00040513          	mv	a0,s0
    80002a9c:	0014041b          	addiw	s0,s0,1
    80002aa0:	03041413          	slli	s0,s0,0x30
    80002aa4:	d85fe0ef          	jal	ra,80001828 <cpu_ram_read>
    80002aa8:	03045413          	srli	s0,s0,0x30
    80002aac:	594010ef          	jal	ra,80004040 <ppu_sprram_write>
    80002ab0:	fe9414e3          	bne	s0,s1,80002a98 <memory_writeb+0x64>
    80002ab4:	01813083          	ld	ra,24(sp)
    80002ab8:	01013403          	ld	s0,16(sp)
    80002abc:	00813483          	ld	s1,8(sp)
    80002ac0:	02010113          	addi	sp,sp,32
    80002ac4:	00008067          	ret
    80002ac8:	69c0006f          	j	80003164 <mmc_write>
    80002acc:	7ff57513          	andi	a0,a0,2047
    80002ad0:	d71fe06f          	j	80001840 <cpu_ram_write>
    80002ad4:	7cc0006f          	j	800032a0 <psgio_write>
    80002ad8:	2780106f          	j	80003d50 <ppuio_write>

0000000080002adc <memory_readw>:
    80002adc:	fe010113          	addi	sp,sp,-32
    80002ae0:	00113c23          	sd	ra,24(sp)
    80002ae4:	00813823          	sd	s0,16(sp)
    80002ae8:	00913423          	sd	s1,8(sp)
    80002aec:	00050413          	mv	s0,a0
    80002af0:	efdff0ef          	jal	ra,800029ec <memory_readb>
    80002af4:	00050493          	mv	s1,a0
    80002af8:	0014051b          	addiw	a0,s0,1
    80002afc:	03051513          	slli	a0,a0,0x30
    80002b00:	03055513          	srli	a0,a0,0x30
    80002b04:	ee9ff0ef          	jal	ra,800029ec <memory_readb>
    80002b08:	01813083          	ld	ra,24(sp)
    80002b0c:	01013403          	ld	s0,16(sp)
    80002b10:	0085151b          	slliw	a0,a0,0x8
    80002b14:	0095053b          	addw	a0,a0,s1
    80002b18:	03051513          	slli	a0,a0,0x30
    80002b1c:	00813483          	ld	s1,8(sp)
    80002b20:	03055513          	srli	a0,a0,0x30
    80002b24:	02010113          	addi	sp,sp,32
    80002b28:	00008067          	ret

0000000080002b2c <memory_writew>:
    80002b2c:	fe010113          	addi	sp,sp,-32
    80002b30:	00913423          	sd	s1,8(sp)
    80002b34:	00058493          	mv	s1,a1
    80002b38:	0ff5f593          	andi	a1,a1,255
    80002b3c:	00813823          	sd	s0,16(sp)
    80002b40:	00113c23          	sd	ra,24(sp)
    80002b44:	00050413          	mv	s0,a0
    80002b48:	eedff0ef          	jal	ra,80002a34 <memory_writeb>
    80002b4c:	0014051b          	addiw	a0,s0,1
    80002b50:	01013403          	ld	s0,16(sp)
    80002b54:	01813083          	ld	ra,24(sp)
    80002b58:	0084d593          	srli	a1,s1,0x8
    80002b5c:	00813483          	ld	s1,8(sp)
    80002b60:	03051513          	slli	a0,a0,0x30
    80002b64:	03055513          	srli	a0,a0,0x30
    80002b68:	02010113          	addi	sp,sp,32
    80002b6c:	ec9ff06f          	j	80002a34 <memory_writeb>

0000000080002b70 <cpu_address_implied>:
    80002b70:	00008067          	ret

0000000080002b74 <cpu_address_immediate>:
    80002b74:	ff010113          	addi	sp,sp,-16
    80002b78:	00813023          	sd	s0,0(sp)
    80002b7c:	00160417          	auipc	s0,0x160
    80002b80:	17c40413          	addi	s0,s0,380 # 80162cf8 <cpu>
    80002b84:	00045503          	lhu	a0,0(s0)
    80002b88:	00113423          	sd	ra,8(sp)
    80002b8c:	e61ff0ef          	jal	ra,800029ec <memory_readb>
    80002b90:	00045783          	lhu	a5,0(s0)
    80002b94:	00813083          	ld	ra,8(sp)
    80002b98:	00160717          	auipc	a4,0x160
    80002b9c:	14a72c23          	sw	a0,344(a4) # 80162cf0 <op_value>
    80002ba0:	0017879b          	addiw	a5,a5,1
    80002ba4:	00f41023          	sh	a5,0(s0)
    80002ba8:	00013403          	ld	s0,0(sp)
    80002bac:	01010113          	addi	sp,sp,16
    80002bb0:	00008067          	ret

0000000080002bb4 <cpu_address_zero_page>:
    80002bb4:	ff010113          	addi	sp,sp,-16
    80002bb8:	00813023          	sd	s0,0(sp)
    80002bbc:	00160417          	auipc	s0,0x160
    80002bc0:	13c40413          	addi	s0,s0,316 # 80162cf8 <cpu>
    80002bc4:	00045503          	lhu	a0,0(s0)
    80002bc8:	00113423          	sd	ra,8(sp)
    80002bcc:	e21ff0ef          	jal	ra,800029ec <memory_readb>
    80002bd0:	00045783          	lhu	a5,0(s0)
    80002bd4:	0005051b          	sext.w	a0,a0
    80002bd8:	00160717          	auipc	a4,0x160
    80002bdc:	12870713          	addi	a4,a4,296 # 80162d00 <CPU_RAM>
    80002be0:	00a70733          	add	a4,a4,a0
    80002be4:	00074703          	lbu	a4,0(a4)
    80002be8:	0017879b          	addiw	a5,a5,1
    80002bec:	00f41023          	sh	a5,0(s0)
    80002bf0:	00813083          	ld	ra,8(sp)
    80002bf4:	00013403          	ld	s0,0(sp)
    80002bf8:	00160697          	auipc	a3,0x160
    80002bfc:	0ea6ae23          	sw	a0,252(a3) # 80162cf4 <op_address>
    80002c00:	00160697          	auipc	a3,0x160
    80002c04:	0ee6a823          	sw	a4,240(a3) # 80162cf0 <op_value>
    80002c08:	01010113          	addi	sp,sp,16
    80002c0c:	00008067          	ret

0000000080002c10 <cpu_address_zero_page_x>:
    80002c10:	ff010113          	addi	sp,sp,-16
    80002c14:	00813023          	sd	s0,0(sp)
    80002c18:	00160417          	auipc	s0,0x160
    80002c1c:	0e040413          	addi	s0,s0,224 # 80162cf8 <cpu>
    80002c20:	00045503          	lhu	a0,0(s0)
    80002c24:	00113423          	sd	ra,8(sp)
    80002c28:	dc5ff0ef          	jal	ra,800029ec <memory_readb>
    80002c2c:	00444783          	lbu	a5,4(s0)
    80002c30:	00045703          	lhu	a4,0(s0)
    80002c34:	00813083          	ld	ra,8(sp)
    80002c38:	00f5053b          	addw	a0,a0,a5
    80002c3c:	0ff57693          	andi	a3,a0,255
    80002c40:	00160797          	auipc	a5,0x160
    80002c44:	0c078793          	addi	a5,a5,192 # 80162d00 <CPU_RAM>
    80002c48:	00d787b3          	add	a5,a5,a3
    80002c4c:	0007c783          	lbu	a5,0(a5)
    80002c50:	0017071b          	addiw	a4,a4,1
    80002c54:	00e41023          	sh	a4,0(s0)
    80002c58:	00013403          	ld	s0,0(sp)
    80002c5c:	00068513          	mv	a0,a3
    80002c60:	00160697          	auipc	a3,0x160
    80002c64:	08a6aa23          	sw	a0,148(a3) # 80162cf4 <op_address>
    80002c68:	00160697          	auipc	a3,0x160
    80002c6c:	08f6a423          	sw	a5,136(a3) # 80162cf0 <op_value>
    80002c70:	01010113          	addi	sp,sp,16
    80002c74:	00008067          	ret

0000000080002c78 <cpu_address_zero_page_y>:
    80002c78:	ff010113          	addi	sp,sp,-16
    80002c7c:	00813023          	sd	s0,0(sp)
    80002c80:	00160417          	auipc	s0,0x160
    80002c84:	07840413          	addi	s0,s0,120 # 80162cf8 <cpu>
    80002c88:	00045503          	lhu	a0,0(s0)
    80002c8c:	00113423          	sd	ra,8(sp)
    80002c90:	d5dff0ef          	jal	ra,800029ec <memory_readb>
    80002c94:	00544783          	lbu	a5,5(s0)
    80002c98:	00045703          	lhu	a4,0(s0)
    80002c9c:	00813083          	ld	ra,8(sp)
    80002ca0:	00f5053b          	addw	a0,a0,a5
    80002ca4:	0ff57693          	andi	a3,a0,255
    80002ca8:	00160797          	auipc	a5,0x160
    80002cac:	05878793          	addi	a5,a5,88 # 80162d00 <CPU_RAM>
    80002cb0:	00d787b3          	add	a5,a5,a3
    80002cb4:	0007c783          	lbu	a5,0(a5)
    80002cb8:	0017071b          	addiw	a4,a4,1
    80002cbc:	00e41023          	sh	a4,0(s0)
    80002cc0:	00013403          	ld	s0,0(sp)
    80002cc4:	00068513          	mv	a0,a3
    80002cc8:	00160697          	auipc	a3,0x160
    80002ccc:	02a6a623          	sw	a0,44(a3) # 80162cf4 <op_address>
    80002cd0:	00160697          	auipc	a3,0x160
    80002cd4:	02f6a023          	sw	a5,32(a3) # 80162cf0 <op_value>
    80002cd8:	01010113          	addi	sp,sp,16
    80002cdc:	00008067          	ret

0000000080002ce0 <cpu_address_absolute>:
    80002ce0:	ff010113          	addi	sp,sp,-16
    80002ce4:	00813023          	sd	s0,0(sp)
    80002ce8:	00160417          	auipc	s0,0x160
    80002cec:	01040413          	addi	s0,s0,16 # 80162cf8 <cpu>
    80002cf0:	00045503          	lhu	a0,0(s0)
    80002cf4:	00113423          	sd	ra,8(sp)
    80002cf8:	de5ff0ef          	jal	ra,80002adc <memory_readw>
    80002cfc:	00160797          	auipc	a5,0x160
    80002d00:	fea7ac23          	sw	a0,-8(a5) # 80162cf4 <op_address>
    80002d04:	ce9ff0ef          	jal	ra,800029ec <memory_readb>
    80002d08:	00045783          	lhu	a5,0(s0)
    80002d0c:	00813083          	ld	ra,8(sp)
    80002d10:	00160717          	auipc	a4,0x160
    80002d14:	fea72023          	sw	a0,-32(a4) # 80162cf0 <op_value>
    80002d18:	0027879b          	addiw	a5,a5,2
    80002d1c:	00f41023          	sh	a5,0(s0)
    80002d20:	00013403          	ld	s0,0(sp)
    80002d24:	01010113          	addi	sp,sp,16
    80002d28:	00008067          	ret

0000000080002d2c <cpu_address_absolute_x>:
    80002d2c:	ff010113          	addi	sp,sp,-16
    80002d30:	00160517          	auipc	a0,0x160
    80002d34:	fc855503          	lhu	a0,-56(a0) # 80162cf8 <cpu>
    80002d38:	00113423          	sd	ra,8(sp)
    80002d3c:	da1ff0ef          	jal	ra,80002adc <memory_readw>
    80002d40:	00160797          	auipc	a5,0x160
    80002d44:	fbc7c783          	lbu	a5,-68(a5) # 80162cfc <cpu+0x4>
    80002d48:	00a787bb          	addw	a5,a5,a0
    80002d4c:	03079513          	slli	a0,a5,0x30
    80002d50:	03055513          	srli	a0,a0,0x30
    80002d54:	00160717          	auipc	a4,0x160
    80002d58:	faf72023          	sw	a5,-96(a4) # 80162cf4 <op_address>
    80002d5c:	c91ff0ef          	jal	ra,800029ec <memory_readb>
    80002d60:	00160797          	auipc	a5,0x160
    80002d64:	f987d783          	lhu	a5,-104(a5) # 80162cf8 <cpu>
    80002d68:	00160717          	auipc	a4,0x160
    80002d6c:	f8c70713          	addi	a4,a4,-116 # 80162cf4 <op_address>
    80002d70:	00072703          	lw	a4,0(a4)
    80002d74:	0027879b          	addiw	a5,a5,2
    80002d78:	03079793          	slli	a5,a5,0x30
    80002d7c:	0307d793          	srli	a5,a5,0x30
    80002d80:	00160697          	auipc	a3,0x160
    80002d84:	f6f69c23          	sh	a5,-136(a3) # 80162cf8 <cpu>
    80002d88:	00160697          	auipc	a3,0x160
    80002d8c:	f6a6a423          	sw	a0,-152(a3) # 80162cf0 <op_value>
    80002d90:	4087571b          	sraiw	a4,a4,0x8
    80002d94:	0087d793          	srli	a5,a5,0x8
    80002d98:	00f70e63          	beq	a4,a5,80002db4 <cpu_address_absolute_x+0x88>
    80002d9c:	00168797          	auipc	a5,0x168
    80002da0:	f6478793          	addi	a5,a5,-156 # 8016ad00 <op_cycles>
    80002da4:	0007a783          	lw	a5,0(a5)
    80002da8:	0017879b          	addiw	a5,a5,1
    80002dac:	00168717          	auipc	a4,0x168
    80002db0:	f4f72a23          	sw	a5,-172(a4) # 8016ad00 <op_cycles>
    80002db4:	00813083          	ld	ra,8(sp)
    80002db8:	01010113          	addi	sp,sp,16
    80002dbc:	00008067          	ret

0000000080002dc0 <cpu_address_absolute_y>:
    80002dc0:	ff010113          	addi	sp,sp,-16
    80002dc4:	00160517          	auipc	a0,0x160
    80002dc8:	f3455503          	lhu	a0,-204(a0) # 80162cf8 <cpu>
    80002dcc:	00113423          	sd	ra,8(sp)
    80002dd0:	d0dff0ef          	jal	ra,80002adc <memory_readw>
    80002dd4:	00160797          	auipc	a5,0x160
    80002dd8:	f297c783          	lbu	a5,-215(a5) # 80162cfd <cpu+0x5>
    80002ddc:	00a7853b          	addw	a0,a5,a0
    80002de0:	03051793          	slli	a5,a0,0x30
    80002de4:	0307d793          	srli	a5,a5,0x30
    80002de8:	00078513          	mv	a0,a5
    80002dec:	00160717          	auipc	a4,0x160
    80002df0:	f0f72423          	sw	a5,-248(a4) # 80162cf4 <op_address>
    80002df4:	bf9ff0ef          	jal	ra,800029ec <memory_readb>
    80002df8:	00160797          	auipc	a5,0x160
    80002dfc:	f007d783          	lhu	a5,-256(a5) # 80162cf8 <cpu>
    80002e00:	00160717          	auipc	a4,0x160
    80002e04:	ef470713          	addi	a4,a4,-268 # 80162cf4 <op_address>
    80002e08:	00072703          	lw	a4,0(a4)
    80002e0c:	0027879b          	addiw	a5,a5,2
    80002e10:	03079793          	slli	a5,a5,0x30
    80002e14:	0307d793          	srli	a5,a5,0x30
    80002e18:	00160697          	auipc	a3,0x160
    80002e1c:	eef69023          	sh	a5,-288(a3) # 80162cf8 <cpu>
    80002e20:	00160697          	auipc	a3,0x160
    80002e24:	eca6a823          	sw	a0,-304(a3) # 80162cf0 <op_value>
    80002e28:	4087571b          	sraiw	a4,a4,0x8
    80002e2c:	0087d793          	srli	a5,a5,0x8
    80002e30:	00f70e63          	beq	a4,a5,80002e4c <cpu_address_absolute_y+0x8c>
    80002e34:	00168797          	auipc	a5,0x168
    80002e38:	ecc78793          	addi	a5,a5,-308 # 8016ad00 <op_cycles>
    80002e3c:	0007a783          	lw	a5,0(a5)
    80002e40:	0017879b          	addiw	a5,a5,1
    80002e44:	00168717          	auipc	a4,0x168
    80002e48:	eaf72e23          	sw	a5,-324(a4) # 8016ad00 <op_cycles>
    80002e4c:	00813083          	ld	ra,8(sp)
    80002e50:	01010113          	addi	sp,sp,16
    80002e54:	00008067          	ret

0000000080002e58 <cpu_address_relative>:
    80002e58:	ff010113          	addi	sp,sp,-16
    80002e5c:	00160517          	auipc	a0,0x160
    80002e60:	e9c55503          	lhu	a0,-356(a0) # 80162cf8 <cpu>
    80002e64:	00113423          	sd	ra,8(sp)
    80002e68:	b85ff0ef          	jal	ra,800029ec <memory_readb>
    80002e6c:	00160797          	auipc	a5,0x160
    80002e70:	e8c7d783          	lhu	a5,-372(a5) # 80162cf8 <cpu>
    80002e74:	0017879b          	addiw	a5,a5,1
    80002e78:	03079793          	slli	a5,a5,0x30
    80002e7c:	0005071b          	sext.w	a4,a0
    80002e80:	0307d793          	srli	a5,a5,0x30
    80002e84:	0185151b          	slliw	a0,a0,0x18
    80002e88:	00160697          	auipc	a3,0x160
    80002e8c:	e6f69823          	sh	a5,-400(a3) # 80162cf8 <cpu>
    80002e90:	4185551b          	sraiw	a0,a0,0x18
    80002e94:	00055463          	bgez	a0,80002e9c <cpu_address_relative+0x44>
    80002e98:	f007071b          	addiw	a4,a4,-256
    80002e9c:	00e7873b          	addw	a4,a5,a4
    80002ea0:	00160697          	auipc	a3,0x160
    80002ea4:	e4e6aa23          	sw	a4,-428(a3) # 80162cf4 <op_address>
    80002ea8:	0087d793          	srli	a5,a5,0x8
    80002eac:	4087571b          	sraiw	a4,a4,0x8
    80002eb0:	00f70e63          	beq	a4,a5,80002ecc <cpu_address_relative+0x74>
    80002eb4:	00168797          	auipc	a5,0x168
    80002eb8:	e4c78793          	addi	a5,a5,-436 # 8016ad00 <op_cycles>
    80002ebc:	0007a783          	lw	a5,0(a5)
    80002ec0:	0017879b          	addiw	a5,a5,1
    80002ec4:	00168717          	auipc	a4,0x168
    80002ec8:	e2f72e23          	sw	a5,-452(a4) # 8016ad00 <op_cycles>
    80002ecc:	00813083          	ld	ra,8(sp)
    80002ed0:	01010113          	addi	sp,sp,16
    80002ed4:	00008067          	ret

0000000080002ed8 <cpu_address_indirect>:
    80002ed8:	fe010113          	addi	sp,sp,-32
    80002edc:	00160517          	auipc	a0,0x160
    80002ee0:	e1c55503          	lhu	a0,-484(a0) # 80162cf8 <cpu>
    80002ee4:	00113c23          	sd	ra,24(sp)
    80002ee8:	00813823          	sd	s0,16(sp)
    80002eec:	00913423          	sd	s1,8(sp)
    80002ef0:	bedff0ef          	jal	ra,80002adc <memory_readw>
    80002ef4:	0ff57713          	andi	a4,a0,255
    80002ef8:	0ff00793          	li	a5,255
    80002efc:	02f70c63          	beq	a4,a5,80002f34 <cpu_address_indirect+0x5c>
    80002f00:	bddff0ef          	jal	ra,80002adc <memory_readw>
    80002f04:	00160797          	auipc	a5,0x160
    80002f08:	dea7a823          	sw	a0,-528(a5) # 80162cf4 <op_address>
    80002f0c:	00160797          	auipc	a5,0x160
    80002f10:	dec7d783          	lhu	a5,-532(a5) # 80162cf8 <cpu>
    80002f14:	01813083          	ld	ra,24(sp)
    80002f18:	01013403          	ld	s0,16(sp)
    80002f1c:	0027879b          	addiw	a5,a5,2
    80002f20:	00160717          	auipc	a4,0x160
    80002f24:	dcf71c23          	sh	a5,-552(a4) # 80162cf8 <cpu>
    80002f28:	00813483          	ld	s1,8(sp)
    80002f2c:	02010113          	addi	sp,sp,32
    80002f30:	00008067          	ret
    80002f34:	00050413          	mv	s0,a0
    80002f38:	f0057513          	andi	a0,a0,-256
    80002f3c:	03051513          	slli	a0,a0,0x30
    80002f40:	03055513          	srli	a0,a0,0x30
    80002f44:	aa9ff0ef          	jal	ra,800029ec <memory_readb>
    80002f48:	00050493          	mv	s1,a0
    80002f4c:	00040513          	mv	a0,s0
    80002f50:	a9dff0ef          	jal	ra,800029ec <memory_readb>
    80002f54:	0084979b          	slliw	a5,s1,0x8
    80002f58:	00a7853b          	addw	a0,a5,a0
    80002f5c:	00160797          	auipc	a5,0x160
    80002f60:	d8a7ac23          	sw	a0,-616(a5) # 80162cf4 <op_address>
    80002f64:	fa9ff06f          	j	80002f0c <cpu_address_indirect+0x34>

0000000080002f68 <cpu_address_indirect_x>:
    80002f68:	fe010113          	addi	sp,sp,-32
    80002f6c:	00913423          	sd	s1,8(sp)
    80002f70:	00160497          	auipc	s1,0x160
    80002f74:	d8848493          	addi	s1,s1,-632 # 80162cf8 <cpu>
    80002f78:	0004d503          	lhu	a0,0(s1)
    80002f7c:	00113c23          	sd	ra,24(sp)
    80002f80:	00813823          	sd	s0,16(sp)
    80002f84:	01213023          	sd	s2,0(sp)
    80002f88:	a65ff0ef          	jal	ra,800029ec <memory_readb>
    80002f8c:	00050913          	mv	s2,a0
    80002f90:	0044c503          	lbu	a0,4(s1)
    80002f94:	0015051b          	addiw	a0,a0,1
    80002f98:	0125053b          	addw	a0,a0,s2
    80002f9c:	0ff57513          	andi	a0,a0,255
    80002fa0:	a4dff0ef          	jal	ra,800029ec <memory_readb>
    80002fa4:	00050413          	mv	s0,a0
    80002fa8:	0044c503          	lbu	a0,4(s1)
    80002fac:	0084141b          	slliw	s0,s0,0x8
    80002fb0:	0125053b          	addw	a0,a0,s2
    80002fb4:	0ff57513          	andi	a0,a0,255
    80002fb8:	a35ff0ef          	jal	ra,800029ec <memory_readb>
    80002fbc:	00856433          	or	s0,a0,s0
    80002fc0:	0004079b          	sext.w	a5,s0
    80002fc4:	03079513          	slli	a0,a5,0x30
    80002fc8:	03055513          	srli	a0,a0,0x30
    80002fcc:	00160717          	auipc	a4,0x160
    80002fd0:	d2f72423          	sw	a5,-728(a4) # 80162cf4 <op_address>
    80002fd4:	a19ff0ef          	jal	ra,800029ec <memory_readb>
    80002fd8:	0004d783          	lhu	a5,0(s1)
    80002fdc:	01813083          	ld	ra,24(sp)
    80002fe0:	01013403          	ld	s0,16(sp)
    80002fe4:	0017879b          	addiw	a5,a5,1
    80002fe8:	00f49023          	sh	a5,0(s1)
    80002fec:	00160717          	auipc	a4,0x160
    80002ff0:	d0a72223          	sw	a0,-764(a4) # 80162cf0 <op_value>
    80002ff4:	00813483          	ld	s1,8(sp)
    80002ff8:	00013903          	ld	s2,0(sp)
    80002ffc:	02010113          	addi	sp,sp,32
    80003000:	00008067          	ret

0000000080003004 <cpu_address_indirect_y>:
    80003004:	fe010113          	addi	sp,sp,-32
    80003008:	00160517          	auipc	a0,0x160
    8000300c:	cf055503          	lhu	a0,-784(a0) # 80162cf8 <cpu>
    80003010:	00113c23          	sd	ra,24(sp)
    80003014:	00813823          	sd	s0,16(sp)
    80003018:	00913423          	sd	s1,8(sp)
    8000301c:	9d1ff0ef          	jal	ra,800029ec <memory_readb>
    80003020:	03051493          	slli	s1,a0,0x30
    80003024:	0304d493          	srli	s1,s1,0x30
    80003028:	0014851b          	addiw	a0,s1,1
    8000302c:	0ff57513          	andi	a0,a0,255
    80003030:	9bdff0ef          	jal	ra,800029ec <memory_readb>
    80003034:	00050413          	mv	s0,a0
    80003038:	00048513          	mv	a0,s1
    8000303c:	9b1ff0ef          	jal	ra,800029ec <memory_readb>
    80003040:	0084141b          	slliw	s0,s0,0x8
    80003044:	00856433          	or	s0,a0,s0
    80003048:	00160517          	auipc	a0,0x160
    8000304c:	cb554503          	lbu	a0,-843(a0) # 80162cfd <cpu+0x5>
    80003050:	0085053b          	addw	a0,a0,s0
    80003054:	03051793          	slli	a5,a0,0x30
    80003058:	0307d793          	srli	a5,a5,0x30
    8000305c:	00078513          	mv	a0,a5
    80003060:	00160717          	auipc	a4,0x160
    80003064:	c8f72a23          	sw	a5,-876(a4) # 80162cf4 <op_address>
    80003068:	985ff0ef          	jal	ra,800029ec <memory_readb>
    8000306c:	00160797          	auipc	a5,0x160
    80003070:	c8c7d783          	lhu	a5,-884(a5) # 80162cf8 <cpu>
    80003074:	00160717          	auipc	a4,0x160
    80003078:	c8070713          	addi	a4,a4,-896 # 80162cf4 <op_address>
    8000307c:	00072703          	lw	a4,0(a4)
    80003080:	0017879b          	addiw	a5,a5,1
    80003084:	03079793          	slli	a5,a5,0x30
    80003088:	0307d793          	srli	a5,a5,0x30
    8000308c:	00160697          	auipc	a3,0x160
    80003090:	c6f69623          	sh	a5,-916(a3) # 80162cf8 <cpu>
    80003094:	00160697          	auipc	a3,0x160
    80003098:	c4a6ae23          	sw	a0,-932(a3) # 80162cf0 <op_value>
    8000309c:	4087571b          	sraiw	a4,a4,0x8
    800030a0:	0087d793          	srli	a5,a5,0x8
    800030a4:	00f70e63          	beq	a4,a5,800030c0 <cpu_address_indirect_y+0xbc>
    800030a8:	00168797          	auipc	a5,0x168
    800030ac:	c5878793          	addi	a5,a5,-936 # 8016ad00 <op_cycles>
    800030b0:	0007a783          	lw	a5,0(a5)
    800030b4:	0017879b          	addiw	a5,a5,1
    800030b8:	00168717          	auipc	a4,0x168
    800030bc:	c4f72423          	sw	a5,-952(a4) # 8016ad00 <op_cycles>
    800030c0:	01813083          	ld	ra,24(sp)
    800030c4:	01013403          	ld	s0,16(sp)
    800030c8:	00813483          	ld	s1,8(sp)
    800030cc:	02010113          	addi	sp,sp,32
    800030d0:	00008067          	ret

00000000800030d4 <common_bit_set>:
    800030d4:	00100793          	li	a5,1
    800030d8:	00b795b3          	sll	a1,a5,a1
    800030dc:	00a5f533          	and	a0,a1,a0
    800030e0:	00a03533          	snez	a0,a0
    800030e4:	00008067          	ret

00000000800030e8 <common_set_bitb>:
    800030e8:	00054703          	lbu	a4,0(a0)
    800030ec:	00100793          	li	a5,1
    800030f0:	00b795b3          	sll	a1,a5,a1
    800030f4:	00e5e5b3          	or	a1,a1,a4
    800030f8:	00b50023          	sb	a1,0(a0)
    800030fc:	00008067          	ret

0000000080003100 <common_unset_bitb>:
    80003100:	00054703          	lbu	a4,0(a0)
    80003104:	00100793          	li	a5,1
    80003108:	00b795b3          	sll	a1,a5,a1
    8000310c:	fff5c593          	not	a1,a1
    80003110:	00e5f5b3          	and	a1,a1,a4
    80003114:	00b50023          	sb	a1,0(a0)
    80003118:	00008067          	ret

000000008000311c <common_modify_bitb>:
    8000311c:	00100793          	li	a5,1
    80003120:	00b795b3          	sll	a1,a5,a1
    80003124:	0185959b          	slliw	a1,a1,0x18
    80003128:	00050783          	lb	a5,0(a0)
    8000312c:	4185d59b          	sraiw	a1,a1,0x18
    80003130:	00061a63          	bnez	a2,80003144 <common_modify_bitb+0x28>
    80003134:	fff5c593          	not	a1,a1
    80003138:	00b7f5b3          	and	a1,a5,a1
    8000313c:	00b50023          	sb	a1,0(a0)
    80003140:	00008067          	ret
    80003144:	00b7e5b3          	or	a1,a5,a1
    80003148:	00b50023          	sb	a1,0(a0)
    8000314c:	00008067          	ret

0000000080003150 <mmc_read>:
    80003150:	00168797          	auipc	a5,0x168
    80003154:	bb878793          	addi	a5,a5,-1096 # 8016ad08 <memory>
    80003158:	00a78533          	add	a0,a5,a0
    8000315c:	00054503          	lbu	a0,0(a0)
    80003160:	00008067          	ret

0000000080003164 <mmc_write>:
    80003164:	fe010113          	addi	sp,sp,-32
    80003168:	00813823          	sd	s0,16(sp)
    8000316c:	00913423          	sd	s1,8(sp)
    80003170:	00113c23          	sd	ra,24(sp)
    80003174:	00178717          	auipc	a4,0x178
    80003178:	b9474703          	lbu	a4,-1132(a4) # 8017ad08 <mmc_id>
    8000317c:	00300793          	li	a5,3
    80003180:	00050493          	mv	s1,a0
    80003184:	00058413          	mv	s0,a1
    80003188:	02f71263          	bne	a4,a5,800031ac <mmc_write+0x48>
    8000318c:	0035f793          	andi	a5,a1,3
    80003190:	00d79793          	slli	a5,a5,0xd
    80003194:	00049597          	auipc	a1,0x49
    80003198:	66458593          	addi	a1,a1,1636 # 8004c7f8 <mmc_chr_pages>
    8000319c:	00002637          	lui	a2,0x2
    800031a0:	00f585b3          	add	a1,a1,a5
    800031a4:	00000513          	li	a0,0
    800031a8:	1f5000ef          	jal	ra,80003b9c <ppu_copy>
    800031ac:	00168517          	auipc	a0,0x168
    800031b0:	b5c50513          	addi	a0,a0,-1188 # 8016ad08 <memory>
    800031b4:	00950533          	add	a0,a0,s1
    800031b8:	00850023          	sb	s0,0(a0)
    800031bc:	01813083          	ld	ra,24(sp)
    800031c0:	01013403          	ld	s0,16(sp)
    800031c4:	00813483          	ld	s1,8(sp)
    800031c8:	02010113          	addi	sp,sp,32
    800031cc:	00008067          	ret

00000000800031d0 <mmc_copy>:
    800031d0:	00168797          	auipc	a5,0x168
    800031d4:	b3878793          	addi	a5,a5,-1224 # 8016ad08 <memory>
    800031d8:	00a78533          	add	a0,a5,a0
    800031dc:	18c0106f          	j	80004368 <memcpy>

00000000800031e0 <mmc_append_chr_rom_page>:
    800031e0:	00160797          	auipc	a5,0x160
    800031e4:	afc78793          	addi	a5,a5,-1284 # 80162cdc <mmc_chr_pages_number>
    800031e8:	0007a783          	lw	a5,0(a5)
    800031ec:	02f04663          	bgtz	a5,80003218 <mmc_append_chr_rom_page+0x38>
    800031f0:	00d79713          	slli	a4,a5,0xd
    800031f4:	00050593          	mv	a1,a0
    800031f8:	0017879b          	addiw	a5,a5,1
    800031fc:	00049517          	auipc	a0,0x49
    80003200:	5fc50513          	addi	a0,a0,1532 # 8004c7f8 <mmc_chr_pages>
    80003204:	00e50533          	add	a0,a0,a4
    80003208:	00002637          	lui	a2,0x2
    8000320c:	00160717          	auipc	a4,0x160
    80003210:	acf72823          	sw	a5,-1328(a4) # 80162cdc <mmc_chr_pages_number>
    80003214:	1540106f          	j	80004368 <memcpy>
    80003218:	ff010113          	addi	sp,sp,-16
    8000321c:	01d00613          	li	a2,29
    80003220:	00002597          	auipc	a1,0x2
    80003224:	83058593          	addi	a1,a1,-2000 # 80004a50 <cpu_zn_flag_table+0x230>
    80003228:	00002517          	auipc	a0,0x2
    8000322c:	88050513          	addi	a0,a0,-1920 # 80004aa8 <cpu_zn_flag_table+0x288>
    80003230:	00113423          	sd	ra,8(sp)
    80003234:	2c0010ef          	jal	ra,800044f4 <printf>
    80003238:	00100513          	li	a0,1
    8000323c:	659000ef          	jal	ra,80004094 <halt>

0000000080003240 <psgio_read>:
    80003240:	000047b7          	lui	a5,0x4
    80003244:	01678793          	addi	a5,a5,22 # 4016 <_entry_offset+0x4016>
    80003248:	00f50663          	beq	a0,a5,80003254 <psgio_read+0x14>
    8000324c:	00000513          	li	a0,0
    80003250:	00008067          	ret
    80003254:	0000c797          	auipc	a5,0xc
    80003258:	d9c78793          	addi	a5,a5,-612 # 8000eff0 <p>
    8000325c:	0007a703          	lw	a4,0(a5)
    80003260:	00800693          	li	a3,8
    80003264:	0017079b          	addiw	a5,a4,1
    80003268:	0000c617          	auipc	a2,0xc
    8000326c:	d8f62423          	sw	a5,-632(a2) # 8000eff0 <p>
    80003270:	fce6cee3          	blt	a3,a4,8000324c <psgio_read+0xc>
    80003274:	00002717          	auipc	a4,0x2
    80003278:	85470713          	addi	a4,a4,-1964 # 80004ac8 <MAP>
    8000327c:	00279793          	slli	a5,a5,0x2
    80003280:	00f707b3          	add	a5,a4,a5
    80003284:	0007a783          	lw	a5,0(a5)
    80003288:	00279713          	slli	a4,a5,0x2
    8000328c:	0004b797          	auipc	a5,0x4b
    80003290:	56c78793          	addi	a5,a5,1388 # 8004e7f8 <key_state>
    80003294:	00e787b3          	add	a5,a5,a4
    80003298:	0007c503          	lbu	a0,0(a5)
    8000329c:	00008067          	ret

00000000800032a0 <psgio_write>:
    800032a0:	000047b7          	lui	a5,0x4
    800032a4:	01678793          	addi	a5,a5,22 # 4016 <_entry_offset+0x4016>
    800032a8:	0015f593          	andi	a1,a1,1
    800032ac:	00f50863          	beq	a0,a5,800032bc <psgio_write+0x1c>
    800032b0:	00160797          	auipc	a5,0x160
    800032b4:	a2b78823          	sb	a1,-1488(a5) # 80162ce0 <prev_write.1486>
    800032b8:	00008067          	ret
    800032bc:	fe059ae3          	bnez	a1,800032b0 <psgio_write+0x10>
    800032c0:	00160717          	auipc	a4,0x160
    800032c4:	a2074703          	lbu	a4,-1504(a4) # 80162ce0 <prev_write.1486>
    800032c8:	00100793          	li	a5,1
    800032cc:	fef712e3          	bne	a4,a5,800032b0 <psgio_write+0x10>
    800032d0:	0000c797          	auipc	a5,0xc
    800032d4:	d207a023          	sw	zero,-736(a5) # 8000eff0 <p>
    800032d8:	fd9ff06f          	j	800032b0 <psgio_write+0x10>

00000000800032dc <psg_detect_key>:
    800032dc:	fe010113          	addi	sp,sp,-32
    800032e0:	00813823          	sd	s0,16(sp)
    800032e4:	00113c23          	sd	ra,24(sp)
    800032e8:	0004b417          	auipc	s0,0x4b
    800032ec:	51040413          	addi	s0,s0,1296 # 8004e7f8 <key_state>
    800032f0:	0080006f          	j	800032f8 <psg_detect_key+0x1c>
    800032f4:	00d7a023          	sw	a3,0(a5)
    800032f8:	00810593          	addi	a1,sp,8
    800032fc:	00800513          	li	a0,8
    80003300:	6b1000ef          	jal	ra,800041b0 <ioe_read>
    80003304:	00c12703          	lw	a4,12(sp)
    80003308:	00814683          	lbu	a3,8(sp)
    8000330c:	00271793          	slli	a5,a4,0x2
    80003310:	00f407b3          	add	a5,s0,a5
    80003314:	fe0710e3          	bnez	a4,800032f4 <psg_detect_key+0x18>
    80003318:	01813083          	ld	ra,24(sp)
    8000331c:	01013403          	ld	s0,16(sp)
    80003320:	02010113          	addi	sp,sp,32
    80003324:	00008067          	ret

0000000080003328 <ppu_get_real_ram_address.part.0>:
    80003328:	0105151b          	slliw	a0,a0,0x10
    8000332c:	4105551b          	sraiw	a0,a0,0x10
    80003330:	00004737          	lui	a4,0x4
    80003334:	f0070693          	addi	a3,a4,-256 # 3f00 <_entry_offset+0x3f00>
    80003338:	01357793          	andi	a5,a0,19
    8000333c:	00d7e7b3          	or	a5,a5,a3
    80003340:	01f57513          	andi	a0,a0,31
    80003344:	0107979b          	slliw	a5,a5,0x10
    80003348:	00d56533          	or	a0,a0,a3
    8000334c:	03051513          	slli	a0,a0,0x30
    80003350:	4107d79b          	sraiw	a5,a5,0x10
    80003354:	f1070713          	addi	a4,a4,-240
    80003358:	03055513          	srli	a0,a0,0x30
    8000335c:	00e78463          	beq	a5,a4,80003364 <ppu_get_real_ram_address.part.0+0x3c>
    80003360:	00008067          	ret
    80003364:	ff05051b          	addiw	a0,a0,-16
    80003368:	03051513          	slli	a0,a0,0x30
    8000336c:	03055513          	srli	a0,a0,0x30
    80003370:	00008067          	ret

0000000080003374 <ppu_generates_nmi>:
    80003374:	00700593          	li	a1,7
    80003378:	00178517          	auipc	a0,0x178
    8000337c:	99854503          	lbu	a0,-1640(a0) # 8017ad10 <ppu>
    80003380:	d55ff06f          	j	800030d4 <common_bit_set>

0000000080003384 <ppu_ram_read>:
    80003384:	00004737          	lui	a4,0x4
    80003388:	eff70693          	addi	a3,a4,-257 # 3eff <_entry_offset+0x3eff>
    8000338c:	00050793          	mv	a5,a0
    80003390:	00a6ec63          	bltu	a3,a0,800033a8 <ppu_ram_read+0x24>
    80003394:	0004c517          	auipc	a0,0x4c
    80003398:	86450513          	addi	a0,a0,-1948 # 8004ebf8 <PPU_RAM>
    8000339c:	00f507b3          	add	a5,a0,a5
    800033a0:	0007c503          	lbu	a0,0(a5)
    800033a4:	00008067          	ret
    800033a8:	02e57863          	bleu	a4,a0,800033d8 <ppu_ram_read+0x54>
    800033ac:	ff010113          	addi	sp,sp,-16
    800033b0:	00113423          	sd	ra,8(sp)
    800033b4:	f75ff0ef          	jal	ra,80003328 <ppu_get_real_ram_address.part.0>
    800033b8:	00813083          	ld	ra,8(sp)
    800033bc:	0005079b          	sext.w	a5,a0
    800033c0:	0004c517          	auipc	a0,0x4c
    800033c4:	83850513          	addi	a0,a0,-1992 # 8004ebf8 <PPU_RAM>
    800033c8:	00f507b3          	add	a5,a0,a5
    800033cc:	0007c503          	lbu	a0,0(a5)
    800033d0:	01010113          	addi	sp,sp,16
    800033d4:	00008067          	ret
    800033d8:	000107b7          	lui	a5,0x10
    800033dc:	0004c517          	auipc	a0,0x4c
    800033e0:	81c50513          	addi	a0,a0,-2020 # 8004ebf8 <PPU_RAM>
    800033e4:	fff78793          	addi	a5,a5,-1 # ffff <_entry_offset+0xffff>
    800033e8:	00f507b3          	add	a5,a0,a5
    800033ec:	0007c503          	lbu	a0,0(a5)
    800033f0:	00008067          	ret

00000000800033f4 <ppu_draw_background_scanline>:
    800033f4:	f5010113          	addi	sp,sp,-176
    800033f8:	02a13823          	sd	a0,48(sp)
    800033fc:	00100593          	li	a1,1
    80003400:	00178517          	auipc	a0,0x178
    80003404:	91154503          	lbu	a0,-1775(a0) # 8017ad11 <ppu+0x1>
    80003408:	08913c23          	sd	s1,152(sp)
    8000340c:	09213823          	sd	s2,144(sp)
    80003410:	09313423          	sd	s3,136(sp)
    80003414:	07513c23          	sd	s5,120(sp)
    80003418:	07713423          	sd	s7,104(sp)
    8000341c:	07813023          	sd	s8,96(sp)
    80003420:	0a113423          	sd	ra,168(sp)
    80003424:	0a813023          	sd	s0,160(sp)
    80003428:	09413023          	sd	s4,128(sp)
    8000342c:	07613823          	sd	s6,112(sp)
    80003430:	05913c23          	sd	s9,88(sp)
    80003434:	05a13823          	sd	s10,80(sp)
    80003438:	05b13423          	sd	s11,72(sp)
    8000343c:	c99ff0ef          	jal	ra,800030d4 <common_bit_set>
    80003440:	00154493          	xori	s1,a0,1
    80003444:	000047b7          	lui	a5,0x4
    80003448:	0ff4f493          	andi	s1,s1,255
    8000344c:	00004bb7          	lui	s7,0x4
    80003450:	f007879b          	addiw	a5,a5,-256
    80003454:	00010ab7          	lui	s5,0x10
    80003458:	0004899b          	sext.w	s3,s1
    8000345c:	00178917          	auipc	s2,0x178
    80003460:	8b490913          	addi	s2,s2,-1868 # 8017ad10 <ppu>
    80003464:	00349493          	slli	s1,s1,0x3
    80003468:	effb8c13          	addi	s8,s7,-257 # 3eff <_entry_offset+0x3eff>
    8000346c:	00f12e23          	sw	a5,28(sp)
    80003470:	fffa8a93          	addi	s5,s5,-1 # ffff <_entry_offset+0xffff>
    80003474:	0240006f          	j	80003498 <ppu_draw_background_scanline+0xa4>
    80003478:	00178717          	auipc	a4,0x178
    8000347c:	8a074703          	lbu	a4,-1888(a4) # 8017ad18 <ppu+0x8>
    80003480:	40e787bb          	subw	a5,a5,a4
    80003484:	28f05463          	blez	a5,8000370c <ppu_draw_background_scanline+0x318>
    80003488:	0019899b          	addiw	s3,s3,1
    8000348c:	02000793          	li	a5,32
    80003490:	0084849b          	addiw	s1,s1,8
    80003494:	22f98463          	beq	s3,a5,800036bc <ppu_draw_background_scanline+0x2c8>
    80003498:	03013703          	ld	a4,48(sp)
    8000349c:	0004879b          	sext.w	a5,s1
    800034a0:	fc071ce3          	bnez	a4,80003478 <ppu_draw_background_scanline+0x84>
    800034a4:	00178a17          	auipc	s4,0x178
    800034a8:	86ca4a03          	lbu	s4,-1940(s4) # 8017ad10 <ppu>
    800034ac:	003a7793          	andi	a5,s4,3
    800034b0:	02092503          	lw	a0,32(s2)
    800034b4:	00002b17          	auipc	s6,0x2
    800034b8:	b1cb0b13          	addi	s6,s6,-1252 # 80004fd0 <ppu_base_nametable_addresses>
    800034bc:	00179793          	slli	a5,a5,0x1
    800034c0:	00fb07b3          	add	a5,s6,a5
    800034c4:	0007d783          	lhu	a5,0(a5) # 4000 <_entry_offset+0x4000>
    800034c8:	4035551b          	sraiw	a0,a0,0x3
    800034cc:	0055151b          	slliw	a0,a0,0x5
    800034d0:	00f5053b          	addw	a0,a0,a5
    800034d4:	0135053b          	addw	a0,a0,s3
    800034d8:	03051513          	slli	a0,a0,0x30
    800034dc:	03055513          	srli	a0,a0,0x30
    800034e0:	00013823          	sd	zero,16(sp)
    800034e4:	00013423          	sd	zero,8(sp)
    800034e8:	0005071b          	sext.w	a4,a0
    800034ec:	00070793          	mv	a5,a4
    800034f0:	20ec6463          	bltu	s8,a4,800036f8 <ppu_draw_background_scanline+0x304>
    800034f4:	0004b417          	auipc	s0,0x4b
    800034f8:	70440413          	addi	s0,s0,1796 # 8004ebf8 <PPU_RAM>
    800034fc:	00f407b3          	add	a5,s0,a5
    80003500:	000a0513          	mv	a0,s4
    80003504:	00400593          	li	a1,4
    80003508:	0007ca03          	lbu	s4,0(a5)
    8000350c:	bc9ff0ef          	jal	ra,800030d4 <common_bit_set>
    80003510:	02092703          	lw	a4,32(s2)
    80003514:	00a037b3          	snez	a5,a0
    80003518:	004a1a1b          	slliw	s4,s4,0x4
    8000351c:	00777513          	andi	a0,a4,7
    80003520:	00c79793          	slli	a5,a5,0xc
    80003524:	00aa053b          	addw	a0,s4,a0
    80003528:	00f5053b          	addw	a0,a0,a5
    8000352c:	03051513          	slli	a0,a0,0x30
    80003530:	03055513          	srli	a0,a0,0x30
    80003534:	00a407b3          	add	a5,s0,a0
    80003538:	00078513          	mv	a0,a5
    8000353c:	0007c783          	lbu	a5,0(a5)
    80003540:	00854703          	lbu	a4,8(a0)
    80003544:	4029da1b          	sraiw	s4,s3,0x2
    80003548:	00879793          	slli	a5,a5,0x8
    8000354c:	00f70733          	add	a4,a4,a5
    80003550:	00371713          	slli	a4,a4,0x3
    80003554:	030a1a13          	slli	s4,s4,0x30
    80003558:	000cf797          	auipc	a5,0xcf
    8000355c:	7a078793          	addi	a5,a5,1952 # 800d2cf8 <ppu_l_h_addition_table>
    80003560:	030a5a13          	srli	s4,s4,0x30
    80003564:	00f70db3          	add	s11,a4,a5
    80003568:	00000d13          	li	s10,0
    8000356c:	0039fc93          	andi	s9,s3,3
    80003570:	0bc0006f          	j	8000362c <ppu_draw_background_scanline+0x238>
    80003574:	00f407b3          	add	a5,s0,a5
    80003578:	00f00513          	li	a0,15
    8000357c:	0007c783          	lbu	a5,0(a5)
    80003580:	00c55463          	ble	a2,a0,80003588 <ppu_draw_background_scanline+0x194>
    80003584:	0047d793          	srli	a5,a5,0x4
    80003588:	00100613          	li	a2,1
    8000358c:	01965463          	ble	s9,a2,80003594 <ppu_draw_background_scanline+0x1a0>
    80003590:	0027d793          	srli	a5,a5,0x2
    80003594:	0037f513          	andi	a0,a5,3
    80003598:	01c12783          	lw	a5,28(sp)
    8000359c:	0025151b          	slliw	a0,a0,0x2
    800035a0:	000a8613          	mv	a2,s5
    800035a4:	010787bb          	addw	a5,a5,a6
    800035a8:	00f5053b          	addw	a0,a0,a5
    800035ac:	03051513          	slli	a0,a0,0x30
    800035b0:	03055513          	srli	a0,a0,0x30
    800035b4:	01757e63          	bleu	s7,a0,800035d0 <ppu_draw_background_scanline+0x1dc>
    800035b8:	03013423          	sd	a6,40(sp)
    800035bc:	02b13023          	sd	a1,32(sp)
    800035c0:	d69ff0ef          	jal	ra,80003328 <ppu_get_real_ram_address.part.0>
    800035c4:	02813803          	ld	a6,40(sp)
    800035c8:	02013583          	ld	a1,32(sp)
    800035cc:	0005061b          	sext.w	a2,a0
    800035d0:	009d08bb          	addw	a7,s10,s1
    800035d4:	00589793          	slli	a5,a7,0x5
    800035d8:	411787b3          	sub	a5,a5,a7
    800035dc:	00c40633          	add	a2,s0,a2
    800035e0:	01013703          	ld	a4,16(sp)
    800035e4:	00088313          	mv	t1,a7
    800035e8:	00177517          	auipc	a0,0x177
    800035ec:	73054503          	lbu	a0,1840(a0) # 8017ad18 <ppu+0x8>
    800035f0:	00379893          	slli	a7,a5,0x3
    800035f4:	00064603          	lbu	a2,0(a2)
    800035f8:	0014f797          	auipc	a5,0x14f
    800035fc:	70078793          	addi	a5,a5,1792 # 80152cf8 <ppu_screen_background>
    80003600:	011787b3          	add	a5,a5,a7
    80003604:	40a3053b          	subw	a0,t1,a0
    80003608:	00b787b3          	add	a5,a5,a1
    8000360c:	00e5053b          	addw	a0,a0,a4
    80003610:	0015859b          	addiw	a1,a1,1
    80003614:	01078023          	sb	a6,0(a5)
    80003618:	9f9fc0ef          	jal	ra,80000010 <draw>
    8000361c:	001d0d1b          	addiw	s10,s10,1
    80003620:	00800793          	li	a5,8
    80003624:	001d8d93          	addi	s11,s11,1
    80003628:	e6fd00e3          	beq	s10,a5,80003488 <ppu_draw_background_scanline+0x94>
    8000362c:	000dc803          	lbu	a6,0(s11)
    80003630:	fe0806e3          	beqz	a6,8000361c <ppu_draw_background_scanline+0x228>
    80003634:	00094783          	lbu	a5,0(s2)
    80003638:	02092583          	lw	a1,32(s2)
    8000363c:	00813703          	ld	a4,8(sp)
    80003640:	0037f793          	andi	a5,a5,3
    80003644:	00179793          	slli	a5,a5,0x1
    80003648:	00fb07b3          	add	a5,s6,a5
    8000364c:	0007d783          	lhu	a5,0(a5)
    80003650:	4055d51b          	sraiw	a0,a1,0x5
    80003654:	0035151b          	slliw	a0,a0,0x3
    80003658:	00f5053b          	addw	a0,a0,a5
    8000365c:	3c05051b          	addiw	a0,a0,960
    80003660:	0145053b          	addw	a0,a0,s4
    80003664:	41f5d61b          	sraiw	a2,a1,0x1f
    80003668:	00e5053b          	addw	a0,a0,a4
    8000366c:	01b6579b          	srliw	a5,a2,0x1b
    80003670:	03051513          	slli	a0,a0,0x30
    80003674:	00b7863b          	addw	a2,a5,a1
    80003678:	03055513          	srli	a0,a0,0x30
    8000367c:	01f67613          	andi	a2,a2,31
    80003680:	0005089b          	sext.w	a7,a0
    80003684:	40f6063b          	subw	a2,a2,a5
    80003688:	00088793          	mv	a5,a7
    8000368c:	ef1c74e3          	bleu	a7,s8,80003574 <ppu_draw_background_scanline+0x180>
    80003690:	000a8793          	mv	a5,s5
    80003694:	ef78f0e3          	bleu	s7,a7,80003574 <ppu_draw_background_scanline+0x180>
    80003698:	03013c23          	sd	a6,56(sp)
    8000369c:	02c13423          	sd	a2,40(sp)
    800036a0:	02b13023          	sd	a1,32(sp)
    800036a4:	c85ff0ef          	jal	ra,80003328 <ppu_get_real_ram_address.part.0>
    800036a8:	0005079b          	sext.w	a5,a0
    800036ac:	03813803          	ld	a6,56(sp)
    800036b0:	02813603          	ld	a2,40(sp)
    800036b4:	02013583          	ld	a1,32(sp)
    800036b8:	ebdff06f          	j	80003574 <ppu_draw_background_scanline+0x180>
    800036bc:	0a813083          	ld	ra,168(sp)
    800036c0:	0a013403          	ld	s0,160(sp)
    800036c4:	09813483          	ld	s1,152(sp)
    800036c8:	09013903          	ld	s2,144(sp)
    800036cc:	08813983          	ld	s3,136(sp)
    800036d0:	08013a03          	ld	s4,128(sp)
    800036d4:	07813a83          	ld	s5,120(sp)
    800036d8:	07013b03          	ld	s6,112(sp)
    800036dc:	06813b83          	ld	s7,104(sp)
    800036e0:	06013c03          	ld	s8,96(sp)
    800036e4:	05813c83          	ld	s9,88(sp)
    800036e8:	05013d03          	ld	s10,80(sp)
    800036ec:	04813d83          	ld	s11,72(sp)
    800036f0:	0b010113          	addi	sp,sp,176
    800036f4:	00008067          	ret
    800036f8:	000a8793          	mv	a5,s5
    800036fc:	df777ce3          	bleu	s7,a4,800034f4 <ppu_draw_background_scanline+0x100>
    80003700:	c29ff0ef          	jal	ra,80003328 <ppu_get_real_ram_address.part.0>
    80003704:	0005079b          	sext.w	a5,a0
    80003708:	dedff06f          	j	800034f4 <ppu_draw_background_scanline+0x100>
    8000370c:	00177a17          	auipc	s4,0x177
    80003710:	604a4a03          	lbu	s4,1540(s4) # 8017ad10 <ppu>
    80003714:	003a7793          	andi	a5,s4,3
    80003718:	02092503          	lw	a0,32(s2)
    8000371c:	00002b17          	auipc	s6,0x2
    80003720:	8b4b0b13          	addi	s6,s6,-1868 # 80004fd0 <ppu_base_nametable_addresses>
    80003724:	00179793          	slli	a5,a5,0x1
    80003728:	00fb07b3          	add	a5,s6,a5
    8000372c:	0007d783          	lhu	a5,0(a5)
    80003730:	4035551b          	sraiw	a0,a0,0x3
    80003734:	0055151b          	slliw	a0,a0,0x5
    80003738:	00f5053b          	addw	a0,a0,a5
    8000373c:	4005051b          	addiw	a0,a0,1024
    80003740:	10000793          	li	a5,256
    80003744:	0135053b          	addw	a0,a0,s3
    80003748:	03051513          	slli	a0,a0,0x30
    8000374c:	00f13823          	sd	a5,16(sp)
    80003750:	40000793          	li	a5,1024
    80003754:	03055513          	srli	a0,a0,0x30
    80003758:	00f13423          	sd	a5,8(sp)
    8000375c:	d8dff06f          	j	800034e8 <ppu_draw_background_scanline+0xf4>

0000000080003760 <ppu_draw_sprite_scanline>:
    80003760:	f7010113          	addi	sp,sp,-144
    80003764:	000047b7          	lui	a5,0x4
    80003768:	f107879b          	addiw	a5,a5,-240
    8000376c:	05813023          	sd	s8,64(sp)
    80003770:	00010c37          	lui	s8,0x10
    80003774:	00f12a23          	sw	a5,20(sp)
    80003778:	fffc0793          	addi	a5,s8,-1 # ffff <_entry_offset+0xffff>
    8000377c:	07413023          	sd	s4,96(sp)
    80003780:	05513c23          	sd	s5,88(sp)
    80003784:	03b13423          	sd	s11,40(sp)
    80003788:	08113423          	sd	ra,136(sp)
    8000378c:	08813023          	sd	s0,128(sp)
    80003790:	06913c23          	sd	s1,120(sp)
    80003794:	07213823          	sd	s2,112(sp)
    80003798:	07313423          	sd	s3,104(sp)
    8000379c:	05613823          	sd	s6,80(sp)
    800037a0:	05713423          	sd	s7,72(sp)
    800037a4:	03913c23          	sd	s9,56(sp)
    800037a8:	03a13823          	sd	s10,48(sp)
    800037ac:	0004fd97          	auipc	s11,0x4f
    800037b0:	44cd8d93          	addi	s11,s11,1100 # 80052bf8 <PPU_SPRRAM>
    800037b4:	00013423          	sd	zero,8(sp)
    800037b8:	00177a17          	auipc	s4,0x177
    800037bc:	558a0a13          	addi	s4,s4,1368 # 8017ad10 <ppu>
    800037c0:	0004ba97          	auipc	s5,0x4b
    800037c4:	438a8a93          	addi	s5,s5,1080 # 8004ebf8 <PPU_RAM>
    800037c8:	00f13023          	sd	a5,0(sp)
    800037cc:	000dc403          	lbu	s0,0(s11)
    800037d0:	020a2783          	lw	a5,32(s4)
    800037d4:	00040493          	mv	s1,s0
    800037d8:	1a87c063          	blt	a5,s0,80003978 <ppu_draw_sprite_scanline+0x218>
    800037dc:	00500593          	li	a1,5
    800037e0:	00177517          	auipc	a0,0x177
    800037e4:	53054503          	lbu	a0,1328(a0) # 8017ad10 <ppu>
    800037e8:	003dcb03          	lbu	s6,3(s11)
    800037ec:	8e9ff0ef          	jal	ra,800030d4 <common_bit_set>
    800037f0:	00800793          	li	a5,8
    800037f4:	00050463          	beqz	a0,800037fc <ppu_draw_sprite_scanline+0x9c>
    800037f8:	01000793          	li	a5,16
    800037fc:	020a2703          	lw	a4,32(s4)
    80003800:	00f484bb          	addw	s1,s1,a5
    80003804:	16e4ca63          	blt	s1,a4,80003978 <ppu_draw_sprite_scanline+0x218>
    80003808:	00813783          	ld	a5,8(sp)
    8000380c:	0017879b          	addiw	a5,a5,1
    80003810:	00078713          	mv	a4,a5
    80003814:	00f13423          	sd	a5,8(sp)
    80003818:	00800793          	li	a5,8
    8000381c:	1ae7ce63          	blt	a5,a4,800039d8 <ppu_draw_sprite_scanline+0x278>
    80003820:	00300593          	li	a1,3
    80003824:	00177517          	auipc	a0,0x177
    80003828:	4ec54503          	lbu	a0,1260(a0) # 8017ad10 <ppu>
    8000382c:	002dc903          	lbu	s2,2(s11)
    80003830:	8a5ff0ef          	jal	ra,800030d4 <common_bit_set>
    80003834:	001dc783          	lbu	a5,1(s11)
    80003838:	020a2603          	lw	a2,32(s4)
    8000383c:	00a03533          	snez	a0,a0
    80003840:	00c51513          	slli	a0,a0,0xc
    80003844:	0047979b          	slliw	a5,a5,0x4
    80003848:	0189149b          	slliw	s1,s2,0x18
    8000384c:	00a787bb          	addw	a5,a5,a0
    80003850:	00767613          	andi	a2,a2,7
    80003854:	03079513          	slli	a0,a5,0x30
    80003858:	4184d49b          	sraiw	s1,s1,0x18
    8000385c:	03061793          	slli	a5,a2,0x30
    80003860:	04097913          	andi	s2,s2,64
    80003864:	03055513          	srli	a0,a0,0x30
    80003868:	0307d793          	srli	a5,a5,0x30
    8000386c:	0004da63          	bgez	s1,80003880 <ppu_draw_sprite_scanline+0x120>
    80003870:	00700713          	li	a4,7
    80003874:	40f707bb          	subw	a5,a4,a5
    80003878:	03079793          	slli	a5,a5,0x30
    8000387c:	0307d793          	srli	a5,a5,0x30
    80003880:	00a787bb          	addw	a5,a5,a0
    80003884:	03079793          	slli	a5,a5,0x30
    80003888:	0307d793          	srli	a5,a5,0x30
    8000388c:	0087871b          	addiw	a4,a5,8
    80003890:	03071713          	slli	a4,a4,0x30
    80003894:	002dc483          	lbu	s1,2(s11)
    80003898:	00fa87b3          	add	a5,s5,a5
    8000389c:	03075713          	srli	a4,a4,0x30
    800038a0:	0007c783          	lbu	a5,0(a5) # 4000 <_entry_offset+0x4000>
    800038a4:	00ea8733          	add	a4,s5,a4
    800038a8:	00074703          	lbu	a4,0(a4)
    800038ac:	01412683          	lw	a3,20(sp)
    800038b0:	0034f493          	andi	s1,s1,3
    800038b4:	0024949b          	slliw	s1,s1,0x2
    800038b8:	00879793          	slli	a5,a5,0x8
    800038bc:	00c4043b          	addw	s0,s0,a2
    800038c0:	00e787b3          	add	a5,a5,a4
    800038c4:	00d484bb          	addw	s1,s1,a3
    800038c8:	03049493          	slli	s1,s1,0x30
    800038cc:	00379c93          	slli	s9,a5,0x3
    800038d0:	0004079b          	sext.w	a5,s0
    800038d4:	0304d493          	srli	s1,s1,0x30
    800038d8:	00000d13          	li	s10,0
    800038dc:	0004fb97          	auipc	s7,0x4f
    800038e0:	41cb8b93          	addi	s7,s7,1052 # 80052cf8 <ppu_l_h_addition_flip_table>
    800038e4:	00f13c23          	sd	a5,24(sp)
    800038e8:	0014041b          	addiw	s0,s0,1
    800038ec:	0c090c63          	beqz	s2,800039c4 <ppu_draw_sprite_scanline+0x264>
    800038f0:	017c8633          	add	a2,s9,s7
    800038f4:	00064c03          	lbu	s8,0(a2)
    800038f8:	060c0863          	beqz	s8,80003968 <ppu_draw_sprite_scanline+0x208>
    800038fc:	009c053b          	addw	a0,s8,s1
    80003900:	03051513          	slli	a0,a0,0x30
    80003904:	03055513          	srli	a0,a0,0x30
    80003908:	000045b7          	lui	a1,0x4
    8000390c:	016d09bb          	addw	s3,s10,s6
    80003910:	00013603          	ld	a2,0(sp)
    80003914:	00b57663          	bleu	a1,a0,80003920 <ppu_draw_sprite_scanline+0x1c0>
    80003918:	a11ff0ef          	jal	ra,80003328 <ppu_get_real_ram_address.part.0>
    8000391c:	0005061b          	sext.w	a2,a0
    80003920:	00ca8633          	add	a2,s5,a2
    80003924:	00064603          	lbu	a2,0(a2)
    80003928:	00040593          	mv	a1,s0
    8000392c:	00098513          	mv	a0,s3
    80003930:	ee0fc0ef          	jal	ra,80000010 <draw>
    80003934:	00300593          	li	a1,3
    80003938:	00177517          	auipc	a0,0x177
    8000393c:	3d954503          	lbu	a0,985(a0) # 8017ad11 <ppu+0x1>
    80003940:	f94ff0ef          	jal	ra,800030d4 <common_bit_set>
    80003944:	02050263          	beqz	a0,80003968 <ppu_draw_sprite_scanline+0x208>
    80003948:	0015f617          	auipc	a2,0x15f
    8000394c:	39b64603          	lbu	a2,923(a2) # 80162ce3 <ppu_sprite_hit_occured>
    80003950:	00061c63          	bnez	a2,80003968 <ppu_draw_sprite_scanline+0x208>
    80003954:	0004f797          	auipc	a5,0x4f
    80003958:	2a478793          	addi	a5,a5,676 # 80052bf8 <PPU_SPRRAM>
    8000395c:	0007861b          	sext.w	a2,a5
    80003960:	000d859b          	sext.w	a1,s11
    80003964:	08b60663          	beq	a2,a1,800039f0 <ppu_draw_sprite_scanline+0x290>
    80003968:	001d0d1b          	addiw	s10,s10,1
    8000396c:	00800613          	li	a2,8
    80003970:	001c8c93          	addi	s9,s9,1
    80003974:	f6cd1ce3          	bne	s10,a2,800038ec <ppu_draw_sprite_scanline+0x18c>
    80003978:	004d8d93          	addi	s11,s11,4
    8000397c:	0004f797          	auipc	a5,0x4f
    80003980:	37c78793          	addi	a5,a5,892 # 80052cf8 <ppu_l_h_addition_flip_table>
    80003984:	e5b794e3          	bne	a5,s11,800037cc <ppu_draw_sprite_scanline+0x6c>
    80003988:	08813083          	ld	ra,136(sp)
    8000398c:	08013403          	ld	s0,128(sp)
    80003990:	07813483          	ld	s1,120(sp)
    80003994:	07013903          	ld	s2,112(sp)
    80003998:	06813983          	ld	s3,104(sp)
    8000399c:	06013a03          	ld	s4,96(sp)
    800039a0:	05813a83          	ld	s5,88(sp)
    800039a4:	05013b03          	ld	s6,80(sp)
    800039a8:	04813b83          	ld	s7,72(sp)
    800039ac:	04013c03          	ld	s8,64(sp)
    800039b0:	03813c83          	ld	s9,56(sp)
    800039b4:	03013d03          	ld	s10,48(sp)
    800039b8:	02813d83          	ld	s11,40(sp)
    800039bc:	09010113          	addi	sp,sp,144
    800039c0:	00008067          	ret
    800039c4:	000cf797          	auipc	a5,0xcf
    800039c8:	33478793          	addi	a5,a5,820 # 800d2cf8 <ppu_l_h_addition_table>
    800039cc:	00fc8633          	add	a2,s9,a5
    800039d0:	00064c03          	lbu	s8,0(a2)
    800039d4:	f25ff06f          	j	800038f8 <ppu_draw_sprite_scanline+0x198>
    800039d8:	00100613          	li	a2,1
    800039dc:	00500593          	li	a1,5
    800039e0:	00177517          	auipc	a0,0x177
    800039e4:	33250513          	addi	a0,a0,818 # 8017ad12 <ppu+0x2>
    800039e8:	f34ff0ef          	jal	ra,8000311c <common_modify_bitb>
    800039ec:	e35ff06f          	j	80003820 <ppu_draw_sprite_scanline+0xc0>
    800039f0:	00599613          	slli	a2,s3,0x5
    800039f4:	41360633          	sub	a2,a2,s3
    800039f8:	01813783          	ld	a5,24(sp)
    800039fc:	00361593          	slli	a1,a2,0x3
    80003a00:	0014f617          	auipc	a2,0x14f
    80003a04:	2f860613          	addi	a2,a2,760 # 80152cf8 <ppu_screen_background>
    80003a08:	00b60633          	add	a2,a2,a1
    80003a0c:	00f60633          	add	a2,a2,a5
    80003a10:	00064603          	lbu	a2,0(a2)
    80003a14:	f5861ae3          	bne	a2,s8,80003968 <ppu_draw_sprite_scanline+0x208>
    80003a18:	00100613          	li	a2,1
    80003a1c:	00600593          	li	a1,6
    80003a20:	00177517          	auipc	a0,0x177
    80003a24:	2f250513          	addi	a0,a0,754 # 8017ad12 <ppu+0x2>
    80003a28:	ef4ff0ef          	jal	ra,8000311c <common_modify_bitb>
    80003a2c:	00100613          	li	a2,1
    80003a30:	0015f797          	auipc	a5,0x15f
    80003a34:	2ac789a3          	sb	a2,691(a5) # 80162ce3 <ppu_sprite_hit_occured>
    80003a38:	f31ff06f          	j	80003968 <ppu_draw_sprite_scanline+0x208>

0000000080003a3c <ppu_cycle>:
    80003a3c:	ff010113          	addi	sp,sp,-16
    80003a40:	00813023          	sd	s0,0(sp)
    80003a44:	00177417          	auipc	s0,0x177
    80003a48:	2cc40413          	addi	s0,s0,716 # 8017ad10 <ppu>
    80003a4c:	01044783          	lbu	a5,16(s0)
    80003a50:	00113423          	sd	ra,8(sp)
    80003a54:	06078263          	beqz	a5,80003ab8 <ppu_cycle+0x7c>
    80003a58:	10000513          	li	a0,256
    80003a5c:	df5fe0ef          	jal	ra,80002850 <cpu_run>
    80003a60:	02042783          	lw	a5,32(s0)
    80003a64:	0ef00713          	li	a4,239
    80003a68:	0017869b          	addiw	a3,a5,1
    80003a6c:	00177617          	auipc	a2,0x177
    80003a70:	2cd62223          	sw	a3,708(a2) # 8017ad30 <ppu+0x20>
    80003a74:	0cd75463          	ble	a3,a4,80003b3c <ppu_cycle+0x100>
    80003a78:	04500513          	li	a0,69
    80003a7c:	dd5fe0ef          	jal	ra,80002850 <cpu_run>
    80003a80:	02042703          	lw	a4,32(s0)
    80003a84:	0ef00793          	li	a5,239
    80003a88:	04e7d863          	ble	a4,a5,80003ad8 <ppu_cycle+0x9c>
    80003a8c:	01000513          	li	a0,16
    80003a90:	dc1fe0ef          	jal	ra,80002850 <cpu_run>
    80003a94:	02042783          	lw	a5,32(s0)
    80003a98:	0f100713          	li	a4,241
    80003a9c:	06e78463          	beq	a5,a4,80003b04 <ppu_cycle+0xc8>
    80003aa0:	10600713          	li	a4,262
    80003aa4:	0ce78063          	beq	a5,a4,80003b64 <ppu_cycle+0x128>
    80003aa8:	00813083          	ld	ra,8(sp)
    80003aac:	00013403          	ld	s0,0(sp)
    80003ab0:	01010113          	addi	sp,sp,16
    80003ab4:	00008067          	ret
    80003ab8:	d89fe0ef          	jal	ra,80002840 <cpu_clock>
    80003abc:	000077b7          	lui	a5,0x7
    80003ac0:	3da78793          	addi	a5,a5,986 # 73da <_entry_offset+0x73da>
    80003ac4:	f8a7fae3          	bleu	a0,a5,80003a58 <ppu_cycle+0x1c>
    80003ac8:	00100793          	li	a5,1
    80003acc:	00177717          	auipc	a4,0x177
    80003ad0:	24f70a23          	sb	a5,596(a4) # 8017ad20 <ppu+0x10>
    80003ad4:	f85ff06f          	j	80003a58 <ppu_cycle+0x1c>
    80003ad8:	00400593          	li	a1,4
    80003adc:	00177517          	auipc	a0,0x177
    80003ae0:	23554503          	lbu	a0,565(a0) # 8017ad11 <ppu+0x1>
    80003ae4:	df0ff0ef          	jal	ra,800030d4 <common_bit_set>
    80003ae8:	fa0502e3          	beqz	a0,80003a8c <ppu_cycle+0x50>
    80003aec:	c75ff0ef          	jal	ra,80003760 <ppu_draw_sprite_scanline>
    80003af0:	01000513          	li	a0,16
    80003af4:	d5dfe0ef          	jal	ra,80002850 <cpu_run>
    80003af8:	02042783          	lw	a5,32(s0)
    80003afc:	0f100713          	li	a4,241
    80003b00:	fae790e3          	bne	a5,a4,80003aa0 <ppu_cycle+0x64>
    80003b04:	00100613          	li	a2,1
    80003b08:	00700593          	li	a1,7
    80003b0c:	00177517          	auipc	a0,0x177
    80003b10:	20650513          	addi	a0,a0,518 # 8017ad12 <ppu+0x2>
    80003b14:	e08ff0ef          	jal	ra,8000311c <common_modify_bitb>
    80003b18:	00000613          	li	a2,0
    80003b1c:	00600593          	li	a1,6
    80003b20:	00177517          	auipc	a0,0x177
    80003b24:	1f250513          	addi	a0,a0,498 # 8017ad12 <ppu+0x2>
    80003b28:	df4ff0ef          	jal	ra,8000311c <common_modify_bitb>
    80003b2c:	00013403          	ld	s0,0(sp)
    80003b30:	00813083          	ld	ra,8(sp)
    80003b34:	01010113          	addi	sp,sp,16
    80003b38:	c69fe06f          	j	800027a0 <cpu_interrupt>
    80003b3c:	00300593          	li	a1,3
    80003b40:	00177517          	auipc	a0,0x177
    80003b44:	1d154503          	lbu	a0,465(a0) # 8017ad11 <ppu+0x1>
    80003b48:	d8cff0ef          	jal	ra,800030d4 <common_bit_set>
    80003b4c:	f20506e3          	beqz	a0,80003a78 <ppu_cycle+0x3c>
    80003b50:	00000513          	li	a0,0
    80003b54:	8a1ff0ef          	jal	ra,800033f4 <ppu_draw_background_scanline>
    80003b58:	00100513          	li	a0,1
    80003b5c:	899ff0ef          	jal	ra,800033f4 <ppu_draw_background_scanline>
    80003b60:	f19ff06f          	j	80003a78 <ppu_cycle+0x3c>
    80003b64:	fff00793          	li	a5,-1
    80003b68:	00000613          	li	a2,0
    80003b6c:	00700593          	li	a1,7
    80003b70:	00177517          	auipc	a0,0x177
    80003b74:	1a250513          	addi	a0,a0,418 # 8017ad12 <ppu+0x2>
    80003b78:	00177717          	auipc	a4,0x177
    80003b7c:	1af72c23          	sw	a5,440(a4) # 8017ad30 <ppu+0x20>
    80003b80:	0015f797          	auipc	a5,0x15f
    80003b84:	160781a3          	sb	zero,355(a5) # 80162ce3 <ppu_sprite_hit_occured>
    80003b88:	d94ff0ef          	jal	ra,8000311c <common_modify_bitb>
    80003b8c:	00013403          	ld	s0,0(sp)
    80003b90:	00813083          	ld	ra,8(sp)
    80003b94:	01010113          	addi	sp,sp,16
    80003b98:	fc8fc06f          	j	80000360 <fce_update_screen>

0000000080003b9c <ppu_copy>:
    80003b9c:	0004b797          	auipc	a5,0x4b
    80003ba0:	05c78793          	addi	a5,a5,92 # 8004ebf8 <PPU_RAM>
    80003ba4:	00a78533          	add	a0,a5,a0
    80003ba8:	7c00006f          	j	80004368 <memcpy>

0000000080003bac <ppuio_read>:
    80003bac:	fe010113          	addi	sp,sp,-32
    80003bb0:	00813823          	sd	s0,16(sp)
    80003bb4:	00177417          	auipc	s0,0x177
    80003bb8:	15c40413          	addi	s0,s0,348 # 8017ad10 <ppu>
    80003bbc:	00a45683          	lhu	a3,10(s0)
    80003bc0:	00004737          	lui	a4,0x4
    80003bc4:	fff70793          	addi	a5,a4,-1 # 3fff <_entry_offset+0x3fff>
    80003bc8:	00d7f7b3          	and	a5,a5,a3
    80003bcc:	00177697          	auipc	a3,0x177
    80003bd0:	14f69723          	sh	a5,334(a3) # 8017ad1a <ppu+0xa>
    80003bd4:	00113c23          	sd	ra,24(sp)
    80003bd8:	00913423          	sd	s1,8(sp)
    80003bdc:	00757513          	andi	a0,a0,7
    80003be0:	00400693          	li	a3,4
    80003be4:	0ed50c63          	beq	a0,a3,80003cdc <ppuio_read+0x130>
    80003be8:	00700693          	li	a3,7
    80003bec:	08d50e63          	beq	a0,a3,80003c88 <ppuio_read+0xdc>
    80003bf0:	00200793          	li	a5,2
    80003bf4:	0ff00493          	li	s1,255
    80003bf8:	00f50e63          	beq	a0,a5,80003c14 <ppuio_read+0x68>
    80003bfc:	01813083          	ld	ra,24(sp)
    80003c00:	01013403          	ld	s0,16(sp)
    80003c04:	00048513          	mv	a0,s1
    80003c08:	00813483          	ld	s1,8(sp)
    80003c0c:	02010113          	addi	sp,sp,32
    80003c10:	00008067          	ret
    80003c14:	00000613          	li	a2,0
    80003c18:	00700593          	li	a1,7
    80003c1c:	00177517          	auipc	a0,0x177
    80003c20:	0f650513          	addi	a0,a0,246 # 8017ad12 <ppu+0x2>
    80003c24:	00177497          	auipc	s1,0x177
    80003c28:	0ee4c483          	lbu	s1,238(s1) # 8017ad12 <ppu+0x2>
    80003c2c:	cf0ff0ef          	jal	ra,8000311c <common_modify_bitb>
    80003c30:	00177517          	auipc	a0,0x177
    80003c34:	0e250513          	addi	a0,a0,226 # 8017ad12 <ppu+0x2>
    80003c38:	00000613          	li	a2,0
    80003c3c:	00600593          	li	a1,6
    80003c40:	cdcff0ef          	jal	ra,8000311c <common_modify_bitb>
    80003c44:	01813083          	ld	ra,24(sp)
    80003c48:	00177797          	auipc	a5,0x177
    80003c4c:	0c078b23          	sb	zero,214(a5) # 8017ad1e <ppu+0xe>
    80003c50:	00177797          	auipc	a5,0x177
    80003c54:	0c079323          	sh	zero,198(a5) # 8017ad16 <ppu+0x6>
    80003c58:	00177797          	auipc	a5,0x177
    80003c5c:	0c0783a3          	sb	zero,199(a5) # 8017ad1f <ppu+0xf>
    80003c60:	0015f797          	auipc	a5,0x15f
    80003c64:	08078123          	sb	zero,130(a5) # 80162ce2 <ppu_addr_latch>
    80003c68:	01013403          	ld	s0,16(sp)
    80003c6c:	00100793          	li	a5,1
    80003c70:	0015f717          	auipc	a4,0x15f
    80003c74:	06f708a3          	sb	a5,113(a4) # 80162ce1 <ppu_2007_first_read>
    80003c78:	00048513          	mv	a0,s1
    80003c7c:	00813483          	ld	s1,8(sp)
    80003c80:	02010113          	addi	sp,sp,32
    80003c84:	00008067          	ret
    80003c88:	0007869b          	sext.w	a3,a5
    80003c8c:	eff70713          	addi	a4,a4,-257
    80003c90:	06d77e63          	bleu	a3,a4,80003d0c <ppuio_read+0x160>
    80003c94:	00078513          	mv	a0,a5
    80003c98:	e90ff0ef          	jal	ra,80003328 <ppu_get_real_ram_address.part.0>
    80003c9c:	0005051b          	sext.w	a0,a0
    80003ca0:	0004b797          	auipc	a5,0x4b
    80003ca4:	f5878793          	addi	a5,a5,-168 # 8004ebf8 <PPU_RAM>
    80003ca8:	00a78533          	add	a0,a5,a0
    80003cac:	00054483          	lbu	s1,0(a0)
    80003cb0:	0015f797          	auipc	a5,0x15f
    80003cb4:	0317c783          	lbu	a5,49(a5) # 80162ce1 <ppu_2007_first_read>
    80003cb8:	06078463          	beqz	a5,80003d20 <ppuio_read+0x174>
    80003cbc:	01813083          	ld	ra,24(sp)
    80003cc0:	01013403          	ld	s0,16(sp)
    80003cc4:	0015f797          	auipc	a5,0x15f
    80003cc8:	00078ea3          	sb	zero,29(a5) # 80162ce1 <ppu_2007_first_read>
    80003ccc:	00048513          	mv	a0,s1
    80003cd0:	00813483          	ld	s1,8(sp)
    80003cd4:	02010113          	addi	sp,sp,32
    80003cd8:	00008067          	ret
    80003cdc:	00177717          	auipc	a4,0x177
    80003ce0:	03774703          	lbu	a4,55(a4) # 8017ad13 <ppu+0x3>
    80003ce4:	0004f797          	auipc	a5,0x4f
    80003ce8:	f1478793          	addi	a5,a5,-236 # 80052bf8 <PPU_SPRRAM>
    80003cec:	00e787b3          	add	a5,a5,a4
    80003cf0:	0007c483          	lbu	s1,0(a5)
    80003cf4:	01813083          	ld	ra,24(sp)
    80003cf8:	01013403          	ld	s0,16(sp)
    80003cfc:	00048513          	mv	a0,s1
    80003d00:	00813483          	ld	s1,8(sp)
    80003d04:	02010113          	addi	sp,sp,32
    80003d08:	00008067          	ret
    80003d0c:	0004b797          	auipc	a5,0x4b
    80003d10:	eec78793          	addi	a5,a5,-276 # 8004ebf8 <PPU_RAM>
    80003d14:	00d786b3          	add	a3,a5,a3
    80003d18:	0006c483          	lbu	s1,0(a3)
    80003d1c:	f95ff06f          	j	80003cb0 <ppuio_read+0x104>
    80003d20:	00200593          	li	a1,2
    80003d24:	00177517          	auipc	a0,0x177
    80003d28:	fec54503          	lbu	a0,-20(a0) # 8017ad10 <ppu>
    80003d2c:	ba8ff0ef          	jal	ra,800030d4 <common_bit_set>
    80003d30:	00100713          	li	a4,1
    80003d34:	00050463          	beqz	a0,80003d3c <ppuio_read+0x190>
    80003d38:	02000713          	li	a4,32
    80003d3c:	00a45783          	lhu	a5,10(s0)
    80003d40:	00e787bb          	addw	a5,a5,a4
    80003d44:	00177717          	auipc	a4,0x177
    80003d48:	fcf71b23          	sh	a5,-42(a4) # 8017ad1a <ppu+0xa>
    80003d4c:	eb1ff06f          	j	80003bfc <ppuio_read+0x50>

0000000080003d50 <ppuio_write>:
    80003d50:	00757513          	andi	a0,a0,7
    80003d54:	00001717          	auipc	a4,0x1
    80003d58:	17470713          	addi	a4,a4,372 # 80004ec8 <MAP+0x400>
    80003d5c:	00177697          	auipc	a3,0x177
    80003d60:	fb468693          	addi	a3,a3,-76 # 8017ad10 <ppu>
    80003d64:	00251513          	slli	a0,a0,0x2
    80003d68:	fe010113          	addi	sp,sp,-32
    80003d6c:	00a6d603          	lhu	a2,10(a3)
    80003d70:	00e50533          	add	a0,a0,a4
    80003d74:	00813823          	sd	s0,16(sp)
    80003d78:	00052783          	lw	a5,0(a0)
    80003d7c:	00004437          	lui	s0,0x4
    80003d80:	fff40413          	addi	s0,s0,-1 # 3fff <_entry_offset+0x3fff>
    80003d84:	00c47433          	and	s0,s0,a2
    80003d88:	00113c23          	sd	ra,24(sp)
    80003d8c:	00913423          	sd	s1,8(sp)
    80003d90:	01213023          	sd	s2,0(sp)
    80003d94:	00177617          	auipc	a2,0x177
    80003d98:	f8861323          	sh	s0,-122(a2) # 8017ad1a <ppu+0xa>
    80003d9c:	00e787b3          	add	a5,a5,a4
    80003da0:	00078067          	jr	a5
    80003da4:	0186d503          	lhu	a0,24(a3)
    80003da8:	00004737          	lui	a4,0x4
    80003dac:	eff70693          	addi	a3,a4,-257 # 3eff <_entry_offset+0x3eff>
    80003db0:	00a44533          	xor	a0,s0,a0
    80003db4:	03051513          	slli	a0,a0,0x30
    80003db8:	03055513          	srli	a0,a0,0x30
    80003dbc:	0005079b          	sext.w	a5,a0
    80003dc0:	00058493          	mv	s1,a1
    80003dc4:	16f6e863          	bltu	a3,a5,80003f34 <ppuio_write+0x1e4>
    80003dc8:	0004b917          	auipc	s2,0x4b
    80003dcc:	e3090913          	addi	s2,s2,-464 # 8004ebf8 <PPU_RAM>
    80003dd0:	00f907b3          	add	a5,s2,a5
    80003dd4:	00978023          	sb	s1,0(a5)
    80003dd8:	000047b7          	lui	a5,0x4
    80003ddc:	0004051b          	sext.w	a0,s0
    80003de0:	eff78793          	addi	a5,a5,-257 # 3eff <_entry_offset+0x3eff>
    80003de4:	14a7e063          	bltu	a5,a0,80003f24 <ppuio_write+0x1d4>
    80003de8:	00a90933          	add	s2,s2,a0
    80003dec:	00990023          	sb	s1,0(s2)
    80003df0:	01813083          	ld	ra,24(sp)
    80003df4:	01013403          	ld	s0,16(sp)
    80003df8:	00813483          	ld	s1,8(sp)
    80003dfc:	00013903          	ld	s2,0(sp)
    80003e00:	02010113          	addi	sp,sp,32
    80003e04:	00008067          	ret
    80003e08:	0106c783          	lbu	a5,16(a3)
    80003e0c:	fe0782e3          	beqz	a5,80003df0 <ppuio_write+0xa0>
    80003e10:	00177797          	auipc	a5,0x177
    80003e14:	f0b78023          	sb	a1,-256(a5) # 8017ad10 <ppu>
    80003e18:	fd9ff06f          	j	80003df0 <ppuio_write+0xa0>
    80003e1c:	0106c783          	lbu	a5,16(a3)
    80003e20:	fc0788e3          	beqz	a5,80003df0 <ppuio_write+0xa0>
    80003e24:	00177797          	auipc	a5,0x177
    80003e28:	eeb786a3          	sb	a1,-275(a5) # 8017ad11 <ppu+0x1>
    80003e2c:	fc5ff06f          	j	80003df0 <ppuio_write+0xa0>
    80003e30:	01813083          	ld	ra,24(sp)
    80003e34:	01013403          	ld	s0,16(sp)
    80003e38:	00177797          	auipc	a5,0x177
    80003e3c:	ecb78da3          	sb	a1,-293(a5) # 8017ad13 <ppu+0x3>
    80003e40:	00813483          	ld	s1,8(sp)
    80003e44:	00013903          	ld	s2,0(sp)
    80003e48:	02010113          	addi	sp,sp,32
    80003e4c:	00008067          	ret
    80003e50:	00177717          	auipc	a4,0x177
    80003e54:	ec374703          	lbu	a4,-317(a4) # 8017ad13 <ppu+0x3>
    80003e58:	0004f797          	auipc	a5,0x4f
    80003e5c:	da078793          	addi	a5,a5,-608 # 80052bf8 <PPU_SPRRAM>
    80003e60:	00e787b3          	add	a5,a5,a4
    80003e64:	00b78023          	sb	a1,0(a5)
    80003e68:	01813083          	ld	ra,24(sp)
    80003e6c:	01013403          	ld	s0,16(sp)
    80003e70:	0017069b          	addiw	a3,a4,1
    80003e74:	00177717          	auipc	a4,0x177
    80003e78:	e8d70fa3          	sb	a3,-353(a4) # 8017ad13 <ppu+0x3>
    80003e7c:	00813483          	ld	s1,8(sp)
    80003e80:	00013903          	ld	s2,0(sp)
    80003e84:	02010113          	addi	sp,sp,32
    80003e88:	00008067          	ret
    80003e8c:	00177797          	auipc	a5,0x177
    80003e90:	e927c783          	lbu	a5,-366(a5) # 8017ad1e <ppu+0xe>
    80003e94:	06078463          	beqz	a5,80003efc <ppuio_write+0x1ac>
    80003e98:	00177717          	auipc	a4,0x177
    80003e9c:	e8b700a3          	sb	a1,-383(a4) # 8017ad19 <ppu+0x9>
    80003ea0:	01813083          	ld	ra,24(sp)
    80003ea4:	01013403          	ld	s0,16(sp)
    80003ea8:	0017c793          	xori	a5,a5,1
    80003eac:	00177717          	auipc	a4,0x177
    80003eb0:	e6f70923          	sb	a5,-398(a4) # 8017ad1e <ppu+0xe>
    80003eb4:	00813483          	ld	s1,8(sp)
    80003eb8:	00013903          	ld	s2,0(sp)
    80003ebc:	02010113          	addi	sp,sp,32
    80003ec0:	00008067          	ret
    80003ec4:	0106c783          	lbu	a5,16(a3)
    80003ec8:	f20784e3          	beqz	a5,80003df0 <ppuio_write+0xa0>
    80003ecc:	00177797          	auipc	a5,0x177
    80003ed0:	e537c783          	lbu	a5,-429(a5) # 8017ad1f <ppu+0xf>
    80003ed4:	02079a63          	bnez	a5,80003f08 <ppuio_write+0x1b8>
    80003ed8:	0015f717          	auipc	a4,0x15f
    80003edc:	e0b70523          	sb	a1,-502(a4) # 80162ce2 <ppu_addr_latch>
    80003ee0:	0017c793          	xori	a5,a5,1
    80003ee4:	00177717          	auipc	a4,0x177
    80003ee8:	e2f70da3          	sb	a5,-453(a4) # 8017ad1f <ppu+0xf>
    80003eec:	00100793          	li	a5,1
    80003ef0:	0015f717          	auipc	a4,0x15f
    80003ef4:	def708a3          	sb	a5,-527(a4) # 80162ce1 <ppu_2007_first_read>
    80003ef8:	ef9ff06f          	j	80003df0 <ppuio_write+0xa0>
    80003efc:	00177717          	auipc	a4,0x177
    80003f00:	e0b70e23          	sb	a1,-484(a4) # 8017ad18 <ppu+0x8>
    80003f04:	f9dff06f          	j	80003ea0 <ppuio_write+0x150>
    80003f08:	0015f717          	auipc	a4,0x15f
    80003f0c:	dda74703          	lbu	a4,-550(a4) # 80162ce2 <ppu_addr_latch>
    80003f10:	0087171b          	slliw	a4,a4,0x8
    80003f14:	00b705bb          	addw	a1,a4,a1
    80003f18:	00177717          	auipc	a4,0x177
    80003f1c:	e0b71123          	sh	a1,-510(a4) # 8017ad1a <ppu+0xa>
    80003f20:	fc1ff06f          	j	80003ee0 <ppuio_write+0x190>
    80003f24:	00040513          	mv	a0,s0
    80003f28:	c00ff0ef          	jal	ra,80003328 <ppu_get_real_ram_address.part.0>
    80003f2c:	0005051b          	sext.w	a0,a0
    80003f30:	eb9ff06f          	j	80003de8 <ppuio_write+0x98>
    80003f34:	00e7f863          	bleu	a4,a5,80003f44 <ppuio_write+0x1f4>
    80003f38:	bf0ff0ef          	jal	ra,80003328 <ppu_get_real_ram_address.part.0>
    80003f3c:	0005079b          	sext.w	a5,a0
    80003f40:	e89ff06f          	j	80003dc8 <ppuio_write+0x78>
    80003f44:	000107b7          	lui	a5,0x10
    80003f48:	fff78793          	addi	a5,a5,-1 # ffff <_entry_offset+0xffff>
    80003f4c:	e7dff06f          	j	80003dc8 <ppuio_write+0x78>

0000000080003f50 <ppu_init>:
    80003f50:	00a007b7          	lui	a5,0xa00
    80003f54:	00177717          	auipc	a4,0x177
    80003f58:	daf72e23          	sw	a5,-580(a4) # 8017ad10 <ppu>
    80003f5c:	00177797          	auipc	a5,0x177
    80003f60:	da07ae23          	sw	zero,-580(a5) # 8017ad18 <ppu+0x8>
    80003f64:	00177797          	auipc	a5,0x177
    80003f68:	da079c23          	sh	zero,-584(a5) # 8017ad1c <ppu+0xc>
    80003f6c:	ff010113          	addi	sp,sp,-16
    80003f70:	00100793          	li	a5,1
    80003f74:	000012b7          	lui	t0,0x1
    80003f78:	00813423          	sd	s0,8(sp)
    80003f7c:	00913023          	sd	s1,0(sp)
    80003f80:	0015f717          	auipc	a4,0x15f
    80003f84:	d6f700a3          	sb	a5,-671(a4) # 80162ce1 <ppu_2007_first_read>
    80003f88:	000cf497          	auipc	s1,0xcf
    80003f8c:	d7048493          	addi	s1,s1,-656 # 800d2cf8 <ppu_l_h_addition_table>
    80003f90:	0004f417          	auipc	s0,0x4f
    80003f94:	d6840413          	addi	s0,s0,-664 # 80052cf8 <ppu_l_h_addition_flip_table>
    80003f98:	00000313          	li	t1,0
    80003f9c:	00700e93          	li	t4,7
    80003fa0:	00800e13          	li	t3,8
    80003fa4:	80028293          	addi	t0,t0,-2048 # 800 <_entry_offset+0x800>
    80003fa8:	10000393          	li	t2,256
    80003fac:	00040f93          	mv	t6,s0
    80003fb0:	00048f13          	mv	t5,s1
    80003fb4:	00000893          	li	a7,0
    80003fb8:	000f8813          	mv	a6,t6
    80003fbc:	000f0513          	mv	a0,t5
    80003fc0:	00000613          	li	a2,0
    80003fc4:	40ce86bb          	subw	a3,t4,a2
    80003fc8:	40c357bb          	sraw	a5,t1,a2
    80003fcc:	40d3573b          	sraw	a4,t1,a3
    80003fd0:	40c8d5bb          	sraw	a1,a7,a2
    80003fd4:	0017171b          	slliw	a4,a4,0x1
    80003fd8:	40d8d6bb          	sraw	a3,a7,a3
    80003fdc:	0017979b          	slliw	a5,a5,0x1
    80003fe0:	00277713          	andi	a4,a4,2
    80003fe4:	0016f693          	andi	a3,a3,1
    80003fe8:	0027f793          	andi	a5,a5,2
    80003fec:	0015f593          	andi	a1,a1,1
    80003ff0:	00d76733          	or	a4,a4,a3
    80003ff4:	00b7e7b3          	or	a5,a5,a1
    80003ff8:	00e50023          	sb	a4,0(a0)
    80003ffc:	00f80023          	sb	a5,0(a6)
    80004000:	0016061b          	addiw	a2,a2,1
    80004004:	00150513          	addi	a0,a0,1
    80004008:	00180813          	addi	a6,a6,1
    8000400c:	fbc61ce3          	bne	a2,t3,80003fc4 <ppu_init+0x74>
    80004010:	0018889b          	addiw	a7,a7,1
    80004014:	005f0f33          	add	t5,t5,t0
    80004018:	005f8fb3          	add	t6,t6,t0
    8000401c:	f8789ee3          	bne	a7,t2,80003fb8 <ppu_init+0x68>
    80004020:	0013031b          	addiw	t1,t1,1
    80004024:	00848493          	addi	s1,s1,8
    80004028:	00840413          	addi	s0,s0,8
    8000402c:	f91310e3          	bne	t1,a7,80003fac <ppu_init+0x5c>
    80004030:	00813403          	ld	s0,8(sp)
    80004034:	00013483          	ld	s1,0(sp)
    80004038:	01010113          	addi	sp,sp,16
    8000403c:	00008067          	ret

0000000080004040 <ppu_sprram_write>:
    80004040:	00177717          	auipc	a4,0x177
    80004044:	cd070713          	addi	a4,a4,-816 # 8017ad10 <ppu>
    80004048:	00374683          	lbu	a3,3(a4)
    8000404c:	0004f797          	auipc	a5,0x4f
    80004050:	bac78793          	addi	a5,a5,-1108 # 80052bf8 <PPU_SPRRAM>
    80004054:	0016861b          	addiw	a2,a3,1
    80004058:	00d787b3          	add	a5,a5,a3
    8000405c:	00c701a3          	sb	a2,3(a4)
    80004060:	00a78023          	sb	a0,0(a5)
    80004064:	00008067          	ret

0000000080004068 <ppu_set_mirroring>:
    80004068:	40000793          	li	a5,1024
    8000406c:	00177717          	auipc	a4,0x177
    80004070:	ca470713          	addi	a4,a4,-860 # 8017ad10 <ppu>
    80004074:	00a797bb          	sllw	a5,a5,a0
    80004078:	00a72a23          	sw	a0,20(a4)
    8000407c:	00f72c23          	sw	a5,24(a4)
    80004080:	00008067          	ret

0000000080004084 <putch>:
    80004084:	00500793          	li	a5,5
    80004088:	01d79793          	slli	a5,a5,0x1d
    8000408c:	3ea78c23          	sb	a0,1016(a5)
    80004090:	00008067          	ret

0000000080004094 <halt>:
    80004094:	00050513          	mv	a0,a0
    80004098:	00100073          	ebreak
    8000409c:	0000006f          	j	8000409c <halt+0x8>

00000000800040a0 <_trm_init>:
    800040a0:	ff010113          	addi	sp,sp,-16
    800040a4:	00001517          	auipc	a0,0x1
    800040a8:	f3450513          	addi	a0,a0,-204 # 80004fd8 <mainargs>
    800040ac:	00113423          	sd	ra,8(sp)
    800040b0:	8a5fe0ef          	jal	ra,80002954 <main>
    800040b4:	00050513          	mv	a0,a0
    800040b8:	00100073          	ebreak
    800040bc:	0000006f          	j	800040bc <_trm_init+0x1c>

00000000800040c0 <__am_timer_config>:
    800040c0:	00100793          	li	a5,1
    800040c4:	00f50023          	sb	a5,0(a0)
    800040c8:	00f500a3          	sb	a5,1(a0)
    800040cc:	00008067          	ret

00000000800040d0 <__am_input_config>:
    800040d0:	00100793          	li	a5,1
    800040d4:	00f50023          	sb	a5,0(a0)
    800040d8:	00008067          	ret

00000000800040dc <__am_uart_config>:
    800040dc:	00050023          	sb	zero,0(a0)
    800040e0:	00008067          	ret

00000000800040e4 <__am_net_config>:
    800040e4:	00050023          	sb	zero,0(a0)
    800040e8:	00008067          	ret

00000000800040ec <fail>:
    800040ec:	ff010113          	addi	sp,sp,-16
    800040f0:	00813023          	sd	s0,0(sp)
    800040f4:	00113423          	sd	ra,8(sp)
    800040f8:	00000417          	auipc	s0,0x0
    800040fc:	5a040413          	addi	s0,s0,1440 # 80004698 <_etext+0x2c>
    80004100:	04100513          	li	a0,65
    80004104:	00140413          	addi	s0,s0,1
    80004108:	f7dff0ef          	jal	ra,80004084 <putch>
    8000410c:	00044503          	lbu	a0,0(s0)
    80004110:	fe051ae3          	bnez	a0,80004104 <fail+0x18>
    80004114:	00001417          	auipc	s0,0x1
    80004118:	dd440413          	addi	s0,s0,-556 # 80004ee8 <MAP+0x420>
    8000411c:	06100513          	li	a0,97
    80004120:	00140413          	addi	s0,s0,1
    80004124:	f61ff0ef          	jal	ra,80004084 <putch>
    80004128:	00044503          	lbu	a0,0(s0)
    8000412c:	fe051ae3          	bnez	a0,80004120 <fail+0x34>
    80004130:	00001417          	auipc	s0,0x1
    80004134:	dd840413          	addi	s0,s0,-552 # 80004f08 <MAP+0x440>
    80004138:	02000513          	li	a0,32
    8000413c:	00140413          	addi	s0,s0,1
    80004140:	f45ff0ef          	jal	ra,80004084 <putch>
    80004144:	00044503          	lbu	a0,0(s0)
    80004148:	fe051ae3          	bnez	a0,8000413c <fail+0x50>
    8000414c:	00100513          	li	a0,1
    80004150:	f45ff0ef          	jal	ra,80004094 <halt>

0000000080004154 <ioe_init>:
    80004154:	ff010113          	addi	sp,sp,-16
    80004158:	00113423          	sd	ra,8(sp)
    8000415c:	0000b797          	auipc	a5,0xb
    80004160:	e9c78793          	addi	a5,a5,-356 # 8000eff8 <lut>
    80004164:	0000b697          	auipc	a3,0xb
    80004168:	29468693          	addi	a3,a3,660 # 8000f3f8 <_bss_start>
    8000416c:	00000617          	auipc	a2,0x0
    80004170:	f8060613          	addi	a2,a2,-128 # 800040ec <fail>
    80004174:	00c0006f          	j	80004180 <ioe_init+0x2c>
    80004178:	00878793          	addi	a5,a5,8
    8000417c:	00d78c63          	beq	a5,a3,80004194 <ioe_init+0x40>
    80004180:	0007b703          	ld	a4,0(a5)
    80004184:	fe071ae3          	bnez	a4,80004178 <ioe_init+0x24>
    80004188:	00c7b023          	sd	a2,0(a5)
    8000418c:	00878793          	addi	a5,a5,8
    80004190:	fed798e3          	bne	a5,a3,80004180 <ioe_init+0x2c>
    80004194:	0e8000ef          	jal	ra,8000427c <__am_gpu_init>
    80004198:	038000ef          	jal	ra,800041d0 <__am_timer_init>
    8000419c:	1a0000ef          	jal	ra,8000433c <__am_audio_init>
    800041a0:	00813083          	ld	ra,8(sp)
    800041a4:	00100513          	li	a0,1
    800041a8:	01010113          	addi	sp,sp,16
    800041ac:	00008067          	ret

00000000800041b0 <ioe_read>:
    800041b0:	00351513          	slli	a0,a0,0x3
    800041b4:	0000b797          	auipc	a5,0xb
    800041b8:	e4478793          	addi	a5,a5,-444 # 8000eff8 <lut>
    800041bc:	00a78533          	add	a0,a5,a0
    800041c0:	00053303          	ld	t1,0(a0)
    800041c4:	00058513          	mv	a0,a1
    800041c8:	00030067          	jr	t1

00000000800041cc <ioe_write>:
    800041cc:	fe5ff06f          	j	800041b0 <ioe_read>

00000000800041d0 <__am_timer_init>:
    800041d0:	00500793          	li	a5,5
    800041d4:	01d79793          	slli	a5,a5,0x1d
    800041d8:	0487a783          	lw	a5,72(a5)
    800041dc:	02079793          	slli	a5,a5,0x20
    800041e0:	0207d793          	srli	a5,a5,0x20
    800041e4:	0015f717          	auipc	a4,0x15f
    800041e8:	b0f73223          	sd	a5,-1276(a4) # 80162ce8 <boot_time>
    800041ec:	00008067          	ret

00000000800041f0 <__am_timer_uptime>:
    800041f0:	00500793          	li	a5,5
    800041f4:	01d79793          	slli	a5,a5,0x1d
    800041f8:	04c7a703          	lw	a4,76(a5)
    800041fc:	0487a783          	lw	a5,72(a5)
    80004200:	0015f697          	auipc	a3,0x15f
    80004204:	ae868693          	addi	a3,a3,-1304 # 80162ce8 <boot_time>
    80004208:	02071713          	slli	a4,a4,0x20
    8000420c:	00e53023          	sd	a4,0(a0)
    80004210:	0006b683          	ld	a3,0(a3)
    80004214:	02079793          	slli	a5,a5,0x20
    80004218:	0207d793          	srli	a5,a5,0x20
    8000421c:	00e7e7b3          	or	a5,a5,a4
    80004220:	40d787b3          	sub	a5,a5,a3
    80004224:	00f53023          	sd	a5,0(a0)
    80004228:	00008067          	ret

000000008000422c <__am_timer_rtc>:
    8000422c:	76c00793          	li	a5,1900
    80004230:	00052a23          	sw	zero,20(a0)
    80004234:	00052823          	sw	zero,16(a0)
    80004238:	00052623          	sw	zero,12(a0)
    8000423c:	00052423          	sw	zero,8(a0)
    80004240:	00052223          	sw	zero,4(a0)
    80004244:	00f52023          	sw	a5,0(a0)
    80004248:	00008067          	ret

000000008000424c <__am_input_keybrd>:
    8000424c:	00500793          	li	a5,5
    80004250:	01d79793          	slli	a5,a5,0x1d
    80004254:	0607d783          	lhu	a5,96(a5)
    80004258:	03079793          	slli	a5,a5,0x30
    8000425c:	0307d793          	srli	a5,a5,0x30
    80004260:	0107971b          	slliw	a4,a5,0x10
    80004264:	0107571b          	srliw	a4,a4,0x10
    80004268:	00f7571b          	srliw	a4,a4,0xf
    8000426c:	0ff7f793          	andi	a5,a5,255
    80004270:	00e50023          	sb	a4,0(a0)
    80004274:	00f52223          	sw	a5,4(a0)
    80004278:	00008067          	ret

000000008000427c <__am_gpu_init>:
    8000427c:	00008067          	ret

0000000080004280 <__am_gpu_config>:
    80004280:	00100793          	li	a5,1
    80004284:	00f50023          	sb	a5,0(a0)
    80004288:	19000793          	li	a5,400
    8000428c:	00f52223          	sw	a5,4(a0)
    80004290:	12c00793          	li	a5,300
    80004294:	000500a3          	sb	zero,1(a0)
    80004298:	00f52423          	sw	a5,8(a0)
    8000429c:	00052623          	sw	zero,12(a0)
    800042a0:	00008067          	ret

00000000800042a4 <__am_gpu_fbdraw>:
    800042a4:	01052803          	lw	a6,16(a0)
    800042a8:	00052883          	lw	a7,0(a0)
    800042ac:	00452783          	lw	a5,4(a0)
    800042b0:	01452583          	lw	a1,20(a0)
    800042b4:	00853303          	ld	t1,8(a0)
    800042b8:	05005e63          	blez	a6,80004314 <__am_gpu_fbdraw+0x70>
    800042bc:	19000e93          	li	t4,400
    800042c0:	02fe8ebb          	mulw	t4,t4,a5
    800042c4:	0008889b          	sext.w	a7,a7
    800042c8:	0a100e13          	li	t3,161
    800042cc:	01180f3b          	addw	t5,a6,a7
    800042d0:	018e1e13          	slli	t3,t3,0x18
    800042d4:	00281813          	slli	a6,a6,0x2
    800042d8:	02b05863          	blez	a1,80004308 <__am_gpu_fbdraw+0x64>
    800042dc:	01d887b3          	add	a5,a7,t4
    800042e0:	00279793          	slli	a5,a5,0x2
    800042e4:	01c787b3          	add	a5,a5,t3
    800042e8:	00030693          	mv	a3,t1
    800042ec:	00000713          	li	a4,0
    800042f0:	0006a603          	lw	a2,0(a3)
    800042f4:	0017071b          	addiw	a4,a4,1
    800042f8:	010686b3          	add	a3,a3,a6
    800042fc:	00c7a023          	sw	a2,0(a5)
    80004300:	64078793          	addi	a5,a5,1600
    80004304:	fee596e3          	bne	a1,a4,800042f0 <__am_gpu_fbdraw+0x4c>
    80004308:	0018889b          	addiw	a7,a7,1
    8000430c:	00430313          	addi	t1,t1,4
    80004310:	fde894e3          	bne	a7,t5,800042d8 <__am_gpu_fbdraw+0x34>
    80004314:	01854783          	lbu	a5,24(a0)
    80004318:	00078a63          	beqz	a5,8000432c <__am_gpu_fbdraw+0x88>
    8000431c:	00500793          	li	a5,5
    80004320:	01d79793          	slli	a5,a5,0x1d
    80004324:	00100713          	li	a4,1
    80004328:	10e7a223          	sw	a4,260(a5)
    8000432c:	00008067          	ret

0000000080004330 <__am_gpu_status>:
    80004330:	00100793          	li	a5,1
    80004334:	00f50023          	sb	a5,0(a0)
    80004338:	00008067          	ret

000000008000433c <__am_audio_init>:
    8000433c:	00008067          	ret

0000000080004340 <__am_audio_config>:
    80004340:	00050023          	sb	zero,0(a0)
    80004344:	00008067          	ret

0000000080004348 <__am_audio_ctrl>:
    80004348:	00008067          	ret

000000008000434c <__am_audio_status>:
    8000434c:	00052023          	sw	zero,0(a0)
    80004350:	00008067          	ret

0000000080004354 <__am_audio_play>:
    80004354:	00008067          	ret

0000000080004358 <__am_disk_config>:
    80004358:	00050023          	sb	zero,0(a0)
    8000435c:	00008067          	ret

0000000080004360 <__am_disk_status>:
    80004360:	00008067          	ret

0000000080004364 <__am_disk_blkio>:
    80004364:	00008067          	ret

0000000080004368 <memcpy>:
    80004368:	00060e63          	beqz	a2,80004384 <memcpy+0x1c>
    8000436c:	00c50633          	add	a2,a0,a2
    80004370:	00158593          	addi	a1,a1,1 # 4001 <_entry_offset+0x4001>
    80004374:	fff5c783          	lbu	a5,-1(a1)
    80004378:	00150513          	addi	a0,a0,1
    8000437c:	fef50fa3          	sb	a5,-1(a0)
    80004380:	fea618e3          	bne	a2,a0,80004370 <memcpy+0x8>
    80004384:	00008067          	ret

0000000080004388 <memcmp>:
    80004388:	06050863          	beqz	a0,800043f8 <memcmp+0x70>
    8000438c:	06058663          	beqz	a1,800043f8 <memcmp+0x70>
    80004390:	06060463          	beqz	a2,800043f8 <memcmp+0x70>
    80004394:	00054783          	lbu	a5,0(a0)
    80004398:	0005c703          	lbu	a4,0(a1)
    8000439c:	02e79663          	bne	a5,a4,800043c8 <memcmp+0x40>
    800043a0:	fff60613          	addi	a2,a2,-1
    800043a4:	00061863          	bnez	a2,800043b4 <memcmp+0x2c>
    800043a8:	0200006f          	j	800043c8 <memcmp+0x40>
    800043ac:	fff60613          	addi	a2,a2,-1
    800043b0:	02060a63          	beqz	a2,800043e4 <memcmp+0x5c>
    800043b4:	00150513          	addi	a0,a0,1
    800043b8:	00158593          	addi	a1,a1,1
    800043bc:	00054783          	lbu	a5,0(a0)
    800043c0:	0005c703          	lbu	a4,0(a1)
    800043c4:	fee784e3          	beq	a5,a4,800043ac <memcmp+0x24>
    800043c8:	40e787bb          	subw	a5,a5,a4
    800043cc:	00100513          	li	a0,1
    800043d0:	00f05463          	blez	a5,800043d8 <memcmp+0x50>
    800043d4:	00008067          	ret
    800043d8:	00f037b3          	snez	a5,a5
    800043dc:	40f0053b          	negw	a0,a5
    800043e0:	00008067          	ret
    800043e4:	00078713          	mv	a4,a5
    800043e8:	40e787bb          	subw	a5,a5,a4
    800043ec:	00100513          	li	a0,1
    800043f0:	fef042e3          	bgtz	a5,800043d4 <memcmp+0x4c>
    800043f4:	fe5ff06f          	j	800043d8 <memcmp+0x50>
    800043f8:	ff010113          	addi	sp,sp,-16
    800043fc:	08200613          	li	a2,130
    80004400:	00001597          	auipc	a1,0x1
    80004404:	b7858593          	addi	a1,a1,-1160 # 80004f78 <MAP+0x4b0>
    80004408:	00000517          	auipc	a0,0x0
    8000440c:	6a050513          	addi	a0,a0,1696 # 80004aa8 <cpu_zn_flag_table+0x288>
    80004410:	00113423          	sd	ra,8(sp)
    80004414:	0e0000ef          	jal	ra,800044f4 <printf>
    80004418:	00100513          	li	a0,1
    8000441c:	c79ff0ef          	jal	ra,80004094 <halt>

0000000080004420 <printint>:
    80004420:	00051463          	bnez	a0,80004428 <printint+0x8>
    80004424:	00008067          	ret
    80004428:	fe010113          	addi	sp,sp,-32
    8000442c:	00913423          	sd	s1,8(sp)
    80004430:	00a00493          	li	s1,10
    80004434:	00813823          	sd	s0,16(sp)
    80004438:	00050413          	mv	s0,a0
    8000443c:	0295453b          	divw	a0,a0,s1
    80004440:	00113c23          	sd	ra,24(sp)
    80004444:	fddff0ef          	jal	ra,80004420 <printint>
    80004448:	0294653b          	remw	a0,s0,s1
    8000444c:	01013403          	ld	s0,16(sp)
    80004450:	01813083          	ld	ra,24(sp)
    80004454:	00813483          	ld	s1,8(sp)
    80004458:	02010113          	addi	sp,sp,32
    8000445c:	0305051b          	addiw	a0,a0,48
    80004460:	0ff57513          	andi	a0,a0,255
    80004464:	c21ff06f          	j	80004084 <putch>

0000000080004468 <printhex>:
    80004468:	fe010113          	addi	sp,sp,-32
    8000446c:	00913423          	sd	s1,8(sp)
    80004470:	00113c23          	sd	ra,24(sp)
    80004474:	00813823          	sd	s0,16(sp)
    80004478:	0005049b          	sext.w	s1,a0
    8000447c:	04048063          	beqz	s1,800044bc <printhex+0x54>
    80004480:	00050413          	mv	s0,a0
    80004484:	0044d51b          	srliw	a0,s1,0x4
    80004488:	0005051b          	sext.w	a0,a0
    8000448c:	00100593          	li	a1,1
    80004490:	fd9ff0ef          	jal	ra,80004468 <printhex>
    80004494:	00f4f493          	andi	s1,s1,15
    80004498:	00900793          	li	a5,9
    8000449c:	00f47513          	andi	a0,s0,15
    800044a0:	0297fe63          	bleu	s1,a5,800044dc <printhex+0x74>
    800044a4:	05750513          	addi	a0,a0,87
    800044a8:	01013403          	ld	s0,16(sp)
    800044ac:	01813083          	ld	ra,24(sp)
    800044b0:	00813483          	ld	s1,8(sp)
    800044b4:	02010113          	addi	sp,sp,32
    800044b8:	bcdff06f          	j	80004084 <putch>
    800044bc:	00100793          	li	a5,1
    800044c0:	03000513          	li	a0,48
    800044c4:	fef592e3          	bne	a1,a5,800044a8 <printhex+0x40>
    800044c8:	01813083          	ld	ra,24(sp)
    800044cc:	01013403          	ld	s0,16(sp)
    800044d0:	00813483          	ld	s1,8(sp)
    800044d4:	02010113          	addi	sp,sp,32
    800044d8:	00008067          	ret
    800044dc:	01013403          	ld	s0,16(sp)
    800044e0:	01813083          	ld	ra,24(sp)
    800044e4:	00813483          	ld	s1,8(sp)
    800044e8:	03050513          	addi	a0,a0,48
    800044ec:	02010113          	addi	sp,sp,32
    800044f0:	b95ff06f          	j	80004084 <putch>

00000000800044f4 <printf>:
    800044f4:	f6010113          	addi	sp,sp,-160
    800044f8:	08f13423          	sd	a5,136(sp)
    800044fc:	06810793          	addi	a5,sp,104
    80004500:	04813823          	sd	s0,80(sp)
    80004504:	05213023          	sd	s2,64(sp)
    80004508:	03313c23          	sd	s3,56(sp)
    8000450c:	03413823          	sd	s4,48(sp)
    80004510:	03513423          	sd	s5,40(sp)
    80004514:	03613023          	sd	s6,32(sp)
    80004518:	01713c23          	sd	s7,24(sp)
    8000451c:	04113c23          	sd	ra,88(sp)
    80004520:	04913423          	sd	s1,72(sp)
    80004524:	00050413          	mv	s0,a0
    80004528:	06b13423          	sd	a1,104(sp)
    8000452c:	06c13823          	sd	a2,112(sp)
    80004530:	06d13c23          	sd	a3,120(sp)
    80004534:	08e13023          	sd	a4,128(sp)
    80004538:	09013823          	sd	a6,144(sp)
    8000453c:	09113c23          	sd	a7,152(sp)
    80004540:	00f13423          	sd	a5,8(sp)
    80004544:	02500913          	li	s2,37
    80004548:	06400993          	li	s3,100
    8000454c:	00a00b93          	li	s7,10
    80004550:	07300a13          	li	s4,115
    80004554:	07800b13          	li	s6,120
    80004558:	06300a93          	li	s5,99
    8000455c:	00044503          	lbu	a0,0(s0)
    80004560:	00050c63          	beqz	a0,80004578 <printf+0x84>
    80004564:	05250263          	beq	a0,s2,800045a8 <printf+0xb4>
    80004568:	b1dff0ef          	jal	ra,80004084 <putch>
    8000456c:	00140413          	addi	s0,s0,1
    80004570:	00044503          	lbu	a0,0(s0)
    80004574:	fe0518e3          	bnez	a0,80004564 <printf+0x70>
    80004578:	05813083          	ld	ra,88(sp)
    8000457c:	05013403          	ld	s0,80(sp)
    80004580:	04813483          	ld	s1,72(sp)
    80004584:	04013903          	ld	s2,64(sp)
    80004588:	03813983          	ld	s3,56(sp)
    8000458c:	03013a03          	ld	s4,48(sp)
    80004590:	02813a83          	ld	s5,40(sp)
    80004594:	02013b03          	ld	s6,32(sp)
    80004598:	01813b83          	ld	s7,24(sp)
    8000459c:	00100513          	li	a0,1
    800045a0:	0a010113          	addi	sp,sp,160
    800045a4:	00008067          	ret
    800045a8:	00144503          	lbu	a0,1(s0)
    800045ac:	00240413          	addi	s0,s0,2
    800045b0:	05350463          	beq	a0,s3,800045f8 <printf+0x104>
    800045b4:	02a9f463          	bleu	a0,s3,800045dc <printf+0xe8>
    800045b8:	07450c63          	beq	a0,s4,80004630 <printf+0x13c>
    800045bc:	07651663          	bne	a0,s6,80004628 <printf+0x134>
    800045c0:	00813783          	ld	a5,8(sp)
    800045c4:	00000593          	li	a1,0
    800045c8:	0007a503          	lw	a0,0(a5)
    800045cc:	00878793          	addi	a5,a5,8
    800045d0:	00f13423          	sd	a5,8(sp)
    800045d4:	e95ff0ef          	jal	ra,80004468 <printhex>
    800045d8:	f85ff06f          	j	8000455c <printf+0x68>
    800045dc:	05551663          	bne	a0,s5,80004628 <printf+0x134>
    800045e0:	00813783          	ld	a5,8(sp)
    800045e4:	0007c503          	lbu	a0,0(a5)
    800045e8:	00878793          	addi	a5,a5,8
    800045ec:	00f13423          	sd	a5,8(sp)
    800045f0:	a95ff0ef          	jal	ra,80004084 <putch>
    800045f4:	f69ff06f          	j	8000455c <printf+0x68>
    800045f8:	00813783          	ld	a5,8(sp)
    800045fc:	0007a483          	lw	s1,0(a5)
    80004600:	00878793          	addi	a5,a5,8
    80004604:	00f13423          	sd	a5,8(sp)
    80004608:	f4048ae3          	beqz	s1,8000455c <printf+0x68>
    8000460c:	0374c53b          	divw	a0,s1,s7
    80004610:	e11ff0ef          	jal	ra,80004420 <printint>
    80004614:	0374e53b          	remw	a0,s1,s7
    80004618:	0305051b          	addiw	a0,a0,48
    8000461c:	0ff57513          	andi	a0,a0,255
    80004620:	a65ff0ef          	jal	ra,80004084 <putch>
    80004624:	f39ff06f          	j	8000455c <printf+0x68>
    80004628:	a5dff0ef          	jal	ra,80004084 <putch>
    8000462c:	f31ff06f          	j	8000455c <printf+0x68>
    80004630:	00813783          	ld	a5,8(sp)
    80004634:	0007b483          	ld	s1,0(a5)
    80004638:	00878793          	addi	a5,a5,8
    8000463c:	00f13423          	sd	a5,8(sp)
    80004640:	0004c503          	lbu	a0,0(s1)
    80004644:	f0050ce3          	beqz	a0,8000455c <printf+0x68>
    80004648:	00148493          	addi	s1,s1,1
    8000464c:	a39ff0ef          	jal	ra,80004084 <putch>
    80004650:	0004c503          	lbu	a0,0(s1)
    80004654:	f00504e3          	beqz	a0,8000455c <printf+0x68>
    80004658:	00148493          	addi	s1,s1,1
    8000465c:	a29ff0ef          	jal	ra,80004084 <putch>
    80004660:	0004c503          	lbu	a0,0(s1)
    80004664:	fe0512e3          	bnez	a0,80004648 <printf+0x154>
    80004668:	ef5ff06f          	j	8000455c <printf+0x68>
