
/home/guodl/Desktop/ysyx_exam/nanos-lite/build/nanos-lite-riscv64-nemu.elf:     file format elf64-littleriscv


Disassembly of section .text:

0000000080000000 <_start>:
    80000000:	00000413          	li	s0,0
    80000004:	01e0f117          	auipc	sp,0x1e0f
    80000008:	ffc10113          	addi	sp,sp,-4 # 81e0f000 <_end>
    8000000c:	431000ef          	jal	ra,80000c3c <_trm_init>

0000000080000010 <do_syscall>:
    80000010:	08853703          	ld	a4,136(a0)
    80000014:	fe010113          	addi	sp,sp,-32
    80000018:	00813823          	sd	s0,16(sp)
    8000001c:	00113c23          	sd	ra,24(sp)
    80000020:	00050413          	mv	s0,a0
    80000024:	01300793          	li	a5,19
    80000028:	05053503          	ld	a0,80(a0)
    8000002c:	05843583          	ld	a1,88(s0)
    80000030:	06043603          	ld	a2,96(s0)
    80000034:	0ee7ee63          	bltu	a5,a4,80000130 <do_syscall+0x120>
    80000038:	00001817          	auipc	a6,0x1
    8000003c:	6d880813          	addi	a6,a6,1752 # 80001710 <_etext+0x80>
    80000040:	00271693          	slli	a3,a4,0x2
    80000044:	010686b3          	add	a3,a3,a6
    80000048:	0006a783          	lw	a5,0(a3)
    8000004c:	010787b3          	add	a5,a5,a6
    80000050:	00078067          	jr	a5
    80000054:	7a9000ef          	jal	ra,80000ffc <yield>
    80000058:	01813083          	ld	ra,24(sp)
    8000005c:	04043823          	sd	zero,80(s0)
    80000060:	01013403          	ld	s0,16(sp)
    80000064:	02010113          	addi	sp,sp,32
    80000068:	00008067          	ret
    8000006c:	30c000ef          	jal	ra,80000378 <fs_open>
    80000070:	01813083          	ld	ra,24(sp)
    80000074:	04a43823          	sd	a0,80(s0)
    80000078:	01013403          	ld	s0,16(sp)
    8000007c:	02010113          	addi	sp,sp,32
    80000080:	00008067          	ret
    80000084:	0005051b          	sext.w	a0,a0
    80000088:	37c000ef          	jal	ra,80000404 <fs_read>
    8000008c:	01813083          	ld	ra,24(sp)
    80000090:	04a43823          	sd	a0,80(s0)
    80000094:	01013403          	ld	s0,16(sp)
    80000098:	02010113          	addi	sp,sp,32
    8000009c:	00008067          	ret
    800000a0:	0005051b          	sext.w	a0,a0
    800000a4:	43c000ef          	jal	ra,800004e0 <fs_write>
    800000a8:	01813083          	ld	ra,24(sp)
    800000ac:	04a43823          	sd	a0,80(s0)
    800000b0:	01013403          	ld	s0,16(sp)
    800000b4:	02010113          	addi	sp,sp,32
    800000b8:	00008067          	ret
    800000bc:	0005051b          	sext.w	a0,a0
    800000c0:	5e8000ef          	jal	ra,800006a8 <fs_close>
    800000c4:	01813083          	ld	ra,24(sp)
    800000c8:	04a43823          	sd	a0,80(s0)
    800000cc:	01013403          	ld	s0,16(sp)
    800000d0:	02010113          	addi	sp,sp,32
    800000d4:	00008067          	ret
    800000d8:	0006061b          	sext.w	a2,a2
    800000dc:	0005051b          	sext.w	a0,a0
    800000e0:	508000ef          	jal	ra,800005e8 <fs_lseek>
    800000e4:	01813083          	ld	ra,24(sp)
    800000e8:	04a43823          	sd	a0,80(s0)
    800000ec:	01013403          	ld	s0,16(sp)
    800000f0:	02010113          	addi	sp,sp,32
    800000f4:	00008067          	ret
    800000f8:	01813083          	ld	ra,24(sp)
    800000fc:	04043823          	sd	zero,80(s0)
    80000100:	01013403          	ld	s0,16(sp)
    80000104:	02010113          	addi	sp,sp,32
    80000108:	00008067          	ret
    8000010c:	00810593          	addi	a1,sp,8
    80000110:	00600513          	li	a0,6
    80000114:	439000ef          	jal	ra,80000d4c <ioe_read>
    80000118:	00813783          	ld	a5,8(sp)
    8000011c:	01813083          	ld	ra,24(sp)
    80000120:	04f43823          	sd	a5,80(s0)
    80000124:	01013403          	ld	s0,16(sp)
    80000128:	02010113          	addi	sp,sp,32
    8000012c:	00008067          	ret
    80000130:	00001697          	auipc	a3,0x1
    80000134:	63068693          	addi	a3,a3,1584 # 80001760 <__func__.1492>
    80000138:	02700613          	li	a2,39
    8000013c:	00001597          	auipc	a1,0x1
    80000140:	55458593          	addi	a1,a1,1364 # 80001690 <_etext>
    80000144:	00001517          	auipc	a0,0x1
    80000148:	58450513          	addi	a0,a0,1412 # 800016c8 <_etext+0x38>
    8000014c:	220010ef          	jal	ra,8000136c <printf>
    80000150:	00100513          	li	a0,1
    80000154:	2dd000ef          	jal	ra,80000c30 <halt>
    80000158:	0005051b          	sext.w	a0,a0
    8000015c:	2d5000ef          	jal	ra,80000c30 <halt>

0000000080000160 <init_proc>:
    80000160:	ff010113          	addi	sp,sp,-16
    80000164:	00001597          	auipc	a1,0x1
    80000168:	60c58593          	addi	a1,a1,1548 # 80001770 <__func__.1492+0x10>
    8000016c:	01dfe797          	auipc	a5,0x1dfe
    80000170:	e9478793          	addi	a5,a5,-364 # 81dfe000 <pcb_boot>
    80000174:	00001697          	auipc	a3,0x1
    80000178:	6d468693          	addi	a3,a3,1748 # 80001848 <__func__.1481>
    8000017c:	01900613          	li	a2,25
    80000180:	00001517          	auipc	a0,0x1
    80000184:	68050513          	addi	a0,a0,1664 # 80001800 <__func__.1492+0xa0>
    80000188:	00113423          	sd	ra,8(sp)
    8000018c:	01e06717          	auipc	a4,0x1e06
    80000190:	e6f73a23          	sd	a5,-396(a4) # 81e06000 <current>
    80000194:	1d8010ef          	jal	ra,8000136c <printf>
    80000198:	00813083          	ld	ra,8(sp)
    8000019c:	00001597          	auipc	a1,0x1
    800001a0:	69c58593          	addi	a1,a1,1692 # 80001838 <__func__.1492+0xd8>
    800001a4:	00000513          	li	a0,0
    800001a8:	01010113          	addi	sp,sp,16
    800001ac:	7e00006f          	j	8000098c <naive_uload>

00000000800001b0 <main>:
    800001b0:	ff010113          	addi	sp,sp,-16
    800001b4:	00001597          	auipc	a1,0x1
    800001b8:	69e58593          	addi	a1,a1,1694 # 80001852 <logo>
    800001bc:	00002517          	auipc	a0,0x2
    800001c0:	c1450513          	addi	a0,a0,-1004 # 80001dd0 <logo+0x57e>
    800001c4:	00113423          	sd	ra,8(sp)
    800001c8:	00813023          	sd	s0,0(sp)
    800001cc:	1a0010ef          	jal	ra,8000136c <printf>
    800001d0:	00003417          	auipc	s0,0x3
    800001d4:	e0840413          	addi	s0,s0,-504 # 80002fd8 <__func__.1445>
    800001d8:	00040693          	mv	a3,s0
    800001dc:	00d00613          	li	a2,13
    800001e0:	00002597          	auipc	a1,0x2
    800001e4:	bf858593          	addi	a1,a1,-1032 # 80001dd8 <logo+0x586>
    800001e8:	00002517          	auipc	a0,0x2
    800001ec:	c2850513          	addi	a0,a0,-984 # 80001e10 <logo+0x5be>
    800001f0:	17c010ef          	jal	ra,8000136c <printf>
    800001f4:	00002797          	auipc	a5,0x2
    800001f8:	c5478793          	addi	a5,a5,-940 # 80001e48 <logo+0x5f6>
    800001fc:	00002717          	auipc	a4,0x2
    80000200:	c5c70713          	addi	a4,a4,-932 # 80001e58 <logo+0x606>
    80000204:	00e00613          	li	a2,14
    80000208:	00002597          	auipc	a1,0x2
    8000020c:	bd058593          	addi	a1,a1,-1072 # 80001dd8 <logo+0x586>
    80000210:	00040693          	mv	a3,s0
    80000214:	00002517          	auipc	a0,0x2
    80000218:	c5450513          	addi	a0,a0,-940 # 80001e68 <logo+0x616>
    8000021c:	150010ef          	jal	ra,8000136c <printf>
    80000220:	66c000ef          	jal	ra,8000088c <init_mm>
    80000224:	634000ef          	jal	ra,80000858 <init_device>
    80000228:	1c5000ef          	jal	ra,80000bec <init_ramdisk>
    8000022c:	724000ef          	jal	ra,80000950 <init_irq>
    80000230:	0ac000ef          	jal	ra,800002dc <init_fs>
    80000234:	f2dff0ef          	jal	ra,80000160 <init_proc>
    80000238:	00040693          	mv	a3,s0
    8000023c:	01e00613          	li	a2,30
    80000240:	00002597          	auipc	a1,0x2
    80000244:	b9858593          	addi	a1,a1,-1128 # 80001dd8 <logo+0x586>
    80000248:	00002517          	auipc	a0,0x2
    8000024c:	c5050513          	addi	a0,a0,-944 # 80001e98 <logo+0x646>
    80000250:	11c010ef          	jal	ra,8000136c <printf>
    80000254:	5a9000ef          	jal	ra,80000ffc <yield>
    80000258:	00040693          	mv	a3,s0
    8000025c:	02400613          	li	a2,36
    80000260:	00002597          	auipc	a1,0x2
    80000264:	b7858593          	addi	a1,a1,-1160 # 80001dd8 <logo+0x586>
    80000268:	00002517          	auipc	a0,0x2
    8000026c:	c6050513          	addi	a0,a0,-928 # 80001ec8 <logo+0x676>
    80000270:	0fc010ef          	jal	ra,8000136c <printf>
    80000274:	00100513          	li	a0,1
    80000278:	1b9000ef          	jal	ra,80000c30 <halt>

000000008000027c <invalid_read>:
    8000027c:	ff010113          	addi	sp,sp,-16
    80000280:	00002697          	auipc	a3,0x2
    80000284:	5c068693          	addi	a3,a3,1472 # 80002840 <__func__.1516>
    80000288:	01a00613          	li	a2,26
    8000028c:	00002597          	auipc	a1,0x2
    80000290:	c8458593          	addi	a1,a1,-892 # 80001f10 <logo+0x6be>
    80000294:	00002517          	auipc	a0,0x2
    80000298:	cb450513          	addi	a0,a0,-844 # 80001f48 <logo+0x6f6>
    8000029c:	00113423          	sd	ra,8(sp)
    800002a0:	0cc010ef          	jal	ra,8000136c <printf>
    800002a4:	00100513          	li	a0,1
    800002a8:	189000ef          	jal	ra,80000c30 <halt>

00000000800002ac <invalid_write>:
    800002ac:	ff010113          	addi	sp,sp,-16
    800002b0:	00002697          	auipc	a3,0x2
    800002b4:	5a068693          	addi	a3,a3,1440 # 80002850 <__func__.1522>
    800002b8:	01f00613          	li	a2,31
    800002bc:	00002597          	auipc	a1,0x2
    800002c0:	c5458593          	addi	a1,a1,-940 # 80001f10 <logo+0x6be>
    800002c4:	00002517          	auipc	a0,0x2
    800002c8:	ccc50513          	addi	a0,a0,-820 # 80001f90 <logo+0x73e>
    800002cc:	00113423          	sd	ra,8(sp)
    800002d0:	09c010ef          	jal	ra,8000136c <printf>
    800002d4:	00100513          	li	a0,1
    800002d8:	159000ef          	jal	ra,80000c30 <halt>

00000000800002dc <init_fs>:
    800002dc:	fd010113          	addi	sp,sp,-48
    800002e0:	00010593          	mv	a1,sp
    800002e4:	00900513          	li	a0,9
    800002e8:	02813023          	sd	s0,32(sp)
    800002ec:	00913c23          	sd	s1,24(sp)
    800002f0:	01213823          	sd	s2,16(sp)
    800002f4:	02113423          	sd	ra,40(sp)
    800002f8:	01dfb497          	auipc	s1,0x1dfb
    800002fc:	50048493          	addi	s1,s1,1280 # 81dfb7f8 <file_table>
    80000300:	24d000ef          	jal	ra,80000d4c <ioe_read>
    80000304:	0904b503          	ld	a0,144(s1)
    80000308:	00002597          	auipc	a1,0x2
    8000030c:	cd058593          	addi	a1,a1,-816 # 80001fd8 <logo+0x786>
    80000310:	00412403          	lw	s0,4(sp)
    80000314:	00812903          	lw	s2,8(sp)
    80000318:	655000ef          	jal	ra,8000116c <strcmp>
    8000031c:	02051663          	bnez	a0,80000348 <init_fs+0x6c>
    80000320:	0324043b          	mulw	s0,s0,s2
    80000324:	02813083          	ld	ra,40(sp)
    80000328:	01013903          	ld	s2,16(sp)
    8000032c:	0024141b          	slliw	s0,s0,0x2
    80000330:	01040413          	addi	s0,s0,16
    80000334:	0884bc23          	sd	s0,152(s1)
    80000338:	02013403          	ld	s0,32(sp)
    8000033c:	01813483          	ld	s1,24(sp)
    80000340:	03010113          	addi	sp,sp,48
    80000344:	00008067          	ret
    80000348:	00002717          	auipc	a4,0x2
    8000034c:	c9870713          	addi	a4,a4,-872 # 80001fe0 <logo+0x78e>
    80000350:	00003697          	auipc	a3,0x3
    80000354:	c9868693          	addi	a3,a3,-872 # 80002fe8 <__func__.1529>
    80000358:	03700613          	li	a2,55
    8000035c:	00002597          	auipc	a1,0x2
    80000360:	bb458593          	addi	a1,a1,-1100 # 80001f10 <logo+0x6be>
    80000364:	00002517          	auipc	a0,0x2
    80000368:	cac50513          	addi	a0,a0,-852 # 80002010 <logo+0x7be>
    8000036c:	000010ef          	jal	ra,8000136c <printf>
    80000370:	00100513          	li	a0,1
    80000374:	0bd000ef          	jal	ra,80000c30 <halt>

0000000080000378 <fs_open>:
    80000378:	fd010113          	addi	sp,sp,-48
    8000037c:	01213823          	sd	s2,16(sp)
    80000380:	01313423          	sd	s3,8(sp)
    80000384:	00050593          	mv	a1,a0
    80000388:	00050913          	mv	s2,a0
    8000038c:	01dfb997          	auipc	s3,0x1dfb
    80000390:	46c98993          	addi	s3,s3,1132 # 81dfb7f8 <file_table>
    80000394:	00002517          	auipc	a0,0x2
    80000398:	cc450513          	addi	a0,a0,-828 # 80002058 <logo+0x806>
    8000039c:	02813023          	sd	s0,32(sp)
    800003a0:	00913c23          	sd	s1,24(sp)
    800003a4:	02113423          	sd	ra,40(sp)
    800003a8:	00098413          	mv	s0,s3
    800003ac:	7c1000ef          	jal	ra,8000136c <printf>
    800003b0:	00000493          	li	s1,0
    800003b4:	0080006f          	j	800003bc <fs_open+0x44>
    800003b8:	0014849b          	addiw	s1,s1,1
    800003bc:	00043503          	ld	a0,0(s0)
    800003c0:	00090593          	mv	a1,s2
    800003c4:	03040413          	addi	s0,s0,48
    800003c8:	5a5000ef          	jal	ra,8000116c <strcmp>
    800003cc:	fe0516e3          	bnez	a0,800003b8 <fs_open+0x40>
    800003d0:	00149793          	slli	a5,s1,0x1
    800003d4:	009787b3          	add	a5,a5,s1
    800003d8:	02813083          	ld	ra,40(sp)
    800003dc:	02013403          	ld	s0,32(sp)
    800003e0:	00479793          	slli	a5,a5,0x4
    800003e4:	00f987b3          	add	a5,s3,a5
    800003e8:	0207b423          	sd	zero,40(a5)
    800003ec:	01013903          	ld	s2,16(sp)
    800003f0:	00813983          	ld	s3,8(sp)
    800003f4:	00048513          	mv	a0,s1
    800003f8:	01813483          	ld	s1,24(sp)
    800003fc:	03010113          	addi	sp,sp,48
    80000400:	00008067          	ret

0000000080000404 <fs_read>:
    80000404:	00050793          	mv	a5,a0
    80000408:	00500713          	li	a4,5
    8000040c:	00058513          	mv	a0,a1
    80000410:	0af75663          	bge	a4,a5,800004bc <fs_read+0xb8>
    80000414:	fe010113          	addi	sp,sp,-32
    80000418:	00813823          	sd	s0,16(sp)
    8000041c:	00179413          	slli	s0,a5,0x1
    80000420:	00f407b3          	add	a5,s0,a5
    80000424:	00479793          	slli	a5,a5,0x4
    80000428:	01dfb417          	auipc	s0,0x1dfb
    8000042c:	3d040413          	addi	s0,s0,976 # 81dfb7f8 <file_table>
    80000430:	00f40433          	add	s0,s0,a5
    80000434:	02843583          	ld	a1,40(s0)
    80000438:	01213023          	sd	s2,0(sp)
    8000043c:	00843903          	ld	s2,8(s0)
    80000440:	01043783          	ld	a5,16(s0)
    80000444:	00913423          	sd	s1,8(sp)
    80000448:	40b90933          	sub	s2,s2,a1
    8000044c:	00113c23          	sd	ra,24(sp)
    80000450:	00060493          	mv	s1,a2
    80000454:	00f585b3          	add	a1,a1,a5
    80000458:	02c96a63          	bltu	s2,a2,8000048c <fs_read+0x88>
    8000045c:	698000ef          	jal	ra,80000af4 <ramdisk_read>
    80000460:	02843603          	ld	a2,40(s0)
    80000464:	00048913          	mv	s2,s1
    80000468:	01813083          	ld	ra,24(sp)
    8000046c:	009604b3          	add	s1,a2,s1
    80000470:	02943423          	sd	s1,40(s0)
    80000474:	01013403          	ld	s0,16(sp)
    80000478:	00813483          	ld	s1,8(sp)
    8000047c:	00090513          	mv	a0,s2
    80000480:	00013903          	ld	s2,0(sp)
    80000484:	02010113          	addi	sp,sp,32
    80000488:	00008067          	ret
    8000048c:	00090613          	mv	a2,s2
    80000490:	664000ef          	jal	ra,80000af4 <ramdisk_read>
    80000494:	02843783          	ld	a5,40(s0)
    80000498:	01813083          	ld	ra,24(sp)
    8000049c:	00813483          	ld	s1,8(sp)
    800004a0:	012787b3          	add	a5,a5,s2
    800004a4:	02f43423          	sd	a5,40(s0)
    800004a8:	01013403          	ld	s0,16(sp)
    800004ac:	00090513          	mv	a0,s2
    800004b0:	00013903          	ld	s2,0(sp)
    800004b4:	02010113          	addi	sp,sp,32
    800004b8:	00008067          	ret
    800004bc:	00179713          	slli	a4,a5,0x1
    800004c0:	00f707b3          	add	a5,a4,a5
    800004c4:	00479793          	slli	a5,a5,0x4
    800004c8:	01dfb717          	auipc	a4,0x1dfb
    800004cc:	33070713          	addi	a4,a4,816 # 81dfb7f8 <file_table>
    800004d0:	00f707b3          	add	a5,a4,a5
    800004d4:	0187b303          	ld	t1,24(a5)
    800004d8:	00000593          	li	a1,0
    800004dc:	00030067          	jr	t1

00000000800004e0 <fs_write>:
    800004e0:	00050793          	mv	a5,a0
    800004e4:	00500713          	li	a4,5
    800004e8:	00058513          	mv	a0,a1
    800004ec:	0af75863          	bge	a4,a5,8000059c <fs_write+0xbc>
    800004f0:	fe010113          	addi	sp,sp,-32
    800004f4:	00813823          	sd	s0,16(sp)
    800004f8:	00179413          	slli	s0,a5,0x1
    800004fc:	00f407b3          	add	a5,s0,a5
    80000500:	00479793          	slli	a5,a5,0x4
    80000504:	01dfb417          	auipc	s0,0x1dfb
    80000508:	2f440413          	addi	s0,s0,756 # 81dfb7f8 <file_table>
    8000050c:	00f40433          	add	s0,s0,a5
    80000510:	00843783          	ld	a5,8(s0)
    80000514:	02843583          	ld	a1,40(s0)
    80000518:	00913423          	sd	s1,8(sp)
    8000051c:	01213023          	sd	s2,0(sp)
    80000520:	00113c23          	sd	ra,24(sp)
    80000524:	00060493          	mv	s1,a2
    80000528:	40b78933          	sub	s2,a5,a1
    8000052c:	08c7ea63          	bltu	a5,a2,800005c0 <fs_write+0xe0>
    80000530:	01043783          	ld	a5,16(s0)
    80000534:	00f585b3          	add	a1,a1,a5
    80000538:	02c96a63          	bltu	s2,a2,8000056c <fs_write+0x8c>
    8000053c:	630000ef          	jal	ra,80000b6c <ramdisk_write>
    80000540:	02843603          	ld	a2,40(s0)
    80000544:	00048913          	mv	s2,s1
    80000548:	01813083          	ld	ra,24(sp)
    8000054c:	009604b3          	add	s1,a2,s1
    80000550:	02943423          	sd	s1,40(s0)
    80000554:	01013403          	ld	s0,16(sp)
    80000558:	00813483          	ld	s1,8(sp)
    8000055c:	00090513          	mv	a0,s2
    80000560:	00013903          	ld	s2,0(sp)
    80000564:	02010113          	addi	sp,sp,32
    80000568:	00008067          	ret
    8000056c:	00090613          	mv	a2,s2
    80000570:	5fc000ef          	jal	ra,80000b6c <ramdisk_write>
    80000574:	02843783          	ld	a5,40(s0)
    80000578:	01813083          	ld	ra,24(sp)
    8000057c:	00813483          	ld	s1,8(sp)
    80000580:	012787b3          	add	a5,a5,s2
    80000584:	02f43423          	sd	a5,40(s0)
    80000588:	01013403          	ld	s0,16(sp)
    8000058c:	00090513          	mv	a0,s2
    80000590:	00013903          	ld	s2,0(sp)
    80000594:	02010113          	addi	sp,sp,32
    80000598:	00008067          	ret
    8000059c:	00179713          	slli	a4,a5,0x1
    800005a0:	00f707b3          	add	a5,a4,a5
    800005a4:	00479793          	slli	a5,a5,0x4
    800005a8:	01dfb717          	auipc	a4,0x1dfb
    800005ac:	25070713          	addi	a4,a4,592 # 81dfb7f8 <file_table>
    800005b0:	00f707b3          	add	a5,a4,a5
    800005b4:	0207b303          	ld	t1,32(a5)
    800005b8:	00000593          	li	a1,0
    800005bc:	00030067          	jr	t1
    800005c0:	00002697          	auipc	a3,0x2
    800005c4:	2a068693          	addi	a3,a3,672 # 80002860 <__func__.1550>
    800005c8:	06e00613          	li	a2,110
    800005cc:	00002597          	auipc	a1,0x2
    800005d0:	94458593          	addi	a1,a1,-1724 # 80001f10 <logo+0x6be>
    800005d4:	00002517          	auipc	a0,0x2
    800005d8:	a9450513          	addi	a0,a0,-1388 # 80002068 <logo+0x816>
    800005dc:	591000ef          	jal	ra,8000136c <printf>
    800005e0:	00100513          	li	a0,1
    800005e4:	64c000ef          	jal	ra,80000c30 <halt>

00000000800005e8 <fs_lseek>:
    800005e8:	02061463          	bnez	a2,80000610 <fs_lseek+0x28>
    800005ec:	00151793          	slli	a5,a0,0x1
    800005f0:	00a78533          	add	a0,a5,a0
    800005f4:	00451513          	slli	a0,a0,0x4
    800005f8:	01dfb797          	auipc	a5,0x1dfb
    800005fc:	20078793          	addi	a5,a5,512 # 81dfb7f8 <file_table>
    80000600:	00a78533          	add	a0,a5,a0
    80000604:	02b53423          	sd	a1,40(a0)
    80000608:	00058513          	mv	a0,a1
    8000060c:	00008067          	ret
    80000610:	00100793          	li	a5,1
    80000614:	02f60a63          	beq	a2,a5,80000648 <fs_lseek+0x60>
    80000618:	00200793          	li	a5,2
    8000061c:	04f61a63          	bne	a2,a5,80000670 <fs_lseek+0x88>
    80000620:	00151793          	slli	a5,a0,0x1
    80000624:	00a78533          	add	a0,a5,a0
    80000628:	00451513          	slli	a0,a0,0x4
    8000062c:	01dfb797          	auipc	a5,0x1dfb
    80000630:	1cc78793          	addi	a5,a5,460 # 81dfb7f8 <file_table>
    80000634:	00a787b3          	add	a5,a5,a0
    80000638:	0087b503          	ld	a0,8(a5)
    8000063c:	00a58533          	add	a0,a1,a0
    80000640:	02a7b423          	sd	a0,40(a5)
    80000644:	00008067          	ret
    80000648:	00151793          	slli	a5,a0,0x1
    8000064c:	00a78533          	add	a0,a5,a0
    80000650:	00451513          	slli	a0,a0,0x4
    80000654:	01dfb797          	auipc	a5,0x1dfb
    80000658:	1a478793          	addi	a5,a5,420 # 81dfb7f8 <file_table>
    8000065c:	00a787b3          	add	a5,a5,a0
    80000660:	0287b503          	ld	a0,40(a5)
    80000664:	00a58533          	add	a0,a1,a0
    80000668:	02a7b423          	sd	a0,40(a5)
    8000066c:	00008067          	ret
    80000670:	ff010113          	addi	sp,sp,-16
    80000674:	00002717          	auipc	a4,0x2
    80000678:	a3470713          	addi	a4,a4,-1484 # 800020a8 <logo+0x856>
    8000067c:	00002697          	auipc	a3,0x2
    80000680:	1f468693          	addi	a3,a3,500 # 80002870 <__func__.1556>
    80000684:	08600613          	li	a2,134
    80000688:	00002597          	auipc	a1,0x2
    8000068c:	88858593          	addi	a1,a1,-1912 # 80001f10 <logo+0x6be>
    80000690:	00002517          	auipc	a0,0x2
    80000694:	98050513          	addi	a0,a0,-1664 # 80002010 <logo+0x7be>
    80000698:	00113423          	sd	ra,8(sp)
    8000069c:	4d1000ef          	jal	ra,8000136c <printf>
    800006a0:	00100513          	li	a0,1
    800006a4:	58c000ef          	jal	ra,80000c30 <halt>

00000000800006a8 <fs_close>:
    800006a8:	00151793          	slli	a5,a0,0x1
    800006ac:	00a787b3          	add	a5,a5,a0
    800006b0:	00479793          	slli	a5,a5,0x4
    800006b4:	01dfb517          	auipc	a0,0x1dfb
    800006b8:	14450513          	addi	a0,a0,324 # 81dfb7f8 <file_table>
    800006bc:	00f507b3          	add	a5,a0,a5
    800006c0:	0207b423          	sd	zero,40(a5)
    800006c4:	00000513          	li	a0,0
    800006c8:	00008067          	ret

00000000800006cc <serial_write>:
    800006cc:	fe010113          	addi	sp,sp,-32
    800006d0:	00113c23          	sd	ra,24(sp)
    800006d4:	00813823          	sd	s0,16(sp)
    800006d8:	00913423          	sd	s1,8(sp)
    800006dc:	01213023          	sd	s2,0(sp)
    800006e0:	04060463          	beqz	a2,80000728 <serial_write+0x5c>
    800006e4:	00060493          	mv	s1,a2
    800006e8:	00050913          	mv	s2,a0
    800006ec:	00000413          	li	s0,0
    800006f0:	0100006f          	j	80000700 <serial_write+0x34>
    800006f4:	00140413          	addi	s0,s0,1
    800006f8:	528000ef          	jal	ra,80000c20 <putch>
    800006fc:	00848863          	beq	s1,s0,8000070c <serial_write+0x40>
    80000700:	008907b3          	add	a5,s2,s0
    80000704:	0007c503          	lbu	a0,0(a5)
    80000708:	fe0516e3          	bnez	a0,800006f4 <serial_write+0x28>
    8000070c:	01813083          	ld	ra,24(sp)
    80000710:	00040513          	mv	a0,s0
    80000714:	01013403          	ld	s0,16(sp)
    80000718:	00813483          	ld	s1,8(sp)
    8000071c:	00013903          	ld	s2,0(sp)
    80000720:	02010113          	addi	sp,sp,32
    80000724:	00008067          	ret
    80000728:	00000413          	li	s0,0
    8000072c:	fe1ff06f          	j	8000070c <serial_write+0x40>

0000000080000730 <events_read>:
    80000730:	fe010113          	addi	sp,sp,-32
    80000734:	00813823          	sd	s0,16(sp)
    80000738:	00810593          	addi	a1,sp,8
    8000073c:	00050413          	mv	s0,a0
    80000740:	00800513          	li	a0,8
    80000744:	00113c23          	sd	ra,24(sp)
    80000748:	604000ef          	jal	ra,80000d4c <ioe_read>
    8000074c:	00c12783          	lw	a5,12(sp)
    80000750:	00814683          	lbu	a3,8(sp)
    80000754:	00000513          	li	a0,0
    80000758:	02078663          	beqz	a5,80000784 <events_read+0x54>
    8000075c:	00379793          	slli	a5,a5,0x3
    80000760:	01dfc717          	auipc	a4,0x1dfc
    80000764:	e1870713          	addi	a4,a4,-488 # 81dfc578 <keyname>
    80000768:	00f707b3          	add	a5,a4,a5
    8000076c:	0007b603          	ld	a2,0(a5)
    80000770:	02068263          	beqz	a3,80000794 <events_read+0x64>
    80000774:	00002597          	auipc	a1,0x2
    80000778:	10c58593          	addi	a1,a1,268 # 80002880 <__func__.1556+0x10>
    8000077c:	00040513          	mv	a0,s0
    80000780:	565000ef          	jal	ra,800014e4 <sprintf>
    80000784:	01813083          	ld	ra,24(sp)
    80000788:	01013403          	ld	s0,16(sp)
    8000078c:	02010113          	addi	sp,sp,32
    80000790:	00008067          	ret
    80000794:	00040513          	mv	a0,s0
    80000798:	00002597          	auipc	a1,0x2
    8000079c:	0f058593          	addi	a1,a1,240 # 80002888 <__func__.1556+0x18>
    800007a0:	545000ef          	jal	ra,800014e4 <sprintf>
    800007a4:	01813083          	ld	ra,24(sp)
    800007a8:	01013403          	ld	s0,16(sp)
    800007ac:	02010113          	addi	sp,sp,32
    800007b0:	00008067          	ret

00000000800007b4 <dispinfo_read>:
    800007b4:	fd010113          	addi	sp,sp,-48
    800007b8:	02813023          	sd	s0,32(sp)
    800007bc:	01010593          	addi	a1,sp,16
    800007c0:	00050413          	mv	s0,a0
    800007c4:	00900513          	li	a0,9
    800007c8:	02113423          	sd	ra,40(sp)
    800007cc:	580000ef          	jal	ra,80000d4c <ioe_read>
    800007d0:	01412703          	lw	a4,20(sp)
    800007d4:	01812783          	lw	a5,24(sp)
    800007d8:	00c10593          	addi	a1,sp,12
    800007dc:	00400613          	li	a2,4
    800007e0:	00040513          	mv	a0,s0
    800007e4:	00e12623          	sw	a4,12(sp)
    800007e8:	00f12823          	sw	a5,16(sp)
    800007ec:	1c5000ef          	jal	ra,800011b0 <memcpy>
    800007f0:	01010593          	addi	a1,sp,16
    800007f4:	00440513          	addi	a0,s0,4
    800007f8:	00400613          	li	a2,4
    800007fc:	1b5000ef          	jal	ra,800011b0 <memcpy>
    80000800:	02813083          	ld	ra,40(sp)
    80000804:	02013403          	ld	s0,32(sp)
    80000808:	00800513          	li	a0,8
    8000080c:	03010113          	addi	sp,sp,48
    80000810:	00008067          	ret

0000000080000814 <fb_write>:
    80000814:	01053783          	ld	a5,16(a0)
    80000818:	00853703          	ld	a4,8(a0)
    8000081c:	00053683          	ld	a3,0(a0)
    80000820:	fd010113          	addi	sp,sp,-48
    80000824:	00f13823          	sd	a5,16(sp)
    80000828:	00b00513          	li	a0,11
    8000082c:	00010593          	mv	a1,sp
    80000830:	00100793          	li	a5,1
    80000834:	02113423          	sd	ra,40(sp)
    80000838:	00d13023          	sd	a3,0(sp)
    8000083c:	00e13423          	sd	a4,8(sp)
    80000840:	00f10c23          	sb	a5,24(sp)
    80000844:	524000ef          	jal	ra,80000d68 <ioe_write>
    80000848:	02813083          	ld	ra,40(sp)
    8000084c:	00000513          	li	a0,0
    80000850:	03010113          	addi	sp,sp,48
    80000854:	00008067          	ret

0000000080000858 <init_device>:
    80000858:	ff010113          	addi	sp,sp,-16
    8000085c:	00002697          	auipc	a3,0x2
    80000860:	35c68693          	addi	a3,a3,860 # 80002bb8 <__func__.1477>
    80000864:	04700613          	li	a2,71
    80000868:	00002597          	auipc	a1,0x2
    8000086c:	02858593          	addi	a1,a1,40 # 80002890 <__func__.1556+0x20>
    80000870:	00002517          	auipc	a0,0x2
    80000874:	05850513          	addi	a0,a0,88 # 800028c8 <__func__.1556+0x58>
    80000878:	00113423          	sd	ra,8(sp)
    8000087c:	2f1000ef          	jal	ra,8000136c <printf>
    80000880:	00813083          	ld	ra,8(sp)
    80000884:	01010113          	addi	sp,sp,16
    80000888:	4680006f          	j	80000cf0 <ioe_init>

000000008000088c <init_mm>:
    8000088c:	00001737          	lui	a4,0x1
    80000890:	fff70713          	addi	a4,a4,-1 # fff <_entry_offset+0xfff>
    80000894:	01dfc797          	auipc	a5,0x1dfc
    80000898:	4e47b783          	ld	a5,1252(a5) # 81dfcd78 <heap>
    8000089c:	00e787b3          	add	a5,a5,a4
    800008a0:	fffff737          	lui	a4,0xfffff
    800008a4:	00e7f733          	and	a4,a5,a4
    800008a8:	00002697          	auipc	a3,0x2
    800008ac:	73868693          	addi	a3,a3,1848 # 80002fe0 <__func__.1445>
    800008b0:	01a00613          	li	a2,26
    800008b4:	00002597          	auipc	a1,0x2
    800008b8:	31458593          	addi	a1,a1,788 # 80002bc8 <__func__.1477+0x10>
    800008bc:	00002517          	auipc	a0,0x2
    800008c0:	38450513          	addi	a0,a0,900 # 80002c40 <__func__.1477+0x88>
    800008c4:	2a90006f          	j	8000136c <printf>

00000000800008c8 <do_event>:
    800008c8:	00052703          	lw	a4,0(a0)
    800008cc:	ff010113          	addi	sp,sp,-16
    800008d0:	00813023          	sd	s0,0(sp)
    800008d4:	00113423          	sd	ra,8(sp)
    800008d8:	00100793          	li	a5,1
    800008dc:	00058413          	mv	s0,a1
    800008e0:	02f70463          	beq	a4,a5,80000908 <do_event+0x40>
    800008e4:	00200793          	li	a5,2
    800008e8:	04f71063          	bne	a4,a5,80000928 <do_event+0x60>
    800008ec:	00058513          	mv	a0,a1
    800008f0:	f20ff0ef          	jal	ra,80000010 <do_syscall>
    800008f4:	00813083          	ld	ra,8(sp)
    800008f8:	00040513          	mv	a0,s0
    800008fc:	00013403          	ld	s0,0(sp)
    80000900:	01010113          	addi	sp,sp,16
    80000904:	00008067          	ret
    80000908:	00002517          	auipc	a0,0x2
    8000090c:	37850513          	addi	a0,a0,888 # 80002c80 <__func__.1477+0xc8>
    80000910:	25d000ef          	jal	ra,8000136c <printf>
    80000914:	00813083          	ld	ra,8(sp)
    80000918:	00040513          	mv	a0,s0
    8000091c:	00013403          	ld	s0,0(sp)
    80000920:	01010113          	addi	sp,sp,16
    80000924:	00008067          	ret
    80000928:	00002697          	auipc	a3,0x2
    8000092c:	42868693          	addi	a3,a3,1064 # 80002d50 <__func__.1440>
    80000930:	00700613          	li	a2,7
    80000934:	00002597          	auipc	a1,0x2
    80000938:	35458593          	addi	a1,a1,852 # 80002c88 <__func__.1477+0xd0>
    8000093c:	00002517          	auipc	a0,0x2
    80000940:	38450513          	addi	a0,a0,900 # 80002cc0 <__func__.1477+0x108>
    80000944:	229000ef          	jal	ra,8000136c <printf>
    80000948:	00100513          	li	a0,1
    8000094c:	2e4000ef          	jal	ra,80000c30 <halt>

0000000080000950 <init_irq>:
    80000950:	ff010113          	addi	sp,sp,-16
    80000954:	00002697          	auipc	a3,0x2
    80000958:	40c68693          	addi	a3,a3,1036 # 80002d60 <__func__.1444>
    8000095c:	00e00613          	li	a2,14
    80000960:	00002597          	auipc	a1,0x2
    80000964:	32858593          	addi	a1,a1,808 # 80002c88 <__func__.1477+0xd0>
    80000968:	00002517          	auipc	a0,0x2
    8000096c:	3a050513          	addi	a0,a0,928 # 80002d08 <__func__.1477+0x150>
    80000970:	00113423          	sd	ra,8(sp)
    80000974:	1f9000ef          	jal	ra,8000136c <printf>
    80000978:	00813083          	ld	ra,8(sp)
    8000097c:	00000517          	auipc	a0,0x0
    80000980:	f4c50513          	addi	a0,a0,-180 # 800008c8 <do_event>
    80000984:	01010113          	addi	sp,sp,16
    80000988:	6540006f          	j	80000fdc <cte_init>

000000008000098c <naive_uload>:
    8000098c:	f5010113          	addi	sp,sp,-176
    80000990:	00058513          	mv	a0,a1
    80000994:	0a113423          	sd	ra,168(sp)
    80000998:	0a813023          	sd	s0,160(sp)
    8000099c:	09213823          	sd	s2,144(sp)
    800009a0:	09313423          	sd	s3,136(sp)
    800009a4:	08913c23          	sd	s1,152(sp)
    800009a8:	9d1ff0ef          	jal	ra,80000378 <fs_open>
    800009ac:	00000613          	li	a2,0
    800009b0:	00000593          	li	a1,0
    800009b4:	00050413          	mv	s0,a0
    800009b8:	c31ff0ef          	jal	ra,800005e8 <fs_lseek>
    800009bc:	04000613          	li	a2,64
    800009c0:	04010593          	addi	a1,sp,64
    800009c4:	00040513          	mv	a0,s0
    800009c8:	a3dff0ef          	jal	ra,80000404 <fs_read>
    800009cc:	07815783          	lhu	a5,120(sp)
    800009d0:	00000913          	li	s2,0
    800009d4:	00100993          	li	s3,1
    800009d8:	00079a63          	bnez	a5,800009ec <naive_uload+0x60>
    800009dc:	0c80006f          	j	80000aa4 <naive_uload+0x118>
    800009e0:	07815783          	lhu	a5,120(sp)
    800009e4:	0019091b          	addiw	s2,s2,1
    800009e8:	0af95e63          	bge	s2,a5,80000aa4 <naive_uload+0x118>
    800009ec:	07615783          	lhu	a5,118(sp)
    800009f0:	06013583          	ld	a1,96(sp)
    800009f4:	00000613          	li	a2,0
    800009f8:	032787bb          	mulw	a5,a5,s2
    800009fc:	00040513          	mv	a0,s0
    80000a00:	00b785b3          	add	a1,a5,a1
    80000a04:	be5ff0ef          	jal	ra,800005e8 <fs_lseek>
    80000a08:	03800613          	li	a2,56
    80000a0c:	00810593          	addi	a1,sp,8
    80000a10:	00040513          	mv	a0,s0
    80000a14:	9f1ff0ef          	jal	ra,80000404 <fs_read>
    80000a18:	00812783          	lw	a5,8(sp)
    80000a1c:	fd3792e3          	bne	a5,s3,800009e0 <naive_uload+0x54>
    80000a20:	02813703          	ld	a4,40(sp)
    80000a24:	0c070463          	beqz	a4,80000aec <naive_uload+0x160>
    80000a28:	00000493          	li	s1,0
    80000a2c:	01013583          	ld	a1,16(sp)
    80000a30:	00000613          	li	a2,0
    80000a34:	00040513          	mv	a0,s0
    80000a38:	00b485b3          	add	a1,s1,a1
    80000a3c:	badff0ef          	jal	ra,800005e8 <fs_lseek>
    80000a40:	00100613          	li	a2,1
    80000a44:	00710593          	addi	a1,sp,7
    80000a48:	00040513          	mv	a0,s0
    80000a4c:	9b9ff0ef          	jal	ra,80000404 <fs_read>
    80000a50:	01813783          	ld	a5,24(sp)
    80000a54:	00714703          	lbu	a4,7(sp)
    80000a58:	009787b3          	add	a5,a5,s1
    80000a5c:	00e78023          	sb	a4,0(a5)
    80000a60:	02813783          	ld	a5,40(sp)
    80000a64:	00148493          	addi	s1,s1,1
    80000a68:	fcf4e2e3          	bltu	s1,a5,80000a2c <naive_uload+0xa0>
    80000a6c:	0007879b          	sext.w	a5,a5
    80000a70:	00078713          	mv	a4,a5
    80000a74:	03013683          	ld	a3,48(sp)
    80000a78:	f6d774e3          	bgeu	a4,a3,800009e0 <naive_uload+0x54>
    80000a7c:	01813683          	ld	a3,24(sp)
    80000a80:	00e68733          	add	a4,a3,a4
    80000a84:	00070023          	sb	zero,0(a4) # fffffffffffff000 <_end+0xffffffff7e1f0000>
    80000a88:	03013683          	ld	a3,48(sp)
    80000a8c:	00178713          	addi	a4,a5,1
    80000a90:	00070793          	mv	a5,a4
    80000a94:	fed764e3          	bltu	a4,a3,80000a7c <naive_uload+0xf0>
    80000a98:	07815783          	lhu	a5,120(sp)
    80000a9c:	0019091b          	addiw	s2,s2,1
    80000aa0:	f4f946e3          	blt	s2,a5,800009ec <naive_uload+0x60>
    80000aa4:	05813403          	ld	s0,88(sp)
    80000aa8:	00002697          	auipc	a3,0x2
    80000aac:	33068693          	addi	a3,a3,816 # 80002dd8 <__func__.1807>
    80000ab0:	02d00613          	li	a2,45
    80000ab4:	00040713          	mv	a4,s0
    80000ab8:	00002597          	auipc	a1,0x2
    80000abc:	2b858593          	addi	a1,a1,696 # 80002d70 <__func__.1444+0x10>
    80000ac0:	00002517          	auipc	a0,0x2
    80000ac4:	2e850513          	addi	a0,a0,744 # 80002da8 <__func__.1444+0x48>
    80000ac8:	0a5000ef          	jal	ra,8000136c <printf>
    80000acc:	000400e7          	jalr	s0
    80000ad0:	0a813083          	ld	ra,168(sp)
    80000ad4:	0a013403          	ld	s0,160(sp)
    80000ad8:	09813483          	ld	s1,152(sp)
    80000adc:	09013903          	ld	s2,144(sp)
    80000ae0:	08813983          	ld	s3,136(sp)
    80000ae4:	0b010113          	addi	sp,sp,176
    80000ae8:	00008067          	ret
    80000aec:	00000793          	li	a5,0
    80000af0:	f85ff06f          	j	80000a74 <naive_uload+0xe8>

0000000080000af4 <ramdisk_read>:
    80000af4:	ff010113          	addi	sp,sp,-16
    80000af8:	00002717          	auipc	a4,0x2
    80000afc:	4f970713          	addi	a4,a4,1273 # 80002ff1 <ramdisk_start>
    80000b00:	01dfb797          	auipc	a5,0x1dfb
    80000b04:	cf178793          	addi	a5,a5,-783 # 81dfb7f1 <_data>
    80000b08:	00113423          	sd	ra,8(sp)
    80000b0c:	00813023          	sd	s0,0(sp)
    80000b10:	00c586b3          	add	a3,a1,a2
    80000b14:	40e787b3          	sub	a5,a5,a4
    80000b18:	02d7e263          	bltu	a5,a3,80000b3c <ramdisk_read+0x48>
    80000b1c:	00b705b3          	add	a1,a4,a1
    80000b20:	00060413          	mv	s0,a2
    80000b24:	68c000ef          	jal	ra,800011b0 <memcpy>
    80000b28:	00813083          	ld	ra,8(sp)
    80000b2c:	00040513          	mv	a0,s0
    80000b30:	00013403          	ld	s0,0(sp)
    80000b34:	01010113          	addi	sp,sp,16
    80000b38:	00008067          	ret
    80000b3c:	00002717          	auipc	a4,0x2
    80000b40:	2ac70713          	addi	a4,a4,684 # 80002de8 <__func__.1807+0x10>
    80000b44:	00002697          	auipc	a3,0x2
    80000b48:	34c68693          	addi	a3,a3,844 # 80002e90 <__func__.1437>
    80000b4c:	00e00613          	li	a2,14
    80000b50:	00002597          	auipc	a1,0x2
    80000b54:	2b858593          	addi	a1,a1,696 # 80002e08 <__func__.1807+0x30>
    80000b58:	00001517          	auipc	a0,0x1
    80000b5c:	4b850513          	addi	a0,a0,1208 # 80002010 <logo+0x7be>
    80000b60:	00d000ef          	jal	ra,8000136c <printf>
    80000b64:	00100513          	li	a0,1
    80000b68:	0c8000ef          	jal	ra,80000c30 <halt>

0000000080000b6c <ramdisk_write>:
    80000b6c:	ff010113          	addi	sp,sp,-16
    80000b70:	00002697          	auipc	a3,0x2
    80000b74:	48168693          	addi	a3,a3,1153 # 80002ff1 <ramdisk_start>
    80000b78:	01dfb717          	auipc	a4,0x1dfb
    80000b7c:	c7970713          	addi	a4,a4,-903 # 81dfb7f1 <_data>
    80000b80:	00113423          	sd	ra,8(sp)
    80000b84:	00813023          	sd	s0,0(sp)
    80000b88:	00c58833          	add	a6,a1,a2
    80000b8c:	40d70733          	sub	a4,a4,a3
    80000b90:	03076663          	bltu	a4,a6,80000bbc <ramdisk_write+0x50>
    80000b94:	00058793          	mv	a5,a1
    80000b98:	00050593          	mv	a1,a0
    80000b9c:	00f68533          	add	a0,a3,a5
    80000ba0:	00060413          	mv	s0,a2
    80000ba4:	60c000ef          	jal	ra,800011b0 <memcpy>
    80000ba8:	00813083          	ld	ra,8(sp)
    80000bac:	00040513          	mv	a0,s0
    80000bb0:	00013403          	ld	s0,0(sp)
    80000bb4:	01010113          	addi	sp,sp,16
    80000bb8:	00008067          	ret
    80000bbc:	00002717          	auipc	a4,0x2
    80000bc0:	22c70713          	addi	a4,a4,556 # 80002de8 <__func__.1807+0x10>
    80000bc4:	00002697          	auipc	a3,0x2
    80000bc8:	2dc68693          	addi	a3,a3,732 # 80002ea0 <__func__.1443>
    80000bcc:	01500613          	li	a2,21
    80000bd0:	00002597          	auipc	a1,0x2
    80000bd4:	23858593          	addi	a1,a1,568 # 80002e08 <__func__.1807+0x30>
    80000bd8:	00001517          	auipc	a0,0x1
    80000bdc:	43850513          	addi	a0,a0,1080 # 80002010 <logo+0x7be>
    80000be0:	78c000ef          	jal	ra,8000136c <printf>
    80000be4:	00100513          	li	a0,1
    80000be8:	048000ef          	jal	ra,80000c30 <halt>

0000000080000bec <init_ramdisk>:
    80000bec:	01dfb797          	auipc	a5,0x1dfb
    80000bf0:	c0578793          	addi	a5,a5,-1019 # 81dfb7f1 <_data>
    80000bf4:	00002717          	auipc	a4,0x2
    80000bf8:	3fd70713          	addi	a4,a4,1021 # 80002ff1 <ramdisk_start>
    80000bfc:	40e78833          	sub	a6,a5,a4
    80000c00:	00002697          	auipc	a3,0x2
    80000c04:	2b068693          	addi	a3,a3,688 # 80002eb0 <__func__.1446>
    80000c08:	01b00613          	li	a2,27
    80000c0c:	00002597          	auipc	a1,0x2
    80000c10:	1fc58593          	addi	a1,a1,508 # 80002e08 <__func__.1807+0x30>
    80000c14:	00002517          	auipc	a0,0x2
    80000c18:	22c50513          	addi	a0,a0,556 # 80002e40 <__func__.1807+0x68>
    80000c1c:	7500006f          	j	8000136c <printf>

0000000080000c20 <putch>:
    80000c20:	00500793          	li	a5,5
    80000c24:	01d79793          	slli	a5,a5,0x1d
    80000c28:	3ea78c23          	sb	a0,1016(a5)
    80000c2c:	00008067          	ret

0000000080000c30 <halt>:
    80000c30:	00050513          	mv	a0,a0
    80000c34:	00100073          	ebreak
    80000c38:	0000006f          	j	80000c38 <halt+0x8>

0000000080000c3c <_trm_init>:
    80000c3c:	ff010113          	addi	sp,sp,-16
    80000c40:	00002517          	auipc	a0,0x2
    80000c44:	3b050513          	addi	a0,a0,944 # 80002ff0 <mainargs>
    80000c48:	00113423          	sd	ra,8(sp)
    80000c4c:	d64ff0ef          	jal	ra,800001b0 <main>
    80000c50:	00050513          	mv	a0,a0
    80000c54:	00100073          	ebreak
    80000c58:	0000006f          	j	80000c58 <_trm_init+0x1c>

0000000080000c5c <__am_timer_config>:
    80000c5c:	00100793          	li	a5,1
    80000c60:	00f50023          	sb	a5,0(a0)
    80000c64:	00f500a3          	sb	a5,1(a0)
    80000c68:	00008067          	ret

0000000080000c6c <__am_input_config>:
    80000c6c:	00100793          	li	a5,1
    80000c70:	00f50023          	sb	a5,0(a0)
    80000c74:	00008067          	ret

0000000080000c78 <__am_uart_config>:
    80000c78:	00050023          	sb	zero,0(a0)
    80000c7c:	00008067          	ret

0000000080000c80 <__am_net_config>:
    80000c80:	00050023          	sb	zero,0(a0)
    80000c84:	00008067          	ret

0000000080000c88 <fail>:
    80000c88:	ff010113          	addi	sp,sp,-16
    80000c8c:	00813023          	sd	s0,0(sp)
    80000c90:	00113423          	sd	ra,8(sp)
    80000c94:	00002417          	auipc	s0,0x2
    80000c98:	22c40413          	addi	s0,s0,556 # 80002ec0 <__func__.1446+0x10>
    80000c9c:	04100513          	li	a0,65
    80000ca0:	00140413          	addi	s0,s0,1
    80000ca4:	f7dff0ef          	jal	ra,80000c20 <putch>
    80000ca8:	00044503          	lbu	a0,0(s0)
    80000cac:	fe051ae3          	bnez	a0,80000ca0 <fail+0x18>
    80000cb0:	00002417          	auipc	s0,0x2
    80000cb4:	22040413          	addi	s0,s0,544 # 80002ed0 <__func__.1446+0x20>
    80000cb8:	06100513          	li	a0,97
    80000cbc:	00140413          	addi	s0,s0,1
    80000cc0:	f61ff0ef          	jal	ra,80000c20 <putch>
    80000cc4:	00044503          	lbu	a0,0(s0)
    80000cc8:	fe051ae3          	bnez	a0,80000cbc <fail+0x34>
    80000ccc:	00002417          	auipc	s0,0x2
    80000cd0:	22440413          	addi	s0,s0,548 # 80002ef0 <__func__.1446+0x40>
    80000cd4:	02000513          	li	a0,32
    80000cd8:	00140413          	addi	s0,s0,1
    80000cdc:	f45ff0ef          	jal	ra,80000c20 <putch>
    80000ce0:	00044503          	lbu	a0,0(s0)
    80000ce4:	fe051ae3          	bnez	a0,80000cd8 <fail+0x50>
    80000ce8:	00100513          	li	a0,1
    80000cec:	f45ff0ef          	jal	ra,80000c30 <halt>

0000000080000cf0 <ioe_init>:
    80000cf0:	ff010113          	addi	sp,sp,-16
    80000cf4:	00113423          	sd	ra,8(sp)
    80000cf8:	01dfc797          	auipc	a5,0x1dfc
    80000cfc:	09078793          	addi	a5,a5,144 # 81dfcd88 <lut>
    80000d00:	01dfc697          	auipc	a3,0x1dfc
    80000d04:	48868693          	addi	a3,a3,1160 # 81dfd188 <lut+0x400>
    80000d08:	00000617          	auipc	a2,0x0
    80000d0c:	f8060613          	addi	a2,a2,-128 # 80000c88 <fail>
    80000d10:	00c0006f          	j	80000d1c <ioe_init+0x2c>
    80000d14:	00878793          	addi	a5,a5,8
    80000d18:	00d78c63          	beq	a5,a3,80000d30 <ioe_init+0x40>
    80000d1c:	0007b703          	ld	a4,0(a5)
    80000d20:	fe071ae3          	bnez	a4,80000d14 <ioe_init+0x24>
    80000d24:	00c7b023          	sd	a2,0(a5)
    80000d28:	00878793          	addi	a5,a5,8
    80000d2c:	fed798e3          	bne	a5,a3,80000d1c <ioe_init+0x2c>
    80000d30:	0dc000ef          	jal	ra,80000e0c <__am_gpu_init>
    80000d34:	038000ef          	jal	ra,80000d6c <__am_timer_init>
    80000d38:	1c0000ef          	jal	ra,80000ef8 <__am_audio_init>
    80000d3c:	00813083          	ld	ra,8(sp)
    80000d40:	00100513          	li	a0,1
    80000d44:	01010113          	addi	sp,sp,16
    80000d48:	00008067          	ret

0000000080000d4c <ioe_read>:
    80000d4c:	00351793          	slli	a5,a0,0x3
    80000d50:	01dfc517          	auipc	a0,0x1dfc
    80000d54:	03850513          	addi	a0,a0,56 # 81dfcd88 <lut>
    80000d58:	00f50533          	add	a0,a0,a5
    80000d5c:	00053303          	ld	t1,0(a0)
    80000d60:	00058513          	mv	a0,a1
    80000d64:	00030067          	jr	t1

0000000080000d68 <ioe_write>:
    80000d68:	fe5ff06f          	j	80000d4c <ioe_read>

0000000080000d6c <__am_timer_init>:
    80000d6c:	00500793          	li	a5,5
    80000d70:	01d79793          	slli	a5,a5,0x1d
    80000d74:	0487a783          	lw	a5,72(a5)
    80000d78:	02079793          	slli	a5,a5,0x20
    80000d7c:	0207d793          	srli	a5,a5,0x20
    80000d80:	01e05717          	auipc	a4,0x1e05
    80000d84:	28f73423          	sd	a5,648(a4) # 81e06008 <boot_time>
    80000d88:	00008067          	ret

0000000080000d8c <__am_timer_uptime>:
    80000d8c:	00500793          	li	a5,5
    80000d90:	01d79793          	slli	a5,a5,0x1d
    80000d94:	04c7a703          	lw	a4,76(a5)
    80000d98:	0487a783          	lw	a5,72(a5)
    80000d9c:	02071713          	slli	a4,a4,0x20
    80000da0:	02079793          	slli	a5,a5,0x20
    80000da4:	00e53023          	sd	a4,0(a0)
    80000da8:	0207d793          	srli	a5,a5,0x20
    80000dac:	00e7e7b3          	or	a5,a5,a4
    80000db0:	01e05717          	auipc	a4,0x1e05
    80000db4:	25873703          	ld	a4,600(a4) # 81e06008 <boot_time>
    80000db8:	40e787b3          	sub	a5,a5,a4
    80000dbc:	00f53023          	sd	a5,0(a0)
    80000dc0:	00008067          	ret

0000000080000dc4 <__am_timer_rtc>:
    80000dc4:	76c00793          	li	a5,1900
    80000dc8:	00052a23          	sw	zero,20(a0)
    80000dcc:	00052823          	sw	zero,16(a0)
    80000dd0:	00052623          	sw	zero,12(a0)
    80000dd4:	00052423          	sw	zero,8(a0)
    80000dd8:	00052223          	sw	zero,4(a0)
    80000ddc:	00f52023          	sw	a5,0(a0)
    80000de0:	00008067          	ret

0000000080000de4 <__am_input_keybrd>:
    80000de4:	00500793          	li	a5,5
    80000de8:	01d79793          	slli	a5,a5,0x1d
    80000dec:	0607d783          	lhu	a5,96(a5)
    80000df0:	0107971b          	slliw	a4,a5,0x10
    80000df4:	0107571b          	srliw	a4,a4,0x10
    80000df8:	00f7571b          	srliw	a4,a4,0xf
    80000dfc:	0ff7f793          	andi	a5,a5,255
    80000e00:	00e50023          	sb	a4,0(a0)
    80000e04:	00f52223          	sw	a5,4(a0)
    80000e08:	00008067          	ret

0000000080000e0c <__am_gpu_init>:
    80000e0c:	00008067          	ret

0000000080000e10 <__am_gpu_config>:
    80000e10:	00002797          	auipc	a5,0x2
    80000e14:	13878793          	addi	a5,a5,312 # 80002f48 <__func__.1446+0x98>
    80000e18:	0007a603          	lw	a2,0(a5)
    80000e1c:	0047a683          	lw	a3,4(a5)
    80000e20:	0087a703          	lw	a4,8(a5)
    80000e24:	00c7a783          	lw	a5,12(a5)
    80000e28:	00c52023          	sw	a2,0(a0)
    80000e2c:	00d52223          	sw	a3,4(a0)
    80000e30:	00e52423          	sw	a4,8(a0)
    80000e34:	00f52623          	sw	a5,12(a0)
    80000e38:	00008067          	ret

0000000080000e3c <__am_gpu_fbdraw>:
    80000e3c:	01052e03          	lw	t3,16(a0)
    80000e40:	00052283          	lw	t0,0(a0)
    80000e44:	00452703          	lw	a4,4(a0)
    80000e48:	01452e83          	lw	t4,20(a0)
    80000e4c:	00853883          	ld	a7,8(a0)
    80000e50:	09c05063          	blez	t3,80000ed0 <__am_gpu_fbdraw+0x94>
    80000e54:	fffe831b          	addiw	t1,t4,-1
    80000e58:	02031313          	slli	t1,t1,0x20
    80000e5c:	02035313          	srli	t1,t1,0x20
    80000e60:	19000793          	li	a5,400
    80000e64:	00e30333          	add	t1,t1,a4
    80000e68:	02f30333          	mul	t1,t1,a5
    80000e6c:	19000f13          	li	t5,400
    80000e70:	284007b7          	lui	a5,0x28400
    80000e74:	0a100f93          	li	t6,161
    80000e78:	19078793          	addi	a5,a5,400 # 28400190 <_entry_offset+0x28400190>
    80000e7c:	002e1593          	slli	a1,t3,0x2
    80000e80:	00000813          	li	a6,0
    80000e84:	018f9f93          	slli	t6,t6,0x18
    80000e88:	02ef0f3b          	mulw	t5,t5,a4
    80000e8c:	00f30333          	add	t1,t1,a5
    80000e90:	03d05a63          	blez	t4,80000ec4 <__am_gpu_fbdraw+0x88>
    80000e94:	0102863b          	addw	a2,t0,a6
    80000e98:	01e607b3          	add	a5,a2,t5
    80000e9c:	00279793          	slli	a5,a5,0x2
    80000ea0:	00c30633          	add	a2,t1,a2
    80000ea4:	01f787b3          	add	a5,a5,t6
    80000ea8:	00261613          	slli	a2,a2,0x2
    80000eac:	00088713          	mv	a4,a7
    80000eb0:	00072683          	lw	a3,0(a4)
    80000eb4:	64078793          	addi	a5,a5,1600
    80000eb8:	00b70733          	add	a4,a4,a1
    80000ebc:	9cd7a023          	sw	a3,-1600(a5)
    80000ec0:	fec798e3          	bne	a5,a2,80000eb0 <__am_gpu_fbdraw+0x74>
    80000ec4:	0018081b          	addiw	a6,a6,1
    80000ec8:	00488893          	addi	a7,a7,4
    80000ecc:	fd0e12e3          	bne	t3,a6,80000e90 <__am_gpu_fbdraw+0x54>
    80000ed0:	01854783          	lbu	a5,24(a0)
    80000ed4:	00078a63          	beqz	a5,80000ee8 <__am_gpu_fbdraw+0xac>
    80000ed8:	00500793          	li	a5,5
    80000edc:	01d79793          	slli	a5,a5,0x1d
    80000ee0:	00100713          	li	a4,1
    80000ee4:	10e7a223          	sw	a4,260(a5)
    80000ee8:	00008067          	ret

0000000080000eec <__am_gpu_status>:
    80000eec:	00100793          	li	a5,1
    80000ef0:	00f50023          	sb	a5,0(a0)
    80000ef4:	00008067          	ret

0000000080000ef8 <__am_audio_init>:
    80000ef8:	00008067          	ret

0000000080000efc <__am_audio_config>:
    80000efc:	00050023          	sb	zero,0(a0)
    80000f00:	00008067          	ret

0000000080000f04 <__am_audio_ctrl>:
    80000f04:	00008067          	ret

0000000080000f08 <__am_audio_status>:
    80000f08:	00052023          	sw	zero,0(a0)
    80000f0c:	00008067          	ret

0000000080000f10 <__am_audio_play>:
    80000f10:	00008067          	ret

0000000080000f14 <__am_disk_config>:
    80000f14:	00050023          	sb	zero,0(a0)
    80000f18:	00008067          	ret

0000000080000f1c <__am_disk_status>:
    80000f1c:	00008067          	ret

0000000080000f20 <__am_disk_blkio>:
    80000f20:	00008067          	ret

0000000080000f24 <__am_irq_handle>:
    80000f24:	01e05797          	auipc	a5,0x1e05
    80000f28:	0ec7b783          	ld	a5,236(a5) # 81e06010 <user_handler>
    80000f2c:	00050593          	mv	a1,a0
    80000f30:	08078463          	beqz	a5,80000fb8 <__am_irq_handle+0x94>
    80000f34:	10053703          	ld	a4,256(a0)
    80000f38:	fb010113          	addi	sp,sp,-80
    80000f3c:	04113423          	sd	ra,72(sp)
    80000f40:	02013023          	sd	zero,32(sp)
    80000f44:	02013423          	sd	zero,40(sp)
    80000f48:	02013823          	sd	zero,48(sp)
    80000f4c:	02013c23          	sd	zero,56(sp)
    80000f50:	01300693          	li	a3,19
    80000f54:	04e6f663          	bgeu	a3,a4,80000fa0 <__am_irq_handle+0x7c>
    80000f58:	fff00693          	li	a3,-1
    80000f5c:	04d71863          	bne	a4,a3,80000fac <__am_irq_handle+0x88>
    80000f60:	00100713          	li	a4,1
    80000f64:	02e12023          	sw	a4,32(sp)
    80000f68:	02013703          	ld	a4,32(sp)
    80000f6c:	00010513          	mv	a0,sp
    80000f70:	00e13023          	sd	a4,0(sp)
    80000f74:	02813703          	ld	a4,40(sp)
    80000f78:	00e13423          	sd	a4,8(sp)
    80000f7c:	03013703          	ld	a4,48(sp)
    80000f80:	00e13823          	sd	a4,16(sp)
    80000f84:	03813703          	ld	a4,56(sp)
    80000f88:	00e13c23          	sd	a4,24(sp)
    80000f8c:	000780e7          	jalr	a5
    80000f90:	02050663          	beqz	a0,80000fbc <__am_irq_handle+0x98>
    80000f94:	04813083          	ld	ra,72(sp)
    80000f98:	05010113          	addi	sp,sp,80
    80000f9c:	00008067          	ret
    80000fa0:	00200713          	li	a4,2
    80000fa4:	02e12023          	sw	a4,32(sp)
    80000fa8:	fc1ff06f          	j	80000f68 <__am_irq_handle+0x44>
    80000fac:	00400713          	li	a4,4
    80000fb0:	02e12023          	sw	a4,32(sp)
    80000fb4:	fb5ff06f          	j	80000f68 <__am_irq_handle+0x44>
    80000fb8:	00008067          	ret
    80000fbc:	02600613          	li	a2,38
    80000fc0:	00002597          	auipc	a1,0x2
    80000fc4:	f9858593          	addi	a1,a1,-104 # 80002f58 <__func__.1446+0xa8>
    80000fc8:	00002517          	auipc	a0,0x2
    80000fcc:	fd850513          	addi	a0,a0,-40 # 80002fa0 <__func__.1446+0xf0>
    80000fd0:	39c000ef          	jal	ra,8000136c <printf>
    80000fd4:	00100513          	li	a0,1
    80000fd8:	c59ff0ef          	jal	ra,80000c30 <halt>

0000000080000fdc <cte_init>:
    80000fdc:	00050793          	mv	a5,a0
    80000fe0:	00000717          	auipc	a4,0x0
    80000fe4:	02870713          	addi	a4,a4,40 # 80001008 <__am_asm_trap>
    80000fe8:	30571073          	csrw	mtvec,a4
    80000fec:	00100513          	li	a0,1
    80000ff0:	01e05717          	auipc	a4,0x1e05
    80000ff4:	02f73023          	sd	a5,32(a4) # 81e06010 <user_handler>
    80000ff8:	00008067          	ret

0000000080000ffc <yield>:
    80000ffc:	fff00893          	li	a7,-1
    80001000:	00000073          	ecall
    80001004:	00008067          	ret

0000000080001008 <__am_asm_trap>:
    80001008:	ee010113          	addi	sp,sp,-288
    8000100c:	00113423          	sd	ra,8(sp)
    80001010:	00313c23          	sd	gp,24(sp)
    80001014:	02413023          	sd	tp,32(sp)
    80001018:	02513423          	sd	t0,40(sp)
    8000101c:	02613823          	sd	t1,48(sp)
    80001020:	02713c23          	sd	t2,56(sp)
    80001024:	04813023          	sd	s0,64(sp)
    80001028:	04913423          	sd	s1,72(sp)
    8000102c:	04a13823          	sd	a0,80(sp)
    80001030:	04b13c23          	sd	a1,88(sp)
    80001034:	06c13023          	sd	a2,96(sp)
    80001038:	06d13423          	sd	a3,104(sp)
    8000103c:	06e13823          	sd	a4,112(sp)
    80001040:	06f13c23          	sd	a5,120(sp)
    80001044:	09013023          	sd	a6,128(sp)
    80001048:	09113423          	sd	a7,136(sp)
    8000104c:	09213823          	sd	s2,144(sp)
    80001050:	09313c23          	sd	s3,152(sp)
    80001054:	0b413023          	sd	s4,160(sp)
    80001058:	0b513423          	sd	s5,168(sp)
    8000105c:	0b613823          	sd	s6,176(sp)
    80001060:	0b713c23          	sd	s7,184(sp)
    80001064:	0d813023          	sd	s8,192(sp)
    80001068:	0d913423          	sd	s9,200(sp)
    8000106c:	0da13823          	sd	s10,208(sp)
    80001070:	0db13c23          	sd	s11,216(sp)
    80001074:	0fc13023          	sd	t3,224(sp)
    80001078:	0fd13423          	sd	t4,232(sp)
    8000107c:	0fe13823          	sd	t5,240(sp)
    80001080:	0ff13c23          	sd	t6,248(sp)
    80001084:	342022f3          	csrr	t0,mcause
    80001088:	30002373          	csrr	t1,mstatus
    8000108c:	341023f3          	csrr	t2,mepc
    80001090:	10513023          	sd	t0,256(sp)
    80001094:	10613423          	sd	t1,264(sp)
    80001098:	10713823          	sd	t2,272(sp)
    8000109c:	00020537          	lui	a0,0x20
    800010a0:	00a36333          	or	t1,t1,a0
    800010a4:	30031073          	csrw	mstatus,t1
    800010a8:	00010513          	mv	a0,sp
    800010ac:	e79ff0ef          	jal	ra,80000f24 <__am_irq_handle>
    800010b0:	10813303          	ld	t1,264(sp)
    800010b4:	11013383          	ld	t2,272(sp)
    800010b8:	30031073          	csrw	mstatus,t1
    800010bc:	34139073          	csrw	mepc,t2
    800010c0:	00813083          	ld	ra,8(sp)
    800010c4:	01813183          	ld	gp,24(sp)
    800010c8:	02013203          	ld	tp,32(sp)
    800010cc:	02813283          	ld	t0,40(sp)
    800010d0:	03013303          	ld	t1,48(sp)
    800010d4:	03813383          	ld	t2,56(sp)
    800010d8:	04013403          	ld	s0,64(sp)
    800010dc:	04813483          	ld	s1,72(sp)
    800010e0:	05013503          	ld	a0,80(sp)
    800010e4:	05813583          	ld	a1,88(sp)
    800010e8:	06013603          	ld	a2,96(sp)
    800010ec:	06813683          	ld	a3,104(sp)
    800010f0:	07013703          	ld	a4,112(sp)
    800010f4:	07813783          	ld	a5,120(sp)
    800010f8:	08013803          	ld	a6,128(sp)
    800010fc:	08813883          	ld	a7,136(sp)
    80001100:	09013903          	ld	s2,144(sp)
    80001104:	09813983          	ld	s3,152(sp)
    80001108:	0a013a03          	ld	s4,160(sp)
    8000110c:	0a813a83          	ld	s5,168(sp)
    80001110:	0b013b03          	ld	s6,176(sp)
    80001114:	0b813b83          	ld	s7,184(sp)
    80001118:	0c013c03          	ld	s8,192(sp)
    8000111c:	0c813c83          	ld	s9,200(sp)
    80001120:	0d013d03          	ld	s10,208(sp)
    80001124:	0d813d83          	ld	s11,216(sp)
    80001128:	0e013e03          	ld	t3,224(sp)
    8000112c:	0e813e83          	ld	t4,232(sp)
    80001130:	0f013f03          	ld	t5,240(sp)
    80001134:	0f813f83          	ld	t6,248(sp)
    80001138:	12010113          	addi	sp,sp,288
    8000113c:	30200073          	mret
    80001140:	0000                	unimp
	...

0000000080001144 <strlen>:
    80001144:	00054703          	lbu	a4,0(a0) # 20000 <_entry_offset+0x20000>
    80001148:	00050793          	mv	a5,a0
    8000114c:	00000513          	li	a0,0
    80001150:	00070c63          	beqz	a4,80001168 <strlen+0x24>
    80001154:	00178793          	addi	a5,a5,1
    80001158:	0007c703          	lbu	a4,0(a5)
    8000115c:	00150513          	addi	a0,a0,1
    80001160:	fe071ae3          	bnez	a4,80001154 <strlen+0x10>
    80001164:	00008067          	ret
    80001168:	00008067          	ret

000000008000116c <strcmp>:
    8000116c:	00054703          	lbu	a4,0(a0)
    80001170:	0005c783          	lbu	a5,0(a1)
    80001174:	40f707bb          	subw	a5,a4,a5
    80001178:	02079063          	bnez	a5,80001198 <strcmp+0x2c>
    8000117c:	02070263          	beqz	a4,800011a0 <strcmp+0x34>
    80001180:	00150513          	addi	a0,a0,1
    80001184:	00158593          	addi	a1,a1,1
    80001188:	00054703          	lbu	a4,0(a0)
    8000118c:	0005c783          	lbu	a5,0(a1)
    80001190:	40f707bb          	subw	a5,a4,a5
    80001194:	fe0784e3          	beqz	a5,8000117c <strcmp+0x10>
    80001198:	0007c863          	bltz	a5,800011a8 <strcmp+0x3c>
    8000119c:	00f037b3          	snez	a5,a5
    800011a0:	00078513          	mv	a0,a5
    800011a4:	00008067          	ret
    800011a8:	fff00793          	li	a5,-1
    800011ac:	ff5ff06f          	j	800011a0 <strcmp+0x34>

00000000800011b0 <memcpy>:
    800011b0:	00060e63          	beqz	a2,800011cc <memcpy+0x1c>
    800011b4:	00c50633          	add	a2,a0,a2
    800011b8:	00158593          	addi	a1,a1,1
    800011bc:	fff5c783          	lbu	a5,-1(a1)
    800011c0:	00150513          	addi	a0,a0,1
    800011c4:	fef50fa3          	sb	a5,-1(a0)
    800011c8:	fea618e3          	bne	a2,a0,800011b8 <memcpy+0x8>
    800011cc:	00008067          	ret

00000000800011d0 <printint>:
    800011d0:	00051463          	bnez	a0,800011d8 <printint+0x8>
    800011d4:	00008067          	ret
    800011d8:	fe010113          	addi	sp,sp,-32
    800011dc:	00913423          	sd	s1,8(sp)
    800011e0:	00a00493          	li	s1,10
    800011e4:	00813823          	sd	s0,16(sp)
    800011e8:	00050413          	mv	s0,a0
    800011ec:	0295453b          	divw	a0,a0,s1
    800011f0:	00113c23          	sd	ra,24(sp)
    800011f4:	fddff0ef          	jal	ra,800011d0 <printint>
    800011f8:	0294653b          	remw	a0,s0,s1
    800011fc:	01013403          	ld	s0,16(sp)
    80001200:	01813083          	ld	ra,24(sp)
    80001204:	00813483          	ld	s1,8(sp)
    80001208:	02010113          	addi	sp,sp,32
    8000120c:	0305051b          	addiw	a0,a0,48
    80001210:	0ff57513          	andi	a0,a0,255
    80001214:	a0dff06f          	j	80000c20 <putch>

0000000080001218 <printhex>:
    80001218:	fe010113          	addi	sp,sp,-32
    8000121c:	00913423          	sd	s1,8(sp)
    80001220:	00113c23          	sd	ra,24(sp)
    80001224:	00813823          	sd	s0,16(sp)
    80001228:	0005049b          	sext.w	s1,a0
    8000122c:	04048063          	beqz	s1,8000126c <printhex+0x54>
    80001230:	00050413          	mv	s0,a0
    80001234:	0044d51b          	srliw	a0,s1,0x4
    80001238:	0005051b          	sext.w	a0,a0
    8000123c:	00100593          	li	a1,1
    80001240:	fd9ff0ef          	jal	ra,80001218 <printhex>
    80001244:	00f4f493          	andi	s1,s1,15
    80001248:	00900793          	li	a5,9
    8000124c:	00f47513          	andi	a0,s0,15
    80001250:	0297fe63          	bgeu	a5,s1,8000128c <printhex+0x74>
    80001254:	05750513          	addi	a0,a0,87
    80001258:	01013403          	ld	s0,16(sp)
    8000125c:	01813083          	ld	ra,24(sp)
    80001260:	00813483          	ld	s1,8(sp)
    80001264:	02010113          	addi	sp,sp,32
    80001268:	9b9ff06f          	j	80000c20 <putch>
    8000126c:	00100793          	li	a5,1
    80001270:	03000513          	li	a0,48
    80001274:	fef592e3          	bne	a1,a5,80001258 <printhex+0x40>
    80001278:	01813083          	ld	ra,24(sp)
    8000127c:	01013403          	ld	s0,16(sp)
    80001280:	00813483          	ld	s1,8(sp)
    80001284:	02010113          	addi	sp,sp,32
    80001288:	00008067          	ret
    8000128c:	01013403          	ld	s0,16(sp)
    80001290:	01813083          	ld	ra,24(sp)
    80001294:	00813483          	ld	s1,8(sp)
    80001298:	03050513          	addi	a0,a0,48
    8000129c:	02010113          	addi	sp,sp,32
    800012a0:	981ff06f          	j	80000c20 <putch>

00000000800012a4 <_i2a>:
    800012a4:	00158e13          	addi	t3,a1,1
    800012a8:	00058893          	mv	a7,a1
    800012ac:	00055c63          	bgez	a0,800012c4 <_i2a+0x20>
    800012b0:	02d00713          	li	a4,45
    800012b4:	000e0893          	mv	a7,t3
    800012b8:	40a0053b          	negw	a0,a0
    800012bc:	00e58023          	sb	a4,0(a1)
    800012c0:	00258e13          	addi	t3,a1,2
    800012c4:	00900793          	li	a5,9
    800012c8:	08a7d263          	bge	a5,a0,8000134c <_i2a+0xa8>
    800012cc:	fe010113          	addi	sp,sp,-32
    800012d0:	00010313          	mv	t1,sp
    800012d4:	00030813          	mv	a6,t1
    800012d8:	00002797          	auipc	a5,0x2
    800012dc:	ce878793          	addi	a5,a5,-792 # 80002fc0 <s.1446>
    800012e0:	0080006f          	j	800012e8 <_i2a+0x44>
    800012e4:	00068813          	mv	a6,a3
    800012e8:	02c5673b          	remw	a4,a0,a2
    800012ec:	00180693          	addi	a3,a6,1
    800012f0:	02c5453b          	divw	a0,a0,a2
    800012f4:	00e78733          	add	a4,a5,a4
    800012f8:	00074703          	lbu	a4,0(a4)
    800012fc:	fee68fa3          	sb	a4,-1(a3)
    80001300:	fe0512e3          	bnez	a0,800012e4 <_i2a+0x40>
    80001304:	02680863          	beq	a6,t1,80001334 <_i2a+0x90>
    80001308:	00080793          	mv	a5,a6
    8000130c:	00088693          	mv	a3,a7
    80001310:	0080006f          	j	80001318 <_i2a+0x74>
    80001314:	0007c703          	lbu	a4,0(a5)
    80001318:	00168693          	addi	a3,a3,1
    8000131c:	fee68fa3          	sb	a4,-1(a3)
    80001320:	fff78793          	addi	a5,a5,-1
    80001324:	fe6798e3          	bne	a5,t1,80001314 <_i2a+0x70>
    80001328:	40f807b3          	sub	a5,a6,a5
    8000132c:	00f888b3          	add	a7,a7,a5
    80001330:	00188e13          	addi	t3,a7,1
    80001334:	00014783          	lbu	a5,0(sp)
    80001338:	000880a3          	sb	zero,1(a7)
    8000133c:	40be053b          	subw	a0,t3,a1
    80001340:	00f88023          	sb	a5,0(a7)
    80001344:	02010113          	addi	sp,sp,32
    80001348:	00008067          	ret
    8000134c:	00002797          	auipc	a5,0x2
    80001350:	c7478793          	addi	a5,a5,-908 # 80002fc0 <s.1446>
    80001354:	00a78533          	add	a0,a5,a0
    80001358:	00054783          	lbu	a5,0(a0)
    8000135c:	000880a3          	sb	zero,1(a7)
    80001360:	40be053b          	subw	a0,t3,a1
    80001364:	00f88023          	sb	a5,0(a7)
    80001368:	00008067          	ret

000000008000136c <printf>:
    8000136c:	f6010113          	addi	sp,sp,-160
    80001370:	08f13423          	sd	a5,136(sp)
    80001374:	06810793          	addi	a5,sp,104
    80001378:	04813823          	sd	s0,80(sp)
    8000137c:	05213023          	sd	s2,64(sp)
    80001380:	03313c23          	sd	s3,56(sp)
    80001384:	03413823          	sd	s4,48(sp)
    80001388:	03513423          	sd	s5,40(sp)
    8000138c:	03613023          	sd	s6,32(sp)
    80001390:	01713c23          	sd	s7,24(sp)
    80001394:	04113c23          	sd	ra,88(sp)
    80001398:	04913423          	sd	s1,72(sp)
    8000139c:	00050413          	mv	s0,a0
    800013a0:	06b13423          	sd	a1,104(sp)
    800013a4:	06c13823          	sd	a2,112(sp)
    800013a8:	06d13c23          	sd	a3,120(sp)
    800013ac:	08e13023          	sd	a4,128(sp)
    800013b0:	09013823          	sd	a6,144(sp)
    800013b4:	09113c23          	sd	a7,152(sp)
    800013b8:	00f13423          	sd	a5,8(sp)
    800013bc:	02500913          	li	s2,37
    800013c0:	06400993          	li	s3,100
    800013c4:	00a00b93          	li	s7,10
    800013c8:	07300a13          	li	s4,115
    800013cc:	07800b13          	li	s6,120
    800013d0:	06300a93          	li	s5,99
    800013d4:	00044503          	lbu	a0,0(s0)
    800013d8:	00050c63          	beqz	a0,800013f0 <printf+0x84>
    800013dc:	05250263          	beq	a0,s2,80001420 <printf+0xb4>
    800013e0:	841ff0ef          	jal	ra,80000c20 <putch>
    800013e4:	00140413          	addi	s0,s0,1
    800013e8:	00044503          	lbu	a0,0(s0)
    800013ec:	fe0518e3          	bnez	a0,800013dc <printf+0x70>
    800013f0:	05813083          	ld	ra,88(sp)
    800013f4:	05013403          	ld	s0,80(sp)
    800013f8:	04813483          	ld	s1,72(sp)
    800013fc:	04013903          	ld	s2,64(sp)
    80001400:	03813983          	ld	s3,56(sp)
    80001404:	03013a03          	ld	s4,48(sp)
    80001408:	02813a83          	ld	s5,40(sp)
    8000140c:	02013b03          	ld	s6,32(sp)
    80001410:	01813b83          	ld	s7,24(sp)
    80001414:	00100513          	li	a0,1
    80001418:	0a010113          	addi	sp,sp,160
    8000141c:	00008067          	ret
    80001420:	00144503          	lbu	a0,1(s0)
    80001424:	00240413          	addi	s0,s0,2
    80001428:	05350463          	beq	a0,s3,80001470 <printf+0x104>
    8000142c:	02a9f463          	bgeu	s3,a0,80001454 <printf+0xe8>
    80001430:	07450c63          	beq	a0,s4,800014a8 <printf+0x13c>
    80001434:	07651663          	bne	a0,s6,800014a0 <printf+0x134>
    80001438:	00813783          	ld	a5,8(sp)
    8000143c:	00000593          	li	a1,0
    80001440:	0007a503          	lw	a0,0(a5)
    80001444:	00878793          	addi	a5,a5,8
    80001448:	00f13423          	sd	a5,8(sp)
    8000144c:	dcdff0ef          	jal	ra,80001218 <printhex>
    80001450:	f85ff06f          	j	800013d4 <printf+0x68>
    80001454:	05551663          	bne	a0,s5,800014a0 <printf+0x134>
    80001458:	00813783          	ld	a5,8(sp)
    8000145c:	0007c503          	lbu	a0,0(a5)
    80001460:	00878793          	addi	a5,a5,8
    80001464:	00f13423          	sd	a5,8(sp)
    80001468:	fb8ff0ef          	jal	ra,80000c20 <putch>
    8000146c:	f69ff06f          	j	800013d4 <printf+0x68>
    80001470:	00813783          	ld	a5,8(sp)
    80001474:	0007a483          	lw	s1,0(a5)
    80001478:	00878793          	addi	a5,a5,8
    8000147c:	00f13423          	sd	a5,8(sp)
    80001480:	f4048ae3          	beqz	s1,800013d4 <printf+0x68>
    80001484:	0374c53b          	divw	a0,s1,s7
    80001488:	d49ff0ef          	jal	ra,800011d0 <printint>
    8000148c:	0374e53b          	remw	a0,s1,s7
    80001490:	0305051b          	addiw	a0,a0,48
    80001494:	0ff57513          	andi	a0,a0,255
    80001498:	f88ff0ef          	jal	ra,80000c20 <putch>
    8000149c:	f39ff06f          	j	800013d4 <printf+0x68>
    800014a0:	f80ff0ef          	jal	ra,80000c20 <putch>
    800014a4:	f31ff06f          	j	800013d4 <printf+0x68>
    800014a8:	00813783          	ld	a5,8(sp)
    800014ac:	0007b483          	ld	s1,0(a5)
    800014b0:	00878793          	addi	a5,a5,8
    800014b4:	00f13423          	sd	a5,8(sp)
    800014b8:	0004c503          	lbu	a0,0(s1)
    800014bc:	f0050ce3          	beqz	a0,800013d4 <printf+0x68>
    800014c0:	00148493          	addi	s1,s1,1
    800014c4:	f5cff0ef          	jal	ra,80000c20 <putch>
    800014c8:	0004c503          	lbu	a0,0(s1)
    800014cc:	f00504e3          	beqz	a0,800013d4 <printf+0x68>
    800014d0:	00148493          	addi	s1,s1,1
    800014d4:	f4cff0ef          	jal	ra,80000c20 <putch>
    800014d8:	0004c503          	lbu	a0,0(s1)
    800014dc:	fe0512e3          	bnez	a0,800014c0 <printf+0x154>
    800014e0:	ef5ff06f          	j	800013d4 <printf+0x68>

00000000800014e4 <sprintf>:
    800014e4:	f4010113          	addi	sp,sp,-192
    800014e8:	06913c23          	sd	s1,120(sp)
    800014ec:	0ae13023          	sd	a4,160(sp)
    800014f0:	08113423          	sd	ra,136(sp)
    800014f4:	08813023          	sd	s0,128(sp)
    800014f8:	07213823          	sd	s2,112(sp)
    800014fc:	07313423          	sd	s3,104(sp)
    80001500:	07413023          	sd	s4,96(sp)
    80001504:	05513c23          	sd	s5,88(sp)
    80001508:	05613823          	sd	s6,80(sp)
    8000150c:	05713423          	sd	s7,72(sp)
    80001510:	05813023          	sd	s8,64(sp)
    80001514:	03913c23          	sd	s9,56(sp)
    80001518:	03a13823          	sd	s10,48(sp)
    8000151c:	08c13823          	sd	a2,144(sp)
    80001520:	08d13c23          	sd	a3,152(sp)
    80001524:	0af13423          	sd	a5,168(sp)
    80001528:	0b013823          	sd	a6,176(sp)
    8000152c:	0b113c23          	sd	a7,184(sp)
    80001530:	0005c783          	lbu	a5,0(a1)
    80001534:	09010713          	addi	a4,sp,144
    80001538:	00e13423          	sd	a4,8(sp)
    8000153c:	00050493          	mv	s1,a0
    80001540:	14078463          	beqz	a5,80001688 <sprintf+0x1a4>
    80001544:	00058413          	mv	s0,a1
    80001548:	00050b13          	mv	s6,a0
    8000154c:	02500a13          	li	s4,37
    80001550:	06400a93          	li	s5,100
    80001554:	07300c93          	li	s9,115
    80001558:	07500c13          	li	s8,117
    8000155c:	06300b93          	li	s7,99
    80001560:	0240006f          	j	80001584 <sprintf+0xa0>
    80001564:	00090713          	mv	a4,s2
    80001568:	00f48023          	sb	a5,0(s1)
    8000156c:	00040913          	mv	s2,s0
    80001570:	00100993          	li	s3,1
    80001574:	00070413          	mv	s0,a4
    80001578:	00194783          	lbu	a5,1(s2)
    8000157c:	013484b3          	add	s1,s1,s3
    80001580:	04078463          	beqz	a5,800015c8 <sprintf+0xe4>
    80001584:	00140913          	addi	s2,s0,1
    80001588:	fd479ee3          	bne	a5,s4,80001564 <sprintf+0x80>
    8000158c:	00144783          	lbu	a5,1(s0)
    80001590:	00240413          	addi	s0,s0,2
    80001594:	0b578663          	beq	a5,s5,80001640 <sprintf+0x15c>
    80001598:	06fae863          	bltu	s5,a5,80001608 <sprintf+0x124>
    8000159c:	0f478063          	beq	a5,s4,8000167c <sprintf+0x198>
    800015a0:	0d779a63          	bne	a5,s7,80001674 <sprintf+0x190>
    800015a4:	00813783          	ld	a5,8(sp)
    800015a8:	00100993          	li	s3,1
    800015ac:	0007a703          	lw	a4,0(a5)
    800015b0:	00878793          	addi	a5,a5,8
    800015b4:	00f13423          	sd	a5,8(sp)
    800015b8:	00e48023          	sb	a4,0(s1)
    800015bc:	00194783          	lbu	a5,1(s2)
    800015c0:	013484b3          	add	s1,s1,s3
    800015c4:	fc0790e3          	bnez	a5,80001584 <sprintf+0xa0>
    800015c8:	4164853b          	subw	a0,s1,s6
    800015cc:	00048023          	sb	zero,0(s1)
    800015d0:	08813083          	ld	ra,136(sp)
    800015d4:	08013403          	ld	s0,128(sp)
    800015d8:	07813483          	ld	s1,120(sp)
    800015dc:	07013903          	ld	s2,112(sp)
    800015e0:	06813983          	ld	s3,104(sp)
    800015e4:	06013a03          	ld	s4,96(sp)
    800015e8:	05813a83          	ld	s5,88(sp)
    800015ec:	05013b03          	ld	s6,80(sp)
    800015f0:	04813b83          	ld	s7,72(sp)
    800015f4:	04013c03          	ld	s8,64(sp)
    800015f8:	03813c83          	ld	s9,56(sp)
    800015fc:	03013d03          	ld	s10,48(sp)
    80001600:	0c010113          	addi	sp,sp,192
    80001604:	00008067          	ret
    80001608:	03979a63          	bne	a5,s9,8000163c <sprintf+0x158>
    8000160c:	00813783          	ld	a5,8(sp)
    80001610:	0007bd03          	ld	s10,0(a5)
    80001614:	00878793          	addi	a5,a5,8
    80001618:	00f13423          	sd	a5,8(sp)
    8000161c:	000d0513          	mv	a0,s10
    80001620:	b25ff0ef          	jal	ra,80001144 <strlen>
    80001624:	0005099b          	sext.w	s3,a0
    80001628:	00098613          	mv	a2,s3
    8000162c:	000d0593          	mv	a1,s10
    80001630:	00048513          	mv	a0,s1
    80001634:	b7dff0ef          	jal	ra,800011b0 <memcpy>
    80001638:	f41ff06f          	j	80001578 <sprintf+0x94>
    8000163c:	03879c63          	bne	a5,s8,80001674 <sprintf+0x190>
    80001640:	00813783          	ld	a5,8(sp)
    80001644:	01010593          	addi	a1,sp,16
    80001648:	00a00613          	li	a2,10
    8000164c:	0007a503          	lw	a0,0(a5)
    80001650:	00878793          	addi	a5,a5,8
    80001654:	00f13423          	sd	a5,8(sp)
    80001658:	c4dff0ef          	jal	ra,800012a4 <_i2a>
    8000165c:	00050993          	mv	s3,a0
    80001660:	00050613          	mv	a2,a0
    80001664:	01010593          	addi	a1,sp,16
    80001668:	00048513          	mv	a0,s1
    8000166c:	b45ff0ef          	jal	ra,800011b0 <memcpy>
    80001670:	f09ff06f          	j	80001578 <sprintf+0x94>
    80001674:	00100993          	li	s3,1
    80001678:	f01ff06f          	j	80001578 <sprintf+0x94>
    8000167c:	01448023          	sb	s4,0(s1)
    80001680:	00100993          	li	s3,1
    80001684:	ef5ff06f          	j	80001578 <sprintf+0x94>
    80001688:	00000513          	li	a0,0
    8000168c:	f41ff06f          	j	800015cc <sprintf+0xe8>
