
/home/guodl/ysyx-exam/ysyx_exam/nanos-lite/build/nanos-lite-riscv64-nemu.elf:     file format elf64-littleriscv


Disassembly of section .text:

0000000080000000 <_start>:
    80000000:	00000413          	li	s0,0
    80000004:	01e0d117          	auipc	sp,0x1e0d
    80000008:	ffc10113          	addi	sp,sp,-4 # 81e0d000 <_end>
    8000000c:	439000ef          	jal	ra,80000c44 <_trm_init>

0000000080000010 <ramdisk_read>:
    80000010:	ff010113          	addi	sp,sp,-16
    80000014:	00003717          	auipc	a4,0x3
    80000018:	00570713          	addi	a4,a4,5 # 80003019 <ramdisk_start>
    8000001c:	01dfa797          	auipc	a5,0x1dfa
    80000020:	3fd78793          	addi	a5,a5,1021 # 81dfa419 <_data>
    80000024:	00113423          	sd	ra,8(sp)
    80000028:	00813023          	sd	s0,0(sp)
    8000002c:	00c586b3          	add	a3,a1,a2
    80000030:	40e787b3          	sub	a5,a5,a4
    80000034:	02d7e263          	bltu	a5,a3,80000058 <ramdisk_read+0x48>
    80000038:	00b705b3          	add	a1,a4,a1
    8000003c:	00060413          	mv	s0,a2
    80000040:	160010ef          	jal	ra,800011a0 <memcpy>
    80000044:	00040513          	mv	a0,s0
    80000048:	00813083          	ld	ra,8(sp)
    8000004c:	00013403          	ld	s0,0(sp)
    80000050:	01010113          	addi	sp,sp,16
    80000054:	00008067          	ret
    80000058:	00002717          	auipc	a4,0x2
    8000005c:	c2870713          	addi	a4,a4,-984 # 80001c80 <__func__.1404+0x60>
    80000060:	00002697          	auipc	a3,0x2
    80000064:	ba068693          	addi	a3,a3,-1120 # 80001c00 <__func__.1395>
    80000068:	00e00613          	li	a2,14
    8000006c:	00002597          	auipc	a1,0x2
    80000070:	c3458593          	addi	a1,a1,-972 # 80001ca0 <__func__.1404+0x80>
    80000074:	00002517          	auipc	a0,0x2
    80000078:	c6c50513          	addi	a0,a0,-916 # 80001ce0 <__func__.1404+0xc0>
    8000007c:	2e0010ef          	jal	ra,8000135c <printf>
    80000080:	00100513          	li	a0,1
    80000084:	3b5000ef          	jal	ra,80000c38 <halt>

0000000080000088 <ramdisk_write>:
    80000088:	ff010113          	addi	sp,sp,-16
    8000008c:	00003697          	auipc	a3,0x3
    80000090:	f8d68693          	addi	a3,a3,-115 # 80003019 <ramdisk_start>
    80000094:	01dfa797          	auipc	a5,0x1dfa
    80000098:	38578793          	addi	a5,a5,901 # 81dfa419 <_data>
    8000009c:	00113423          	sd	ra,8(sp)
    800000a0:	00813023          	sd	s0,0(sp)
    800000a4:	00c58833          	add	a6,a1,a2
    800000a8:	40d787b3          	sub	a5,a5,a3
    800000ac:	0307e663          	bltu	a5,a6,800000d8 <ramdisk_write+0x50>
    800000b0:	00058713          	mv	a4,a1
    800000b4:	00050593          	mv	a1,a0
    800000b8:	00e68533          	add	a0,a3,a4
    800000bc:	00060413          	mv	s0,a2
    800000c0:	0e0010ef          	jal	ra,800011a0 <memcpy>
    800000c4:	00040513          	mv	a0,s0
    800000c8:	00813083          	ld	ra,8(sp)
    800000cc:	00013403          	ld	s0,0(sp)
    800000d0:	01010113          	addi	sp,sp,16
    800000d4:	00008067          	ret
    800000d8:	00002717          	auipc	a4,0x2
    800000dc:	ba870713          	addi	a4,a4,-1112 # 80001c80 <__func__.1404+0x60>
    800000e0:	00002697          	auipc	a3,0x2
    800000e4:	b3068693          	addi	a3,a3,-1232 # 80001c10 <__func__.1401>
    800000e8:	01500613          	li	a2,21
    800000ec:	00002597          	auipc	a1,0x2
    800000f0:	bb458593          	addi	a1,a1,-1100 # 80001ca0 <__func__.1404+0x80>
    800000f4:	00002517          	auipc	a0,0x2
    800000f8:	bec50513          	addi	a0,a0,-1044 # 80001ce0 <__func__.1404+0xc0>
    800000fc:	260010ef          	jal	ra,8000135c <printf>
    80000100:	00100513          	li	a0,1
    80000104:	335000ef          	jal	ra,80000c38 <halt>

0000000080000108 <init_ramdisk>:
    80000108:	01dfa797          	auipc	a5,0x1dfa
    8000010c:	31178793          	addi	a5,a5,785 # 81dfa419 <_data>
    80000110:	00003717          	auipc	a4,0x3
    80000114:	f0970713          	addi	a4,a4,-247 # 80003019 <ramdisk_start>
    80000118:	40e78833          	sub	a6,a5,a4
    8000011c:	00002697          	auipc	a3,0x2
    80000120:	b0468693          	addi	a3,a3,-1276 # 80001c20 <__func__.1404>
    80000124:	01c00613          	li	a2,28
    80000128:	00002597          	auipc	a1,0x2
    8000012c:	b7858593          	addi	a1,a1,-1160 # 80001ca0 <__func__.1404+0x80>
    80000130:	00002517          	auipc	a0,0x2
    80000134:	b0050513          	addi	a0,a0,-1280 # 80001c30 <__func__.1404+0x10>
    80000138:	2240106f          	j	8000135c <printf>

000000008000013c <main>:
    8000013c:	ff010113          	addi	sp,sp,-16
    80000140:	00001597          	auipc	a1,0x1
    80000144:	54058593          	addi	a1,a1,1344 # 80001680 <_etext>
    80000148:	00002517          	auipc	a0,0x2
    8000014c:	be050513          	addi	a0,a0,-1056 # 80001d28 <__func__.1404+0x108>
    80000150:	00113423          	sd	ra,8(sp)
    80000154:	00813023          	sd	s0,0(sp)
    80000158:	204010ef          	jal	ra,8000135c <printf>
    8000015c:	00003417          	auipc	s0,0x3
    80000160:	ea440413          	addi	s0,s0,-348 # 80003000 <__func__.1403>
    80000164:	00040693          	mv	a3,s0
    80000168:	00d00613          	li	a2,13
    8000016c:	00002597          	auipc	a1,0x2
    80000170:	bc458593          	addi	a1,a1,-1084 # 80001d30 <__func__.1404+0x110>
    80000174:	00002517          	auipc	a0,0x2
    80000178:	bf450513          	addi	a0,a0,-1036 # 80001d68 <__func__.1404+0x148>
    8000017c:	1e0010ef          	jal	ra,8000135c <printf>
    80000180:	00002797          	auipc	a5,0x2
    80000184:	c2078793          	addi	a5,a5,-992 # 80001da0 <__func__.1404+0x180>
    80000188:	00002717          	auipc	a4,0x2
    8000018c:	c2870713          	addi	a4,a4,-984 # 80001db0 <__func__.1404+0x190>
    80000190:	00e00613          	li	a2,14
    80000194:	00002597          	auipc	a1,0x2
    80000198:	b9c58593          	addi	a1,a1,-1124 # 80001d30 <__func__.1404+0x110>
    8000019c:	00040693          	mv	a3,s0
    800001a0:	00002517          	auipc	a0,0x2
    800001a4:	c2050513          	addi	a0,a0,-992 # 80001dc0 <__func__.1404+0x1a0>
    800001a8:	1b4010ef          	jal	ra,8000135c <printf>
    800001ac:	120000ef          	jal	ra,800002cc <init_mm>
    800001b0:	0e1000ef          	jal	ra,80000a90 <init_device>
    800001b4:	f55ff0ef          	jal	ra,80000108 <init_ramdisk>
    800001b8:	0d8000ef          	jal	ra,80000290 <init_irq>
    800001bc:	1b0000ef          	jal	ra,8000036c <init_fs>
    800001c0:	570000ef          	jal	ra,80000730 <init_proc>
    800001c4:	00040693          	mv	a3,s0
    800001c8:	01e00613          	li	a2,30
    800001cc:	00002597          	auipc	a1,0x2
    800001d0:	b6458593          	addi	a1,a1,-1180 # 80001d30 <__func__.1404+0x110>
    800001d4:	00002517          	auipc	a0,0x2
    800001d8:	c1c50513          	addi	a0,a0,-996 # 80001df0 <__func__.1404+0x1d0>
    800001dc:	180010ef          	jal	ra,8000135c <printf>
    800001e0:	609000ef          	jal	ra,80000fe8 <yield>
    800001e4:	00040693          	mv	a3,s0
    800001e8:	02400613          	li	a2,36
    800001ec:	00002597          	auipc	a1,0x2
    800001f0:	b4458593          	addi	a1,a1,-1212 # 80001d30 <__func__.1404+0x110>
    800001f4:	00002517          	auipc	a0,0x2
    800001f8:	c2c50513          	addi	a0,a0,-980 # 80001e20 <__func__.1404+0x200>
    800001fc:	160010ef          	jal	ra,8000135c <printf>
    80000200:	00100513          	li	a0,1
    80000204:	235000ef          	jal	ra,80000c38 <halt>

0000000080000208 <do_event>:
    80000208:	00052703          	lw	a4,0(a0)
    8000020c:	ff010113          	addi	sp,sp,-16
    80000210:	00813023          	sd	s0,0(sp)
    80000214:	00113423          	sd	ra,8(sp)
    80000218:	00100793          	li	a5,1
    8000021c:	00058413          	mv	s0,a1
    80000220:	02f70463          	beq	a4,a5,80000248 <do_event+0x40>
    80000224:	00200793          	li	a5,2
    80000228:	04f71063          	bne	a4,a5,80000268 <do_event+0x60>
    8000022c:	00058513          	mv	a0,a1
    80000230:	550000ef          	jal	ra,80000780 <do_syscall>
    80000234:	00040513          	mv	a0,s0
    80000238:	00813083          	ld	ra,8(sp)
    8000023c:	00013403          	ld	s0,0(sp)
    80000240:	01010113          	addi	sp,sp,16
    80000244:	00008067          	ret
    80000248:	00002517          	auipc	a0,0x2
    8000024c:	c4050513          	addi	a0,a0,-960 # 80001e88 <__func__.1402+0x10>
    80000250:	10c010ef          	jal	ra,8000135c <printf>
    80000254:	00040513          	mv	a0,s0
    80000258:	00813083          	ld	ra,8(sp)
    8000025c:	00013403          	ld	s0,0(sp)
    80000260:	01010113          	addi	sp,sp,16
    80000264:	00008067          	ret
    80000268:	00002697          	auipc	a3,0x2
    8000026c:	c0068693          	addi	a3,a3,-1024 # 80001e68 <__func__.1398>
    80000270:	00700613          	li	a2,7
    80000274:	00002597          	auipc	a1,0x2
    80000278:	c1c58593          	addi	a1,a1,-996 # 80001e90 <__func__.1402+0x18>
    8000027c:	00002517          	auipc	a0,0x2
    80000280:	c4c50513          	addi	a0,a0,-948 # 80001ec8 <__func__.1402+0x50>
    80000284:	0d8010ef          	jal	ra,8000135c <printf>
    80000288:	00100513          	li	a0,1
    8000028c:	1ad000ef          	jal	ra,80000c38 <halt>

0000000080000290 <init_irq>:
    80000290:	ff010113          	addi	sp,sp,-16
    80000294:	00002697          	auipc	a3,0x2
    80000298:	be468693          	addi	a3,a3,-1052 # 80001e78 <__func__.1402>
    8000029c:	00e00613          	li	a2,14
    800002a0:	00002597          	auipc	a1,0x2
    800002a4:	bf058593          	addi	a1,a1,-1040 # 80001e90 <__func__.1402+0x18>
    800002a8:	00002517          	auipc	a0,0x2
    800002ac:	c6850513          	addi	a0,a0,-920 # 80001f10 <__func__.1402+0x98>
    800002b0:	00113423          	sd	ra,8(sp)
    800002b4:	0a8010ef          	jal	ra,8000135c <printf>
    800002b8:	00813083          	ld	ra,8(sp)
    800002bc:	00000517          	auipc	a0,0x0
    800002c0:	f4c50513          	addi	a0,a0,-180 # 80000208 <do_event>
    800002c4:	01010113          	addi	sp,sp,16
    800002c8:	5010006f          	j	80000fc8 <cte_init>

00000000800002cc <init_mm>:
    800002cc:	01dfb797          	auipc	a5,0x1dfb
    800002d0:	6d478793          	addi	a5,a5,1748 # 81dfb9a0 <heap>
    800002d4:	0007b783          	ld	a5,0(a5)
    800002d8:	00001737          	lui	a4,0x1
    800002dc:	fff70713          	addi	a4,a4,-1 # fff <_entry_offset+0xfff>
    800002e0:	00e787b3          	add	a5,a5,a4
    800002e4:	fffff737          	lui	a4,0xfffff
    800002e8:	00e7f733          	and	a4,a5,a4
    800002ec:	00003697          	auipc	a3,0x3
    800002f0:	d1c68693          	addi	a3,a3,-740 # 80003008 <__func__.1403>
    800002f4:	01a00613          	li	a2,26
    800002f8:	00002597          	auipc	a1,0x2
    800002fc:	c6058593          	addi	a1,a1,-928 # 80001f58 <__func__.1402+0xe0>
    80000300:	00002517          	auipc	a0,0x2
    80000304:	cd050513          	addi	a0,a0,-816 # 80001fd0 <__func__.1402+0x158>
    80000308:	0540106f          	j	8000135c <printf>

000000008000030c <invalid_read>:
    8000030c:	ff010113          	addi	sp,sp,-16
    80000310:	00002697          	auipc	a3,0x2
    80000314:	d0068693          	addi	a3,a3,-768 # 80002010 <__func__.1474>
    80000318:	01a00613          	li	a2,26
    8000031c:	00002597          	auipc	a1,0x2
    80000320:	dc458593          	addi	a1,a1,-572 # 800020e0 <__func__.1514+0xa0>
    80000324:	00002517          	auipc	a0,0x2
    80000328:	df450513          	addi	a0,a0,-524 # 80002118 <__func__.1514+0xd8>
    8000032c:	00113423          	sd	ra,8(sp)
    80000330:	02c010ef          	jal	ra,8000135c <printf>
    80000334:	00100513          	li	a0,1
    80000338:	101000ef          	jal	ra,80000c38 <halt>

000000008000033c <invalid_write>:
    8000033c:	ff010113          	addi	sp,sp,-16
    80000340:	00002697          	auipc	a3,0x2
    80000344:	ce068693          	addi	a3,a3,-800 # 80002020 <__func__.1480>
    80000348:	01f00613          	li	a2,31
    8000034c:	00002597          	auipc	a1,0x2
    80000350:	d9458593          	addi	a1,a1,-620 # 800020e0 <__func__.1514+0xa0>
    80000354:	00002517          	auipc	a0,0x2
    80000358:	e0c50513          	addi	a0,a0,-500 # 80002160 <__func__.1514+0x120>
    8000035c:	00113423          	sd	ra,8(sp)
    80000360:	7fd000ef          	jal	ra,8000135c <printf>
    80000364:	00100513          	li	a0,1
    80000368:	0d1000ef          	jal	ra,80000c38 <halt>

000000008000036c <init_fs>:
    8000036c:	fd010113          	addi	sp,sp,-48
    80000370:	00010593          	mv	a1,sp
    80000374:	00900513          	li	a0,9
    80000378:	02813023          	sd	s0,32(sp)
    8000037c:	00913c23          	sd	s1,24(sp)
    80000380:	02113423          	sd	ra,40(sp)
    80000384:	1d1000ef          	jal	ra,80000d54 <ioe_read>
    80000388:	01dfa797          	auipc	a5,0x1dfa
    8000038c:	09878793          	addi	a5,a5,152 # 81dfa420 <file_table>
    80000390:	0907b503          	ld	a0,144(a5)
    80000394:	00002597          	auipc	a1,0x2
    80000398:	d1458593          	addi	a1,a1,-748 # 800020a8 <__func__.1514+0x68>
    8000039c:	00412403          	lw	s0,4(sp)
    800003a0:	00812483          	lw	s1,8(sp)
    800003a4:	5b9000ef          	jal	ra,8000115c <strcmp>
    800003a8:	02051663          	bnez	a0,800003d4 <init_fs+0x68>
    800003ac:	0294043b          	mulw	s0,s0,s1
    800003b0:	02813083          	ld	ra,40(sp)
    800003b4:	01813483          	ld	s1,24(sp)
    800003b8:	0024141b          	slliw	s0,s0,0x2
    800003bc:	01040413          	addi	s0,s0,16
    800003c0:	01dfa797          	auipc	a5,0x1dfa
    800003c4:	0e87bc23          	sd	s0,248(a5) # 81dfa4b8 <file_table+0x98>
    800003c8:	02013403          	ld	s0,32(sp)
    800003cc:	03010113          	addi	sp,sp,48
    800003d0:	00008067          	ret
    800003d4:	00002717          	auipc	a4,0x2
    800003d8:	cdc70713          	addi	a4,a4,-804 # 800020b0 <__func__.1514+0x70>
    800003dc:	00003697          	auipc	a3,0x3
    800003e0:	c3468693          	addi	a3,a3,-972 # 80003010 <__func__.1487>
    800003e4:	03700613          	li	a2,55
    800003e8:	00002597          	auipc	a1,0x2
    800003ec:	cf858593          	addi	a1,a1,-776 # 800020e0 <__func__.1514+0xa0>
    800003f0:	00002517          	auipc	a0,0x2
    800003f4:	8f050513          	addi	a0,a0,-1808 # 80001ce0 <__func__.1404+0xc0>
    800003f8:	765000ef          	jal	ra,8000135c <printf>
    800003fc:	00100513          	li	a0,1
    80000400:	039000ef          	jal	ra,80000c38 <halt>

0000000080000404 <fs_open>:
    80000404:	fd010113          	addi	sp,sp,-48
    80000408:	01213823          	sd	s2,16(sp)
    8000040c:	01313423          	sd	s3,8(sp)
    80000410:	00050593          	mv	a1,a0
    80000414:	00050913          	mv	s2,a0
    80000418:	01dfa997          	auipc	s3,0x1dfa
    8000041c:	00898993          	addi	s3,s3,8 # 81dfa420 <file_table>
    80000420:	00002517          	auipc	a0,0x2
    80000424:	c3850513          	addi	a0,a0,-968 # 80002058 <__func__.1514+0x18>
    80000428:	02813023          	sd	s0,32(sp)
    8000042c:	00913c23          	sd	s1,24(sp)
    80000430:	02113423          	sd	ra,40(sp)
    80000434:	00098413          	mv	s0,s3
    80000438:	725000ef          	jal	ra,8000135c <printf>
    8000043c:	00000493          	li	s1,0
    80000440:	0080006f          	j	80000448 <fs_open+0x44>
    80000444:	0014849b          	addiw	s1,s1,1
    80000448:	00043503          	ld	a0,0(s0)
    8000044c:	00090593          	mv	a1,s2
    80000450:	03040413          	addi	s0,s0,48
    80000454:	509000ef          	jal	ra,8000115c <strcmp>
    80000458:	fe0516e3          	bnez	a0,80000444 <fs_open+0x40>
    8000045c:	00149793          	slli	a5,s1,0x1
    80000460:	009787b3          	add	a5,a5,s1
    80000464:	02813083          	ld	ra,40(sp)
    80000468:	02013403          	ld	s0,32(sp)
    8000046c:	00479793          	slli	a5,a5,0x4
    80000470:	00f987b3          	add	a5,s3,a5
    80000474:	0207b423          	sd	zero,40(a5)
    80000478:	00048513          	mv	a0,s1
    8000047c:	01013903          	ld	s2,16(sp)
    80000480:	01813483          	ld	s1,24(sp)
    80000484:	00813983          	ld	s3,8(sp)
    80000488:	03010113          	addi	sp,sp,48
    8000048c:	00008067          	ret

0000000080000490 <fs_read>:
    80000490:	00050713          	mv	a4,a0
    80000494:	00500793          	li	a5,5
    80000498:	00058513          	mv	a0,a1
    8000049c:	02e7c463          	blt	a5,a4,800004c4 <fs_read+0x34>
    800004a0:	00171793          	slli	a5,a4,0x1
    800004a4:	00e787b3          	add	a5,a5,a4
    800004a8:	00479793          	slli	a5,a5,0x4
    800004ac:	01dfa717          	auipc	a4,0x1dfa
    800004b0:	f7470713          	addi	a4,a4,-140 # 81dfa420 <file_table>
    800004b4:	00f707b3          	add	a5,a4,a5
    800004b8:	0187b303          	ld	t1,24(a5)
    800004bc:	00000593          	li	a1,0
    800004c0:	00030067          	jr	t1
    800004c4:	00070793          	mv	a5,a4
    800004c8:	00171713          	slli	a4,a4,0x1
    800004cc:	fe010113          	addi	sp,sp,-32
    800004d0:	00f707b3          	add	a5,a4,a5
    800004d4:	00479793          	slli	a5,a5,0x4
    800004d8:	00913423          	sd	s1,8(sp)
    800004dc:	01dfa497          	auipc	s1,0x1dfa
    800004e0:	f4448493          	addi	s1,s1,-188 # 81dfa420 <file_table>
    800004e4:	00f484b3          	add	s1,s1,a5
    800004e8:	0284b583          	ld	a1,40(s1)
    800004ec:	01213023          	sd	s2,0(sp)
    800004f0:	0084b903          	ld	s2,8(s1)
    800004f4:	0104b783          	ld	a5,16(s1)
    800004f8:	00813823          	sd	s0,16(sp)
    800004fc:	40b90933          	sub	s2,s2,a1
    80000500:	00113c23          	sd	ra,24(sp)
    80000504:	00060413          	mv	s0,a2
    80000508:	00f585b3          	add	a1,a1,a5
    8000050c:	02c96a63          	bltu	s2,a2,80000540 <fs_read+0xb0>
    80000510:	b01ff0ef          	jal	ra,80000010 <ramdisk_read>
    80000514:	0284b683          	ld	a3,40(s1)
    80000518:	00040913          	mv	s2,s0
    8000051c:	008686b3          	add	a3,a3,s0
    80000520:	02d4b423          	sd	a3,40(s1)
    80000524:	01813083          	ld	ra,24(sp)
    80000528:	01013403          	ld	s0,16(sp)
    8000052c:	00090513          	mv	a0,s2
    80000530:	00813483          	ld	s1,8(sp)
    80000534:	00013903          	ld	s2,0(sp)
    80000538:	02010113          	addi	sp,sp,32
    8000053c:	00008067          	ret
    80000540:	00090613          	mv	a2,s2
    80000544:	acdff0ef          	jal	ra,80000010 <ramdisk_read>
    80000548:	0284b783          	ld	a5,40(s1)
    8000054c:	012787b3          	add	a5,a5,s2
    80000550:	02f4b423          	sd	a5,40(s1)
    80000554:	fd1ff06f          	j	80000524 <fs_read+0x94>

0000000080000558 <fs_write>:
    80000558:	00050713          	mv	a4,a0
    8000055c:	00500793          	li	a5,5
    80000560:	00058513          	mv	a0,a1
    80000564:	02e7c463          	blt	a5,a4,8000058c <fs_write+0x34>
    80000568:	00171793          	slli	a5,a4,0x1
    8000056c:	00e787b3          	add	a5,a5,a4
    80000570:	00479793          	slli	a5,a5,0x4
    80000574:	01dfa717          	auipc	a4,0x1dfa
    80000578:	eac70713          	addi	a4,a4,-340 # 81dfa420 <file_table>
    8000057c:	00f707b3          	add	a5,a4,a5
    80000580:	0207b303          	ld	t1,32(a5)
    80000584:	00000593          	li	a1,0
    80000588:	00030067          	jr	t1
    8000058c:	00070793          	mv	a5,a4
    80000590:	00171713          	slli	a4,a4,0x1
    80000594:	fe010113          	addi	sp,sp,-32
    80000598:	00f707b3          	add	a5,a4,a5
    8000059c:	00479793          	slli	a5,a5,0x4
    800005a0:	00913423          	sd	s1,8(sp)
    800005a4:	01dfa497          	auipc	s1,0x1dfa
    800005a8:	e7c48493          	addi	s1,s1,-388 # 81dfa420 <file_table>
    800005ac:	00f484b3          	add	s1,s1,a5
    800005b0:	0084b783          	ld	a5,8(s1)
    800005b4:	0284b583          	ld	a1,40(s1)
    800005b8:	00813823          	sd	s0,16(sp)
    800005bc:	01213023          	sd	s2,0(sp)
    800005c0:	00113c23          	sd	ra,24(sp)
    800005c4:	00060413          	mv	s0,a2
    800005c8:	40b78933          	sub	s2,a5,a1
    800005cc:	04c7ec63          	bltu	a5,a2,80000624 <fs_write+0xcc>
    800005d0:	0104b783          	ld	a5,16(s1)
    800005d4:	00f585b3          	add	a1,a1,a5
    800005d8:	02c96a63          	bltu	s2,a2,8000060c <fs_write+0xb4>
    800005dc:	aadff0ef          	jal	ra,80000088 <ramdisk_write>
    800005e0:	0284b683          	ld	a3,40(s1)
    800005e4:	00040913          	mv	s2,s0
    800005e8:	008686b3          	add	a3,a3,s0
    800005ec:	02d4b423          	sd	a3,40(s1)
    800005f0:	01813083          	ld	ra,24(sp)
    800005f4:	01013403          	ld	s0,16(sp)
    800005f8:	00090513          	mv	a0,s2
    800005fc:	00813483          	ld	s1,8(sp)
    80000600:	00013903          	ld	s2,0(sp)
    80000604:	02010113          	addi	sp,sp,32
    80000608:	00008067          	ret
    8000060c:	00090613          	mv	a2,s2
    80000610:	a79ff0ef          	jal	ra,80000088 <ramdisk_write>
    80000614:	0284b783          	ld	a5,40(s1)
    80000618:	012787b3          	add	a5,a5,s2
    8000061c:	02f4b423          	sd	a5,40(s1)
    80000620:	fd1ff06f          	j	800005f0 <fs_write+0x98>
    80000624:	00002697          	auipc	a3,0x2
    80000628:	a0c68693          	addi	a3,a3,-1524 # 80002030 <__func__.1508>
    8000062c:	06e00613          	li	a2,110
    80000630:	00002597          	auipc	a1,0x2
    80000634:	ab058593          	addi	a1,a1,-1360 # 800020e0 <__func__.1514+0xa0>
    80000638:	00002517          	auipc	a0,0x2
    8000063c:	a3050513          	addi	a0,a0,-1488 # 80002068 <__func__.1514+0x28>
    80000640:	51d000ef          	jal	ra,8000135c <printf>
    80000644:	00100513          	li	a0,1
    80000648:	5f0000ef          	jal	ra,80000c38 <halt>

000000008000064c <fs_lseek>:
    8000064c:	02060e63          	beqz	a2,80000688 <fs_lseek+0x3c>
    80000650:	00100793          	li	a5,1
    80000654:	04f60c63          	beq	a2,a5,800006ac <fs_lseek+0x60>
    80000658:	00200793          	li	a5,2
    8000065c:	06f61c63          	bne	a2,a5,800006d4 <fs_lseek+0x88>
    80000660:	00151793          	slli	a5,a0,0x1
    80000664:	00a78533          	add	a0,a5,a0
    80000668:	00451513          	slli	a0,a0,0x4
    8000066c:	01dfa797          	auipc	a5,0x1dfa
    80000670:	db478793          	addi	a5,a5,-588 # 81dfa420 <file_table>
    80000674:	00a787b3          	add	a5,a5,a0
    80000678:	0087b503          	ld	a0,8(a5)
    8000067c:	00a58533          	add	a0,a1,a0
    80000680:	02a7b423          	sd	a0,40(a5)
    80000684:	00008067          	ret
    80000688:	00151793          	slli	a5,a0,0x1
    8000068c:	00a78533          	add	a0,a5,a0
    80000690:	00451513          	slli	a0,a0,0x4
    80000694:	01dfa797          	auipc	a5,0x1dfa
    80000698:	d8c78793          	addi	a5,a5,-628 # 81dfa420 <file_table>
    8000069c:	00a78533          	add	a0,a5,a0
    800006a0:	02b53423          	sd	a1,40(a0)
    800006a4:	00058513          	mv	a0,a1
    800006a8:	00008067          	ret
    800006ac:	00151793          	slli	a5,a0,0x1
    800006b0:	00a78533          	add	a0,a5,a0
    800006b4:	00451513          	slli	a0,a0,0x4
    800006b8:	01dfa797          	auipc	a5,0x1dfa
    800006bc:	d6878793          	addi	a5,a5,-664 # 81dfa420 <file_table>
    800006c0:	00a787b3          	add	a5,a5,a0
    800006c4:	0287b503          	ld	a0,40(a5)
    800006c8:	00a58533          	add	a0,a1,a0
    800006cc:	02a7b423          	sd	a0,40(a5)
    800006d0:	00008067          	ret
    800006d4:	ff010113          	addi	sp,sp,-16
    800006d8:	00002717          	auipc	a4,0x2
    800006dc:	97870713          	addi	a4,a4,-1672 # 80002050 <__func__.1514+0x10>
    800006e0:	00002697          	auipc	a3,0x2
    800006e4:	96068693          	addi	a3,a3,-1696 # 80002040 <__func__.1514>
    800006e8:	08600613          	li	a2,134
    800006ec:	00002597          	auipc	a1,0x2
    800006f0:	9f458593          	addi	a1,a1,-1548 # 800020e0 <__func__.1514+0xa0>
    800006f4:	00001517          	auipc	a0,0x1
    800006f8:	5ec50513          	addi	a0,a0,1516 # 80001ce0 <__func__.1404+0xc0>
    800006fc:	00113423          	sd	ra,8(sp)
    80000700:	45d000ef          	jal	ra,8000135c <printf>
    80000704:	00100513          	li	a0,1
    80000708:	530000ef          	jal	ra,80000c38 <halt>

000000008000070c <fs_close>:
    8000070c:	00151793          	slli	a5,a0,0x1
    80000710:	00a78533          	add	a0,a5,a0
    80000714:	00451513          	slli	a0,a0,0x4
    80000718:	01dfa797          	auipc	a5,0x1dfa
    8000071c:	d0878793          	addi	a5,a5,-760 # 81dfa420 <file_table>
    80000720:	00a78533          	add	a0,a5,a0
    80000724:	02053423          	sd	zero,40(a0)
    80000728:	00000513          	li	a0,0
    8000072c:	00008067          	ret

0000000080000730 <init_proc>:
    80000730:	ff010113          	addi	sp,sp,-16
    80000734:	00002597          	auipc	a1,0x2
    80000738:	22458593          	addi	a1,a1,548 # 80002958 <__func__.1439+0x10>
    8000073c:	01dfc797          	auipc	a5,0x1dfc
    80000740:	8c478793          	addi	a5,a5,-1852 # 81dfc000 <_bss_start>
    80000744:	00002697          	auipc	a3,0x2
    80000748:	20468693          	addi	a3,a3,516 # 80002948 <__func__.1439>
    8000074c:	01900613          	li	a2,25
    80000750:	00002517          	auipc	a0,0x2
    80000754:	29850513          	addi	a0,a0,664 # 800029e8 <__func__.1439+0xa0>
    80000758:	00113423          	sd	ra,8(sp)
    8000075c:	01e04717          	auipc	a4,0x1e04
    80000760:	8af73223          	sd	a5,-1884(a4) # 81e04000 <current>
    80000764:	3f9000ef          	jal	ra,8000135c <printf>
    80000768:	00813083          	ld	ra,8(sp)
    8000076c:	00002597          	auipc	a1,0x2
    80000770:	1c458593          	addi	a1,a1,452 # 80002930 <__func__.1514+0x8f0>
    80000774:	00000513          	li	a0,0
    80000778:	01010113          	addi	sp,sp,16
    8000077c:	3480006f          	j	80000ac4 <naive_uload>

0000000080000780 <do_syscall>:
    80000780:	08853703          	ld	a4,136(a0)
    80000784:	fe010113          	addi	sp,sp,-32
    80000788:	00813823          	sd	s0,16(sp)
    8000078c:	00113c23          	sd	ra,24(sp)
    80000790:	00050413          	mv	s0,a0
    80000794:	01300793          	li	a5,19
    80000798:	05053503          	ld	a0,80(a0)
    8000079c:	05843583          	ld	a1,88(s0)
    800007a0:	06043603          	ld	a2,96(s0)
    800007a4:	10e7e263          	bltu	a5,a4,800008a8 <do_syscall+0x128>
    800007a8:	00002817          	auipc	a6,0x2
    800007ac:	27480813          	addi	a6,a6,628 # 80002a1c <__func__.1439+0xd4>
    800007b0:	00271693          	slli	a3,a4,0x2
    800007b4:	010686b3          	add	a3,a3,a6
    800007b8:	0006a783          	lw	a5,0(a3)
    800007bc:	010787b3          	add	a5,a5,a6
    800007c0:	00078067          	jr	a5
    800007c4:	00810593          	addi	a1,sp,8
    800007c8:	00600513          	li	a0,6
    800007cc:	588000ef          	jal	ra,80000d54 <ioe_read>
    800007d0:	00813783          	ld	a5,8(sp)
    800007d4:	01813083          	ld	ra,24(sp)
    800007d8:	04f43823          	sd	a5,80(s0)
    800007dc:	01013403          	ld	s0,16(sp)
    800007e0:	02010113          	addi	sp,sp,32
    800007e4:	00008067          	ret
    800007e8:	001000ef          	jal	ra,80000fe8 <yield>
    800007ec:	01813083          	ld	ra,24(sp)
    800007f0:	04043823          	sd	zero,80(s0)
    800007f4:	01013403          	ld	s0,16(sp)
    800007f8:	02010113          	addi	sp,sp,32
    800007fc:	00008067          	ret
    80000800:	c05ff0ef          	jal	ra,80000404 <fs_open>
    80000804:	04a43823          	sd	a0,80(s0)
    80000808:	01813083          	ld	ra,24(sp)
    8000080c:	01013403          	ld	s0,16(sp)
    80000810:	02010113          	addi	sp,sp,32
    80000814:	00008067          	ret
    80000818:	0005051b          	sext.w	a0,a0
    8000081c:	c75ff0ef          	jal	ra,80000490 <fs_read>
    80000820:	04a43823          	sd	a0,80(s0)
    80000824:	01813083          	ld	ra,24(sp)
    80000828:	01013403          	ld	s0,16(sp)
    8000082c:	02010113          	addi	sp,sp,32
    80000830:	00008067          	ret
    80000834:	0005051b          	sext.w	a0,a0
    80000838:	d21ff0ef          	jal	ra,80000558 <fs_write>
    8000083c:	04a43823          	sd	a0,80(s0)
    80000840:	01813083          	ld	ra,24(sp)
    80000844:	01013403          	ld	s0,16(sp)
    80000848:	02010113          	addi	sp,sp,32
    8000084c:	00008067          	ret
    80000850:	0005051b          	sext.w	a0,a0
    80000854:	eb9ff0ef          	jal	ra,8000070c <fs_close>
    80000858:	04a43823          	sd	a0,80(s0)
    8000085c:	01813083          	ld	ra,24(sp)
    80000860:	01013403          	ld	s0,16(sp)
    80000864:	02010113          	addi	sp,sp,32
    80000868:	00008067          	ret
    8000086c:	0006061b          	sext.w	a2,a2
    80000870:	0005051b          	sext.w	a0,a0
    80000874:	dd9ff0ef          	jal	ra,8000064c <fs_lseek>
    80000878:	04a43823          	sd	a0,80(s0)
    8000087c:	01813083          	ld	ra,24(sp)
    80000880:	01013403          	ld	s0,16(sp)
    80000884:	02010113          	addi	sp,sp,32
    80000888:	00008067          	ret
    8000088c:	04043823          	sd	zero,80(s0)
    80000890:	01813083          	ld	ra,24(sp)
    80000894:	01013403          	ld	s0,16(sp)
    80000898:	02010113          	addi	sp,sp,32
    8000089c:	00008067          	ret
    800008a0:	0005051b          	sext.w	a0,a0
    800008a4:	394000ef          	jal	ra,80000c38 <halt>
    800008a8:	00002697          	auipc	a3,0x2
    800008ac:	1c868693          	addi	a3,a3,456 # 80002a70 <__func__.1450>
    800008b0:	02700613          	li	a2,39
    800008b4:	00002597          	auipc	a1,0x2
    800008b8:	1cc58593          	addi	a1,a1,460 # 80002a80 <__func__.1450+0x10>
    800008bc:	00002517          	auipc	a0,0x2
    800008c0:	20450513          	addi	a0,a0,516 # 80002ac0 <__func__.1450+0x50>
    800008c4:	299000ef          	jal	ra,8000135c <printf>
    800008c8:	00100513          	li	a0,1
    800008cc:	36c000ef          	jal	ra,80000c38 <halt>

00000000800008d0 <serial_write>:
    800008d0:	fe010113          	addi	sp,sp,-32
    800008d4:	00113c23          	sd	ra,24(sp)
    800008d8:	00813823          	sd	s0,16(sp)
    800008dc:	00913423          	sd	s1,8(sp)
    800008e0:	01213023          	sd	s2,0(sp)
    800008e4:	04060a63          	beqz	a2,80000938 <serial_write+0x68>
    800008e8:	00050413          	mv	s0,a0
    800008ec:	00054503          	lbu	a0,0(a0)
    800008f0:	04050463          	beqz	a0,80000938 <serial_write+0x68>
    800008f4:	00060913          	mv	s2,a2
    800008f8:	00140413          	addi	s0,s0,1
    800008fc:	00000493          	li	s1,0
    80000900:	00c0006f          	j	8000090c <serial_write+0x3c>
    80000904:	fff44503          	lbu	a0,-1(s0)
    80000908:	00050a63          	beqz	a0,8000091c <serial_write+0x4c>
    8000090c:	00148493          	addi	s1,s1,1
    80000910:	00140413          	addi	s0,s0,1
    80000914:	314000ef          	jal	ra,80000c28 <putch>
    80000918:	fe9916e3          	bne	s2,s1,80000904 <serial_write+0x34>
    8000091c:	01813083          	ld	ra,24(sp)
    80000920:	01013403          	ld	s0,16(sp)
    80000924:	00048513          	mv	a0,s1
    80000928:	00013903          	ld	s2,0(sp)
    8000092c:	00813483          	ld	s1,8(sp)
    80000930:	02010113          	addi	sp,sp,32
    80000934:	00008067          	ret
    80000938:	01813083          	ld	ra,24(sp)
    8000093c:	01013403          	ld	s0,16(sp)
    80000940:	00000493          	li	s1,0
    80000944:	00048513          	mv	a0,s1
    80000948:	00013903          	ld	s2,0(sp)
    8000094c:	00813483          	ld	s1,8(sp)
    80000950:	02010113          	addi	sp,sp,32
    80000954:	00008067          	ret

0000000080000958 <events_read>:
    80000958:	fe010113          	addi	sp,sp,-32
    8000095c:	00813823          	sd	s0,16(sp)
    80000960:	00810593          	addi	a1,sp,8
    80000964:	00050413          	mv	s0,a0
    80000968:	00800513          	li	a0,8
    8000096c:	00113c23          	sd	ra,24(sp)
    80000970:	3e4000ef          	jal	ra,80000d54 <ioe_read>
    80000974:	00c12783          	lw	a5,12(sp)
    80000978:	00814683          	lbu	a3,8(sp)
    8000097c:	00000513          	li	a0,0
    80000980:	02078663          	beqz	a5,800009ac <events_read+0x54>
    80000984:	00379793          	slli	a5,a5,0x3
    80000988:	01dfb717          	auipc	a4,0x1dfb
    8000098c:	81870713          	addi	a4,a4,-2024 # 81dfb1a0 <keyname>
    80000990:	00f707b3          	add	a5,a4,a5
    80000994:	0007b603          	ld	a2,0(a5)
    80000998:	02068263          	beqz	a3,800009bc <events_read+0x64>
    8000099c:	00002597          	auipc	a1,0x2
    800009a0:	17c58593          	addi	a1,a1,380 # 80002b18 <__func__.1435+0x10>
    800009a4:	00040513          	mv	a0,s0
    800009a8:	32d000ef          	jal	ra,800014d4 <sprintf>
    800009ac:	01813083          	ld	ra,24(sp)
    800009b0:	01013403          	ld	s0,16(sp)
    800009b4:	02010113          	addi	sp,sp,32
    800009b8:	00008067          	ret
    800009bc:	00040513          	mv	a0,s0
    800009c0:	00002597          	auipc	a1,0x2
    800009c4:	16058593          	addi	a1,a1,352 # 80002b20 <__func__.1435+0x18>
    800009c8:	30d000ef          	jal	ra,800014d4 <sprintf>
    800009cc:	01813083          	ld	ra,24(sp)
    800009d0:	01013403          	ld	s0,16(sp)
    800009d4:	02010113          	addi	sp,sp,32
    800009d8:	00008067          	ret

00000000800009dc <dispinfo_read>:
    800009dc:	fd010113          	addi	sp,sp,-48
    800009e0:	02813023          	sd	s0,32(sp)
    800009e4:	01010593          	addi	a1,sp,16
    800009e8:	00050413          	mv	s0,a0
    800009ec:	00900513          	li	a0,9
    800009f0:	02113423          	sd	ra,40(sp)
    800009f4:	360000ef          	jal	ra,80000d54 <ioe_read>
    800009f8:	01412703          	lw	a4,20(sp)
    800009fc:	01812783          	lw	a5,24(sp)
    80000a00:	00c10593          	addi	a1,sp,12
    80000a04:	00400613          	li	a2,4
    80000a08:	00040513          	mv	a0,s0
    80000a0c:	00e12623          	sw	a4,12(sp)
    80000a10:	00f12823          	sw	a5,16(sp)
    80000a14:	78c000ef          	jal	ra,800011a0 <memcpy>
    80000a18:	01010593          	addi	a1,sp,16
    80000a1c:	00440513          	addi	a0,s0,4
    80000a20:	00400613          	li	a2,4
    80000a24:	77c000ef          	jal	ra,800011a0 <memcpy>
    80000a28:	02813083          	ld	ra,40(sp)
    80000a2c:	02013403          	ld	s0,32(sp)
    80000a30:	00800513          	li	a0,8
    80000a34:	03010113          	addi	sp,sp,48
    80000a38:	00008067          	ret

0000000080000a3c <fb_write>:
    80000a3c:	01452783          	lw	a5,20(a0)
    80000a40:	00052803          	lw	a6,0(a0)
    80000a44:	00452603          	lw	a2,4(a0)
    80000a48:	00853683          	ld	a3,8(a0)
    80000a4c:	01052703          	lw	a4,16(a0)
    80000a50:	fd010113          	addi	sp,sp,-48
    80000a54:	00f12a23          	sw	a5,20(sp)
    80000a58:	00b00513          	li	a0,11
    80000a5c:	00010593          	mv	a1,sp
    80000a60:	00100793          	li	a5,1
    80000a64:	02113423          	sd	ra,40(sp)
    80000a68:	01012023          	sw	a6,0(sp)
    80000a6c:	00c12223          	sw	a2,4(sp)
    80000a70:	00d13423          	sd	a3,8(sp)
    80000a74:	00e12823          	sw	a4,16(sp)
    80000a78:	00f10c23          	sb	a5,24(sp)
    80000a7c:	2f4000ef          	jal	ra,80000d70 <ioe_write>
    80000a80:	02813083          	ld	ra,40(sp)
    80000a84:	00000513          	li	a0,0
    80000a88:	03010113          	addi	sp,sp,48
    80000a8c:	00008067          	ret

0000000080000a90 <init_device>:
    80000a90:	ff010113          	addi	sp,sp,-16
    80000a94:	00002697          	auipc	a3,0x2
    80000a98:	07468693          	addi	a3,a3,116 # 80002b08 <__func__.1435>
    80000a9c:	04700613          	li	a2,71
    80000aa0:	00002597          	auipc	a1,0x2
    80000aa4:	08858593          	addi	a1,a1,136 # 80002b28 <__func__.1435+0x20>
    80000aa8:	00002517          	auipc	a0,0x2
    80000aac:	0b850513          	addi	a0,a0,184 # 80002b60 <__func__.1435+0x58>
    80000ab0:	00113423          	sd	ra,8(sp)
    80000ab4:	0a9000ef          	jal	ra,8000135c <printf>
    80000ab8:	00813083          	ld	ra,8(sp)
    80000abc:	01010113          	addi	sp,sp,16
    80000ac0:	2380006f          	j	80000cf8 <ioe_init>

0000000080000ac4 <naive_uload>:
    80000ac4:	f5010113          	addi	sp,sp,-176
    80000ac8:	00058513          	mv	a0,a1
    80000acc:	0a113423          	sd	ra,168(sp)
    80000ad0:	08913c23          	sd	s1,152(sp)
    80000ad4:	0a813023          	sd	s0,160(sp)
    80000ad8:	09213823          	sd	s2,144(sp)
    80000adc:	09313423          	sd	s3,136(sp)
    80000ae0:	925ff0ef          	jal	ra,80000404 <fs_open>
    80000ae4:	04000613          	li	a2,64
    80000ae8:	04010593          	addi	a1,sp,64
    80000aec:	00050493          	mv	s1,a0
    80000af0:	9a1ff0ef          	jal	ra,80000490 <fs_read>
    80000af4:	07815783          	lhu	a5,120(sp)
    80000af8:	0e078063          	beqz	a5,80000bd8 <naive_uload+0x114>
    80000afc:	00000913          	li	s2,0
    80000b00:	00100993          	li	s3,1
    80000b04:	0100006f          	j	80000b14 <naive_uload+0x50>
    80000b08:	07815783          	lhu	a5,120(sp)
    80000b0c:	0019091b          	addiw	s2,s2,1
    80000b10:	0cf95463          	ble	a5,s2,80000bd8 <naive_uload+0x114>
    80000b14:	07615783          	lhu	a5,118(sp)
    80000b18:	06013583          	ld	a1,96(sp)
    80000b1c:	00000613          	li	a2,0
    80000b20:	032787bb          	mulw	a5,a5,s2
    80000b24:	00048513          	mv	a0,s1
    80000b28:	00b785b3          	add	a1,a5,a1
    80000b2c:	b21ff0ef          	jal	ra,8000064c <fs_lseek>
    80000b30:	03800613          	li	a2,56
    80000b34:	00810593          	addi	a1,sp,8
    80000b38:	00048513          	mv	a0,s1
    80000b3c:	955ff0ef          	jal	ra,80000490 <fs_read>
    80000b40:	00812783          	lw	a5,8(sp)
    80000b44:	fd3792e3          	bne	a5,s3,80000b08 <naive_uload+0x44>
    80000b48:	02813683          	ld	a3,40(sp)
    80000b4c:	0c068a63          	beqz	a3,80000c20 <naive_uload+0x15c>
    80000b50:	00000413          	li	s0,0
    80000b54:	01013583          	ld	a1,16(sp)
    80000b58:	00000613          	li	a2,0
    80000b5c:	00048513          	mv	a0,s1
    80000b60:	00b405b3          	add	a1,s0,a1
    80000b64:	ae9ff0ef          	jal	ra,8000064c <fs_lseek>
    80000b68:	00100613          	li	a2,1
    80000b6c:	00710593          	addi	a1,sp,7
    80000b70:	00048513          	mv	a0,s1
    80000b74:	91dff0ef          	jal	ra,80000490 <fs_read>
    80000b78:	01813783          	ld	a5,24(sp)
    80000b7c:	00714703          	lbu	a4,7(sp)
    80000b80:	008787b3          	add	a5,a5,s0
    80000b84:	00e78023          	sb	a4,0(a5)
    80000b88:	02813783          	ld	a5,40(sp)
    80000b8c:	00140413          	addi	s0,s0,1
    80000b90:	fcf462e3          	bltu	s0,a5,80000b54 <naive_uload+0x90>
    80000b94:	0007879b          	sext.w	a5,a5
    80000b98:	00078693          	mv	a3,a5
    80000b9c:	03013703          	ld	a4,48(sp)
    80000ba0:	f6e6f4e3          	bleu	a4,a3,80000b08 <naive_uload+0x44>
    80000ba4:	00178793          	addi	a5,a5,1
    80000ba8:	0080006f          	j	80000bb0 <naive_uload+0xec>
    80000bac:	00060793          	mv	a5,a2
    80000bb0:	01813703          	ld	a4,24(sp)
    80000bb4:	00178613          	addi	a2,a5,1
    80000bb8:	00d70733          	add	a4,a4,a3
    80000bbc:	00070023          	sb	zero,0(a4)
    80000bc0:	03013703          	ld	a4,48(sp)
    80000bc4:	00078693          	mv	a3,a5
    80000bc8:	fee7e2e3          	bltu	a5,a4,80000bac <naive_uload+0xe8>
    80000bcc:	07815783          	lhu	a5,120(sp)
    80000bd0:	0019091b          	addiw	s2,s2,1
    80000bd4:	f4f940e3          	blt	s2,a5,80000b14 <naive_uload+0x50>
    80000bd8:	05813403          	ld	s0,88(sp)
    80000bdc:	00002697          	auipc	a3,0x2
    80000be0:	27468693          	addi	a3,a3,628 # 80002e50 <__func__.1765>
    80000be4:	02d00613          	li	a2,45
    80000be8:	00040713          	mv	a4,s0
    80000bec:	00002597          	auipc	a1,0x2
    80000bf0:	27458593          	addi	a1,a1,628 # 80002e60 <__func__.1765+0x10>
    80000bf4:	00002517          	auipc	a0,0x2
    80000bf8:	2a450513          	addi	a0,a0,676 # 80002e98 <__func__.1765+0x48>
    80000bfc:	760000ef          	jal	ra,8000135c <printf>
    80000c00:	000400e7          	jalr	s0
    80000c04:	0a813083          	ld	ra,168(sp)
    80000c08:	0a013403          	ld	s0,160(sp)
    80000c0c:	09813483          	ld	s1,152(sp)
    80000c10:	09013903          	ld	s2,144(sp)
    80000c14:	08813983          	ld	s3,136(sp)
    80000c18:	0b010113          	addi	sp,sp,176
    80000c1c:	00008067          	ret
    80000c20:	00000793          	li	a5,0
    80000c24:	f79ff06f          	j	80000b9c <naive_uload+0xd8>

0000000080000c28 <putch>:
    80000c28:	00500793          	li	a5,5
    80000c2c:	01d79793          	slli	a5,a5,0x1d
    80000c30:	3ea78c23          	sb	a0,1016(a5)
    80000c34:	00008067          	ret

0000000080000c38 <halt>:
    80000c38:	00050513          	mv	a0,a0
    80000c3c:	00100073          	ebreak
    80000c40:	0000006f          	j	80000c40 <halt+0x8>

0000000080000c44 <_trm_init>:
    80000c44:	ff010113          	addi	sp,sp,-16
    80000c48:	00002517          	auipc	a0,0x2
    80000c4c:	3d050513          	addi	a0,a0,976 # 80003018 <mainargs>
    80000c50:	00113423          	sd	ra,8(sp)
    80000c54:	ce8ff0ef          	jal	ra,8000013c <main>
    80000c58:	00050513          	mv	a0,a0
    80000c5c:	00100073          	ebreak
    80000c60:	0000006f          	j	80000c60 <_trm_init+0x1c>

0000000080000c64 <__am_timer_config>:
    80000c64:	00100793          	li	a5,1
    80000c68:	00f50023          	sb	a5,0(a0)
    80000c6c:	00f500a3          	sb	a5,1(a0)
    80000c70:	00008067          	ret

0000000080000c74 <__am_input_config>:
    80000c74:	00100793          	li	a5,1
    80000c78:	00f50023          	sb	a5,0(a0)
    80000c7c:	00008067          	ret

0000000080000c80 <__am_uart_config>:
    80000c80:	00050023          	sb	zero,0(a0)
    80000c84:	00008067          	ret

0000000080000c88 <__am_net_config>:
    80000c88:	00050023          	sb	zero,0(a0)
    80000c8c:	00008067          	ret

0000000080000c90 <fail>:
    80000c90:	ff010113          	addi	sp,sp,-16
    80000c94:	00813023          	sd	s0,0(sp)
    80000c98:	00113423          	sd	ra,8(sp)
    80000c9c:	00002417          	auipc	s0,0x2
    80000ca0:	22c40413          	addi	s0,s0,556 # 80002ec8 <__func__.1765+0x78>
    80000ca4:	04100513          	li	a0,65
    80000ca8:	00140413          	addi	s0,s0,1
    80000cac:	f7dff0ef          	jal	ra,80000c28 <putch>
    80000cb0:	00044503          	lbu	a0,0(s0)
    80000cb4:	fe051ae3          	bnez	a0,80000ca8 <fail+0x18>
    80000cb8:	00002417          	auipc	s0,0x2
    80000cbc:	22040413          	addi	s0,s0,544 # 80002ed8 <__func__.1765+0x88>
    80000cc0:	06100513          	li	a0,97
    80000cc4:	00140413          	addi	s0,s0,1
    80000cc8:	f61ff0ef          	jal	ra,80000c28 <putch>
    80000ccc:	00044503          	lbu	a0,0(s0)
    80000cd0:	fe051ae3          	bnez	a0,80000cc4 <fail+0x34>
    80000cd4:	00002417          	auipc	s0,0x2
    80000cd8:	22440413          	addi	s0,s0,548 # 80002ef8 <__func__.1765+0xa8>
    80000cdc:	02000513          	li	a0,32
    80000ce0:	00140413          	addi	s0,s0,1
    80000ce4:	f45ff0ef          	jal	ra,80000c28 <putch>
    80000ce8:	00044503          	lbu	a0,0(s0)
    80000cec:	fe051ae3          	bnez	a0,80000ce0 <fail+0x50>
    80000cf0:	00100513          	li	a0,1
    80000cf4:	f45ff0ef          	jal	ra,80000c38 <halt>

0000000080000cf8 <ioe_init>:
    80000cf8:	ff010113          	addi	sp,sp,-16
    80000cfc:	00113423          	sd	ra,8(sp)
    80000d00:	01dfb797          	auipc	a5,0x1dfb
    80000d04:	cb078793          	addi	a5,a5,-848 # 81dfb9b0 <lut>
    80000d08:	01dfb697          	auipc	a3,0x1dfb
    80000d0c:	0a868693          	addi	a3,a3,168 # 81dfbdb0 <lut+0x400>
    80000d10:	00000617          	auipc	a2,0x0
    80000d14:	f8060613          	addi	a2,a2,-128 # 80000c90 <fail>
    80000d18:	00c0006f          	j	80000d24 <ioe_init+0x2c>
    80000d1c:	00878793          	addi	a5,a5,8
    80000d20:	00d78c63          	beq	a5,a3,80000d38 <ioe_init+0x40>
    80000d24:	0007b703          	ld	a4,0(a5)
    80000d28:	fe071ae3          	bnez	a4,80000d1c <ioe_init+0x24>
    80000d2c:	00c7b023          	sd	a2,0(a5)
    80000d30:	00878793          	addi	a5,a5,8
    80000d34:	fed798e3          	bne	a5,a3,80000d24 <ioe_init+0x2c>
    80000d38:	0e8000ef          	jal	ra,80000e20 <__am_gpu_init>
    80000d3c:	038000ef          	jal	ra,80000d74 <__am_timer_init>
    80000d40:	1a0000ef          	jal	ra,80000ee0 <__am_audio_init>
    80000d44:	00813083          	ld	ra,8(sp)
    80000d48:	00100513          	li	a0,1
    80000d4c:	01010113          	addi	sp,sp,16
    80000d50:	00008067          	ret

0000000080000d54 <ioe_read>:
    80000d54:	00351513          	slli	a0,a0,0x3
    80000d58:	01dfb797          	auipc	a5,0x1dfb
    80000d5c:	c5878793          	addi	a5,a5,-936 # 81dfb9b0 <lut>
    80000d60:	00a78533          	add	a0,a5,a0
    80000d64:	00053303          	ld	t1,0(a0)
    80000d68:	00058513          	mv	a0,a1
    80000d6c:	00030067          	jr	t1

0000000080000d70 <ioe_write>:
    80000d70:	fe5ff06f          	j	80000d54 <ioe_read>

0000000080000d74 <__am_timer_init>:
    80000d74:	00500793          	li	a5,5
    80000d78:	01d79793          	slli	a5,a5,0x1d
    80000d7c:	0487a783          	lw	a5,72(a5)
    80000d80:	02079793          	slli	a5,a5,0x20
    80000d84:	0207d793          	srli	a5,a5,0x20
    80000d88:	01e03717          	auipc	a4,0x1e03
    80000d8c:	28f73023          	sd	a5,640(a4) # 81e04008 <boot_time>
    80000d90:	00008067          	ret

0000000080000d94 <__am_timer_uptime>:
    80000d94:	00500793          	li	a5,5
    80000d98:	01d79793          	slli	a5,a5,0x1d
    80000d9c:	04c7a703          	lw	a4,76(a5)
    80000da0:	0487a783          	lw	a5,72(a5)
    80000da4:	01e03697          	auipc	a3,0x1e03
    80000da8:	26468693          	addi	a3,a3,612 # 81e04008 <boot_time>
    80000dac:	02071713          	slli	a4,a4,0x20
    80000db0:	00e53023          	sd	a4,0(a0)
    80000db4:	0006b683          	ld	a3,0(a3)
    80000db8:	02079793          	slli	a5,a5,0x20
    80000dbc:	0207d793          	srli	a5,a5,0x20
    80000dc0:	00e7e7b3          	or	a5,a5,a4
    80000dc4:	40d787b3          	sub	a5,a5,a3
    80000dc8:	00f53023          	sd	a5,0(a0)
    80000dcc:	00008067          	ret

0000000080000dd0 <__am_timer_rtc>:
    80000dd0:	76c00793          	li	a5,1900
    80000dd4:	00052a23          	sw	zero,20(a0)
    80000dd8:	00052823          	sw	zero,16(a0)
    80000ddc:	00052623          	sw	zero,12(a0)
    80000de0:	00052423          	sw	zero,8(a0)
    80000de4:	00052223          	sw	zero,4(a0)
    80000de8:	00f52023          	sw	a5,0(a0)
    80000dec:	00008067          	ret

0000000080000df0 <__am_input_keybrd>:
    80000df0:	00500793          	li	a5,5
    80000df4:	01d79793          	slli	a5,a5,0x1d
    80000df8:	0607d783          	lhu	a5,96(a5)
    80000dfc:	03079793          	slli	a5,a5,0x30
    80000e00:	0307d793          	srli	a5,a5,0x30
    80000e04:	0107971b          	slliw	a4,a5,0x10
    80000e08:	0107571b          	srliw	a4,a4,0x10
    80000e0c:	00f7571b          	srliw	a4,a4,0xf
    80000e10:	0ff7f793          	andi	a5,a5,255
    80000e14:	00e50023          	sb	a4,0(a0)
    80000e18:	00f52223          	sw	a5,4(a0)
    80000e1c:	00008067          	ret

0000000080000e20 <__am_gpu_init>:
    80000e20:	00008067          	ret

0000000080000e24 <__am_gpu_config>:
    80000e24:	00100793          	li	a5,1
    80000e28:	00f50023          	sb	a5,0(a0)
    80000e2c:	19000793          	li	a5,400
    80000e30:	00f52223          	sw	a5,4(a0)
    80000e34:	12c00793          	li	a5,300
    80000e38:	000500a3          	sb	zero,1(a0)
    80000e3c:	00f52423          	sw	a5,8(a0)
    80000e40:	00052623          	sw	zero,12(a0)
    80000e44:	00008067          	ret

0000000080000e48 <__am_gpu_fbdraw>:
    80000e48:	01052803          	lw	a6,16(a0)
    80000e4c:	00052883          	lw	a7,0(a0)
    80000e50:	00452783          	lw	a5,4(a0)
    80000e54:	01452583          	lw	a1,20(a0)
    80000e58:	00853303          	ld	t1,8(a0)
    80000e5c:	05005e63          	blez	a6,80000eb8 <__am_gpu_fbdraw+0x70>
    80000e60:	19000e93          	li	t4,400
    80000e64:	02fe8ebb          	mulw	t4,t4,a5
    80000e68:	0008889b          	sext.w	a7,a7
    80000e6c:	0a100e13          	li	t3,161
    80000e70:	01180f3b          	addw	t5,a6,a7
    80000e74:	018e1e13          	slli	t3,t3,0x18
    80000e78:	00281813          	slli	a6,a6,0x2
    80000e7c:	02b05863          	blez	a1,80000eac <__am_gpu_fbdraw+0x64>
    80000e80:	01d887b3          	add	a5,a7,t4
    80000e84:	00279793          	slli	a5,a5,0x2
    80000e88:	01c787b3          	add	a5,a5,t3
    80000e8c:	00030693          	mv	a3,t1
    80000e90:	00000713          	li	a4,0
    80000e94:	0006a603          	lw	a2,0(a3)
    80000e98:	0017071b          	addiw	a4,a4,1
    80000e9c:	010686b3          	add	a3,a3,a6
    80000ea0:	00c7a023          	sw	a2,0(a5)
    80000ea4:	64078793          	addi	a5,a5,1600
    80000ea8:	fee596e3          	bne	a1,a4,80000e94 <__am_gpu_fbdraw+0x4c>
    80000eac:	0018889b          	addiw	a7,a7,1
    80000eb0:	00430313          	addi	t1,t1,4
    80000eb4:	fde894e3          	bne	a7,t5,80000e7c <__am_gpu_fbdraw+0x34>
    80000eb8:	01854783          	lbu	a5,24(a0)
    80000ebc:	00078a63          	beqz	a5,80000ed0 <__am_gpu_fbdraw+0x88>
    80000ec0:	00500793          	li	a5,5
    80000ec4:	01d79793          	slli	a5,a5,0x1d
    80000ec8:	00100713          	li	a4,1
    80000ecc:	10e7a223          	sw	a4,260(a5)
    80000ed0:	00008067          	ret

0000000080000ed4 <__am_gpu_status>:
    80000ed4:	00100793          	li	a5,1
    80000ed8:	00f50023          	sb	a5,0(a0)
    80000edc:	00008067          	ret

0000000080000ee0 <__am_audio_init>:
    80000ee0:	00008067          	ret

0000000080000ee4 <__am_audio_config>:
    80000ee4:	00050023          	sb	zero,0(a0)
    80000ee8:	00008067          	ret

0000000080000eec <__am_audio_ctrl>:
    80000eec:	00008067          	ret

0000000080000ef0 <__am_audio_status>:
    80000ef0:	00052023          	sw	zero,0(a0)
    80000ef4:	00008067          	ret

0000000080000ef8 <__am_audio_play>:
    80000ef8:	00008067          	ret

0000000080000efc <__am_disk_config>:
    80000efc:	00050023          	sb	zero,0(a0)
    80000f00:	00008067          	ret

0000000080000f04 <__am_disk_status>:
    80000f04:	00008067          	ret

0000000080000f08 <__am_disk_blkio>:
    80000f08:	00008067          	ret

0000000080000f0c <__am_irq_handle>:
    80000f0c:	01e03797          	auipc	a5,0x1e03
    80000f10:	10478793          	addi	a5,a5,260 # 81e04010 <user_handler>
    80000f14:	0007b783          	ld	a5,0(a5)
    80000f18:	08078063          	beqz	a5,80000f98 <__am_irq_handle+0x8c>
    80000f1c:	10053703          	ld	a4,256(a0)
    80000f20:	fb010113          	addi	sp,sp,-80
    80000f24:	04113423          	sd	ra,72(sp)
    80000f28:	02013023          	sd	zero,32(sp)
    80000f2c:	02013423          	sd	zero,40(sp)
    80000f30:	02013823          	sd	zero,48(sp)
    80000f34:	02013c23          	sd	zero,56(sp)
    80000f38:	01300693          	li	a3,19
    80000f3c:	04e6f863          	bleu	a4,a3,80000f8c <__am_irq_handle+0x80>
    80000f40:	fff00693          	li	a3,-1
    80000f44:	04d71c63          	bne	a4,a3,80000f9c <__am_irq_handle+0x90>
    80000f48:	00100713          	li	a4,1
    80000f4c:	02e12023          	sw	a4,32(sp)
    80000f50:	02013703          	ld	a4,32(sp)
    80000f54:	00050593          	mv	a1,a0
    80000f58:	00010513          	mv	a0,sp
    80000f5c:	00e13023          	sd	a4,0(sp)
    80000f60:	02813703          	ld	a4,40(sp)
    80000f64:	00e13423          	sd	a4,8(sp)
    80000f68:	03013703          	ld	a4,48(sp)
    80000f6c:	00e13823          	sd	a4,16(sp)
    80000f70:	03813703          	ld	a4,56(sp)
    80000f74:	00e13c23          	sd	a4,24(sp)
    80000f78:	000780e7          	jalr	a5
    80000f7c:	02050663          	beqz	a0,80000fa8 <__am_irq_handle+0x9c>
    80000f80:	04813083          	ld	ra,72(sp)
    80000f84:	05010113          	addi	sp,sp,80
    80000f88:	00008067          	ret
    80000f8c:	00200713          	li	a4,2
    80000f90:	02e12023          	sw	a4,32(sp)
    80000f94:	fbdff06f          	j	80000f50 <__am_irq_handle+0x44>
    80000f98:	00008067          	ret
    80000f9c:	00400713          	li	a4,4
    80000fa0:	02e12023          	sw	a4,32(sp)
    80000fa4:	fadff06f          	j	80000f50 <__am_irq_handle+0x44>
    80000fa8:	02600613          	li	a2,38
    80000fac:	00002597          	auipc	a1,0x2
    80000fb0:	fbc58593          	addi	a1,a1,-68 # 80002f68 <__func__.1765+0x118>
    80000fb4:	00002517          	auipc	a0,0x2
    80000fb8:	01450513          	addi	a0,a0,20 # 80002fc8 <__func__.1765+0x178>
    80000fbc:	3a0000ef          	jal	ra,8000135c <printf>
    80000fc0:	00100513          	li	a0,1
    80000fc4:	c75ff0ef          	jal	ra,80000c38 <halt>

0000000080000fc8 <cte_init>:
    80000fc8:	00050793          	mv	a5,a0
    80000fcc:	00000717          	auipc	a4,0x0
    80000fd0:	02c70713          	addi	a4,a4,44 # 80000ff8 <__am_asm_trap>
    80000fd4:	30571073          	csrw	mtvec,a4
    80000fd8:	00100513          	li	a0,1
    80000fdc:	01e03717          	auipc	a4,0x1e03
    80000fe0:	02f73a23          	sd	a5,52(a4) # 81e04010 <user_handler>
    80000fe4:	00008067          	ret

0000000080000fe8 <yield>:
    80000fe8:	fff00893          	li	a7,-1
    80000fec:	00000073          	ecall
    80000ff0:	00008067          	ret
    80000ff4:	0000                	unimp
	...

0000000080000ff8 <__am_asm_trap>:
    80000ff8:	ee010113          	addi	sp,sp,-288
    80000ffc:	00113423          	sd	ra,8(sp)
    80001000:	00313c23          	sd	gp,24(sp)
    80001004:	02413023          	sd	tp,32(sp)
    80001008:	02513423          	sd	t0,40(sp)
    8000100c:	02613823          	sd	t1,48(sp)
    80001010:	02713c23          	sd	t2,56(sp)
    80001014:	04813023          	sd	s0,64(sp)
    80001018:	04913423          	sd	s1,72(sp)
    8000101c:	04a13823          	sd	a0,80(sp)
    80001020:	04b13c23          	sd	a1,88(sp)
    80001024:	06c13023          	sd	a2,96(sp)
    80001028:	06d13423          	sd	a3,104(sp)
    8000102c:	06e13823          	sd	a4,112(sp)
    80001030:	06f13c23          	sd	a5,120(sp)
    80001034:	09013023          	sd	a6,128(sp)
    80001038:	09113423          	sd	a7,136(sp)
    8000103c:	09213823          	sd	s2,144(sp)
    80001040:	09313c23          	sd	s3,152(sp)
    80001044:	0b413023          	sd	s4,160(sp)
    80001048:	0b513423          	sd	s5,168(sp)
    8000104c:	0b613823          	sd	s6,176(sp)
    80001050:	0b713c23          	sd	s7,184(sp)
    80001054:	0d813023          	sd	s8,192(sp)
    80001058:	0d913423          	sd	s9,200(sp)
    8000105c:	0da13823          	sd	s10,208(sp)
    80001060:	0db13c23          	sd	s11,216(sp)
    80001064:	0fc13023          	sd	t3,224(sp)
    80001068:	0fd13423          	sd	t4,232(sp)
    8000106c:	0fe13823          	sd	t5,240(sp)
    80001070:	0ff13c23          	sd	t6,248(sp)
    80001074:	342022f3          	csrr	t0,mcause
    80001078:	30002373          	csrr	t1,mstatus
    8000107c:	341023f3          	csrr	t2,mepc
    80001080:	10513023          	sd	t0,256(sp)
    80001084:	10613423          	sd	t1,264(sp)
    80001088:	10713823          	sd	t2,272(sp)
    8000108c:	00020537          	lui	a0,0x20
    80001090:	00a36333          	or	t1,t1,a0
    80001094:	30031073          	csrw	mstatus,t1
    80001098:	00010513          	mv	a0,sp
    8000109c:	e71ff0ef          	jal	ra,80000f0c <__am_irq_handle>
    800010a0:	10813303          	ld	t1,264(sp)
    800010a4:	11013383          	ld	t2,272(sp)
    800010a8:	30031073          	csrw	mstatus,t1
    800010ac:	34139073          	csrw	mepc,t2
    800010b0:	00813083          	ld	ra,8(sp)
    800010b4:	01813183          	ld	gp,24(sp)
    800010b8:	02013203          	ld	tp,32(sp)
    800010bc:	02813283          	ld	t0,40(sp)
    800010c0:	03013303          	ld	t1,48(sp)
    800010c4:	03813383          	ld	t2,56(sp)
    800010c8:	04013403          	ld	s0,64(sp)
    800010cc:	04813483          	ld	s1,72(sp)
    800010d0:	05013503          	ld	a0,80(sp)
    800010d4:	05813583          	ld	a1,88(sp)
    800010d8:	06013603          	ld	a2,96(sp)
    800010dc:	06813683          	ld	a3,104(sp)
    800010e0:	07013703          	ld	a4,112(sp)
    800010e4:	07813783          	ld	a5,120(sp)
    800010e8:	08013803          	ld	a6,128(sp)
    800010ec:	08813883          	ld	a7,136(sp)
    800010f0:	09013903          	ld	s2,144(sp)
    800010f4:	09813983          	ld	s3,152(sp)
    800010f8:	0a013a03          	ld	s4,160(sp)
    800010fc:	0a813a83          	ld	s5,168(sp)
    80001100:	0b013b03          	ld	s6,176(sp)
    80001104:	0b813b83          	ld	s7,184(sp)
    80001108:	0c013c03          	ld	s8,192(sp)
    8000110c:	0c813c83          	ld	s9,200(sp)
    80001110:	0d013d03          	ld	s10,208(sp)
    80001114:	0d813d83          	ld	s11,216(sp)
    80001118:	0e013e03          	ld	t3,224(sp)
    8000111c:	0e813e83          	ld	t4,232(sp)
    80001120:	0f013f03          	ld	t5,240(sp)
    80001124:	0f813f83          	ld	t6,248(sp)
    80001128:	12010113          	addi	sp,sp,288
    8000112c:	30200073          	mret
    80001130:	0000                	unimp
	...

0000000080001134 <strlen>:
    80001134:	00054703          	lbu	a4,0(a0) # 20000 <_entry_offset+0x20000>
    80001138:	00050793          	mv	a5,a0
    8000113c:	00000513          	li	a0,0
    80001140:	00070c63          	beqz	a4,80001158 <strlen+0x24>
    80001144:	00178793          	addi	a5,a5,1
    80001148:	0007c703          	lbu	a4,0(a5)
    8000114c:	00150513          	addi	a0,a0,1
    80001150:	fe071ae3          	bnez	a4,80001144 <strlen+0x10>
    80001154:	00008067          	ret
    80001158:	00008067          	ret

000000008000115c <strcmp>:
    8000115c:	00054703          	lbu	a4,0(a0)
    80001160:	0005c783          	lbu	a5,0(a1)
    80001164:	40f707bb          	subw	a5,a4,a5
    80001168:	02079063          	bnez	a5,80001188 <strcmp+0x2c>
    8000116c:	02070263          	beqz	a4,80001190 <strcmp+0x34>
    80001170:	00150513          	addi	a0,a0,1
    80001174:	00158593          	addi	a1,a1,1
    80001178:	00054703          	lbu	a4,0(a0)
    8000117c:	0005c783          	lbu	a5,0(a1)
    80001180:	40f707bb          	subw	a5,a4,a5
    80001184:	fe0784e3          	beqz	a5,8000116c <strcmp+0x10>
    80001188:	0007c863          	bltz	a5,80001198 <strcmp+0x3c>
    8000118c:	00f037b3          	snez	a5,a5
    80001190:	00078513          	mv	a0,a5
    80001194:	00008067          	ret
    80001198:	fff00793          	li	a5,-1
    8000119c:	ff5ff06f          	j	80001190 <strcmp+0x34>

00000000800011a0 <memcpy>:
    800011a0:	00060e63          	beqz	a2,800011bc <memcpy+0x1c>
    800011a4:	00c50633          	add	a2,a0,a2
    800011a8:	00158593          	addi	a1,a1,1
    800011ac:	fff5c783          	lbu	a5,-1(a1)
    800011b0:	00150513          	addi	a0,a0,1
    800011b4:	fef50fa3          	sb	a5,-1(a0)
    800011b8:	fea618e3          	bne	a2,a0,800011a8 <memcpy+0x8>
    800011bc:	00008067          	ret

00000000800011c0 <printint>:
    800011c0:	00051463          	bnez	a0,800011c8 <printint+0x8>
    800011c4:	00008067          	ret
    800011c8:	fe010113          	addi	sp,sp,-32
    800011cc:	00913423          	sd	s1,8(sp)
    800011d0:	00a00493          	li	s1,10
    800011d4:	00813823          	sd	s0,16(sp)
    800011d8:	00050413          	mv	s0,a0
    800011dc:	0295453b          	divw	a0,a0,s1
    800011e0:	00113c23          	sd	ra,24(sp)
    800011e4:	fddff0ef          	jal	ra,800011c0 <printint>
    800011e8:	0294653b          	remw	a0,s0,s1
    800011ec:	01013403          	ld	s0,16(sp)
    800011f0:	01813083          	ld	ra,24(sp)
    800011f4:	00813483          	ld	s1,8(sp)
    800011f8:	02010113          	addi	sp,sp,32
    800011fc:	0305051b          	addiw	a0,a0,48
    80001200:	0ff57513          	andi	a0,a0,255
    80001204:	a25ff06f          	j	80000c28 <putch>

0000000080001208 <printhex>:
    80001208:	fe010113          	addi	sp,sp,-32
    8000120c:	00913423          	sd	s1,8(sp)
    80001210:	00113c23          	sd	ra,24(sp)
    80001214:	00813823          	sd	s0,16(sp)
    80001218:	0005049b          	sext.w	s1,a0
    8000121c:	04048063          	beqz	s1,8000125c <printhex+0x54>
    80001220:	00050413          	mv	s0,a0
    80001224:	0044d51b          	srliw	a0,s1,0x4
    80001228:	0005051b          	sext.w	a0,a0
    8000122c:	00100593          	li	a1,1
    80001230:	fd9ff0ef          	jal	ra,80001208 <printhex>
    80001234:	00f4f493          	andi	s1,s1,15
    80001238:	00900793          	li	a5,9
    8000123c:	00f47513          	andi	a0,s0,15
    80001240:	0297fe63          	bleu	s1,a5,8000127c <printhex+0x74>
    80001244:	05750513          	addi	a0,a0,87
    80001248:	01013403          	ld	s0,16(sp)
    8000124c:	01813083          	ld	ra,24(sp)
    80001250:	00813483          	ld	s1,8(sp)
    80001254:	02010113          	addi	sp,sp,32
    80001258:	9d1ff06f          	j	80000c28 <putch>
    8000125c:	00100793          	li	a5,1
    80001260:	03000513          	li	a0,48
    80001264:	fef592e3          	bne	a1,a5,80001248 <printhex+0x40>
    80001268:	01813083          	ld	ra,24(sp)
    8000126c:	01013403          	ld	s0,16(sp)
    80001270:	00813483          	ld	s1,8(sp)
    80001274:	02010113          	addi	sp,sp,32
    80001278:	00008067          	ret
    8000127c:	01013403          	ld	s0,16(sp)
    80001280:	01813083          	ld	ra,24(sp)
    80001284:	00813483          	ld	s1,8(sp)
    80001288:	03050513          	addi	a0,a0,48
    8000128c:	02010113          	addi	sp,sp,32
    80001290:	999ff06f          	j	80000c28 <putch>

0000000080001294 <_i2a>:
    80001294:	00158e13          	addi	t3,a1,1
    80001298:	00058893          	mv	a7,a1
    8000129c:	00055c63          	bgez	a0,800012b4 <_i2a+0x20>
    800012a0:	02d00713          	li	a4,45
    800012a4:	000e0893          	mv	a7,t3
    800012a8:	40a0053b          	negw	a0,a0
    800012ac:	00e58023          	sb	a4,0(a1)
    800012b0:	00258e13          	addi	t3,a1,2
    800012b4:	00900793          	li	a5,9
    800012b8:	08a7d263          	ble	a0,a5,8000133c <_i2a+0xa8>
    800012bc:	fe010113          	addi	sp,sp,-32
    800012c0:	00010313          	mv	t1,sp
    800012c4:	00030813          	mv	a6,t1
    800012c8:	00002797          	auipc	a5,0x2
    800012cc:	d2078793          	addi	a5,a5,-736 # 80002fe8 <s.1446>
    800012d0:	0080006f          	j	800012d8 <_i2a+0x44>
    800012d4:	00068813          	mv	a6,a3
    800012d8:	02c5673b          	remw	a4,a0,a2
    800012dc:	00180693          	addi	a3,a6,1
    800012e0:	02c5453b          	divw	a0,a0,a2
    800012e4:	00e78733          	add	a4,a5,a4
    800012e8:	00074703          	lbu	a4,0(a4)
    800012ec:	fee68fa3          	sb	a4,-1(a3)
    800012f0:	fe0512e3          	bnez	a0,800012d4 <_i2a+0x40>
    800012f4:	02680863          	beq	a6,t1,80001324 <_i2a+0x90>
    800012f8:	00080793          	mv	a5,a6
    800012fc:	00088693          	mv	a3,a7
    80001300:	0080006f          	j	80001308 <_i2a+0x74>
    80001304:	0007c703          	lbu	a4,0(a5)
    80001308:	00168693          	addi	a3,a3,1
    8000130c:	fee68fa3          	sb	a4,-1(a3)
    80001310:	fff78793          	addi	a5,a5,-1
    80001314:	fe6798e3          	bne	a5,t1,80001304 <_i2a+0x70>
    80001318:	40f807b3          	sub	a5,a6,a5
    8000131c:	00f888b3          	add	a7,a7,a5
    80001320:	00188e13          	addi	t3,a7,1
    80001324:	00014783          	lbu	a5,0(sp)
    80001328:	000880a3          	sb	zero,1(a7)
    8000132c:	40be053b          	subw	a0,t3,a1
    80001330:	00f88023          	sb	a5,0(a7)
    80001334:	02010113          	addi	sp,sp,32
    80001338:	00008067          	ret
    8000133c:	00002797          	auipc	a5,0x2
    80001340:	cac78793          	addi	a5,a5,-852 # 80002fe8 <s.1446>
    80001344:	00a78533          	add	a0,a5,a0
    80001348:	00054783          	lbu	a5,0(a0)
    8000134c:	000880a3          	sb	zero,1(a7)
    80001350:	40be053b          	subw	a0,t3,a1
    80001354:	00f88023          	sb	a5,0(a7)
    80001358:	00008067          	ret

000000008000135c <printf>:
    8000135c:	f6010113          	addi	sp,sp,-160
    80001360:	08f13423          	sd	a5,136(sp)
    80001364:	06810793          	addi	a5,sp,104
    80001368:	04813823          	sd	s0,80(sp)
    8000136c:	05213023          	sd	s2,64(sp)
    80001370:	03313c23          	sd	s3,56(sp)
    80001374:	03413823          	sd	s4,48(sp)
    80001378:	03513423          	sd	s5,40(sp)
    8000137c:	03613023          	sd	s6,32(sp)
    80001380:	01713c23          	sd	s7,24(sp)
    80001384:	04113c23          	sd	ra,88(sp)
    80001388:	04913423          	sd	s1,72(sp)
    8000138c:	00050413          	mv	s0,a0
    80001390:	06b13423          	sd	a1,104(sp)
    80001394:	06c13823          	sd	a2,112(sp)
    80001398:	06d13c23          	sd	a3,120(sp)
    8000139c:	08e13023          	sd	a4,128(sp)
    800013a0:	09013823          	sd	a6,144(sp)
    800013a4:	09113c23          	sd	a7,152(sp)
    800013a8:	00f13423          	sd	a5,8(sp)
    800013ac:	02500913          	li	s2,37
    800013b0:	06400993          	li	s3,100
    800013b4:	00a00b93          	li	s7,10
    800013b8:	07300a13          	li	s4,115
    800013bc:	07800b13          	li	s6,120
    800013c0:	06300a93          	li	s5,99
    800013c4:	00044503          	lbu	a0,0(s0)
    800013c8:	00050c63          	beqz	a0,800013e0 <printf+0x84>
    800013cc:	05250263          	beq	a0,s2,80001410 <printf+0xb4>
    800013d0:	859ff0ef          	jal	ra,80000c28 <putch>
    800013d4:	00140413          	addi	s0,s0,1
    800013d8:	00044503          	lbu	a0,0(s0)
    800013dc:	fe0518e3          	bnez	a0,800013cc <printf+0x70>
    800013e0:	05813083          	ld	ra,88(sp)
    800013e4:	05013403          	ld	s0,80(sp)
    800013e8:	04813483          	ld	s1,72(sp)
    800013ec:	04013903          	ld	s2,64(sp)
    800013f0:	03813983          	ld	s3,56(sp)
    800013f4:	03013a03          	ld	s4,48(sp)
    800013f8:	02813a83          	ld	s5,40(sp)
    800013fc:	02013b03          	ld	s6,32(sp)
    80001400:	01813b83          	ld	s7,24(sp)
    80001404:	00100513          	li	a0,1
    80001408:	0a010113          	addi	sp,sp,160
    8000140c:	00008067          	ret
    80001410:	00144503          	lbu	a0,1(s0)
    80001414:	00240413          	addi	s0,s0,2
    80001418:	05350463          	beq	a0,s3,80001460 <printf+0x104>
    8000141c:	02a9f463          	bleu	a0,s3,80001444 <printf+0xe8>
    80001420:	07450c63          	beq	a0,s4,80001498 <printf+0x13c>
    80001424:	07651663          	bne	a0,s6,80001490 <printf+0x134>
    80001428:	00813783          	ld	a5,8(sp)
    8000142c:	00000593          	li	a1,0
    80001430:	0007a503          	lw	a0,0(a5)
    80001434:	00878793          	addi	a5,a5,8
    80001438:	00f13423          	sd	a5,8(sp)
    8000143c:	dcdff0ef          	jal	ra,80001208 <printhex>
    80001440:	f85ff06f          	j	800013c4 <printf+0x68>
    80001444:	05551663          	bne	a0,s5,80001490 <printf+0x134>
    80001448:	00813783          	ld	a5,8(sp)
    8000144c:	0007c503          	lbu	a0,0(a5)
    80001450:	00878793          	addi	a5,a5,8
    80001454:	00f13423          	sd	a5,8(sp)
    80001458:	fd0ff0ef          	jal	ra,80000c28 <putch>
    8000145c:	f69ff06f          	j	800013c4 <printf+0x68>
    80001460:	00813783          	ld	a5,8(sp)
    80001464:	0007a483          	lw	s1,0(a5)
    80001468:	00878793          	addi	a5,a5,8
    8000146c:	00f13423          	sd	a5,8(sp)
    80001470:	f4048ae3          	beqz	s1,800013c4 <printf+0x68>
    80001474:	0374c53b          	divw	a0,s1,s7
    80001478:	d49ff0ef          	jal	ra,800011c0 <printint>
    8000147c:	0374e53b          	remw	a0,s1,s7
    80001480:	0305051b          	addiw	a0,a0,48
    80001484:	0ff57513          	andi	a0,a0,255
    80001488:	fa0ff0ef          	jal	ra,80000c28 <putch>
    8000148c:	f39ff06f          	j	800013c4 <printf+0x68>
    80001490:	f98ff0ef          	jal	ra,80000c28 <putch>
    80001494:	f31ff06f          	j	800013c4 <printf+0x68>
    80001498:	00813783          	ld	a5,8(sp)
    8000149c:	0007b483          	ld	s1,0(a5)
    800014a0:	00878793          	addi	a5,a5,8
    800014a4:	00f13423          	sd	a5,8(sp)
    800014a8:	0004c503          	lbu	a0,0(s1)
    800014ac:	f0050ce3          	beqz	a0,800013c4 <printf+0x68>
    800014b0:	00148493          	addi	s1,s1,1
    800014b4:	f74ff0ef          	jal	ra,80000c28 <putch>
    800014b8:	0004c503          	lbu	a0,0(s1)
    800014bc:	f00504e3          	beqz	a0,800013c4 <printf+0x68>
    800014c0:	00148493          	addi	s1,s1,1
    800014c4:	f64ff0ef          	jal	ra,80000c28 <putch>
    800014c8:	0004c503          	lbu	a0,0(s1)
    800014cc:	fe0512e3          	bnez	a0,800014b0 <printf+0x154>
    800014d0:	ef5ff06f          	j	800013c4 <printf+0x68>

00000000800014d4 <sprintf>:
    800014d4:	f4010113          	addi	sp,sp,-192
    800014d8:	06913c23          	sd	s1,120(sp)
    800014dc:	0ae13023          	sd	a4,160(sp)
    800014e0:	08113423          	sd	ra,136(sp)
    800014e4:	08813023          	sd	s0,128(sp)
    800014e8:	07213823          	sd	s2,112(sp)
    800014ec:	07313423          	sd	s3,104(sp)
    800014f0:	07413023          	sd	s4,96(sp)
    800014f4:	05513c23          	sd	s5,88(sp)
    800014f8:	05613823          	sd	s6,80(sp)
    800014fc:	05713423          	sd	s7,72(sp)
    80001500:	05813023          	sd	s8,64(sp)
    80001504:	03913c23          	sd	s9,56(sp)
    80001508:	03a13823          	sd	s10,48(sp)
    8000150c:	08c13823          	sd	a2,144(sp)
    80001510:	08d13c23          	sd	a3,152(sp)
    80001514:	0af13423          	sd	a5,168(sp)
    80001518:	0b013823          	sd	a6,176(sp)
    8000151c:	0b113c23          	sd	a7,184(sp)
    80001520:	0005c783          	lbu	a5,0(a1)
    80001524:	09010713          	addi	a4,sp,144
    80001528:	00e13423          	sd	a4,8(sp)
    8000152c:	00050493          	mv	s1,a0
    80001530:	14078463          	beqz	a5,80001678 <sprintf+0x1a4>
    80001534:	00058413          	mv	s0,a1
    80001538:	00050b13          	mv	s6,a0
    8000153c:	02500a13          	li	s4,37
    80001540:	06400a93          	li	s5,100
    80001544:	07300c93          	li	s9,115
    80001548:	07500c13          	li	s8,117
    8000154c:	06300b93          	li	s7,99
    80001550:	0240006f          	j	80001574 <sprintf+0xa0>
    80001554:	00090713          	mv	a4,s2
    80001558:	00f48023          	sb	a5,0(s1)
    8000155c:	00040913          	mv	s2,s0
    80001560:	00100993          	li	s3,1
    80001564:	00070413          	mv	s0,a4
    80001568:	00194783          	lbu	a5,1(s2)
    8000156c:	013484b3          	add	s1,s1,s3
    80001570:	04078463          	beqz	a5,800015b8 <sprintf+0xe4>
    80001574:	00140913          	addi	s2,s0,1
    80001578:	fd479ee3          	bne	a5,s4,80001554 <sprintf+0x80>
    8000157c:	00144783          	lbu	a5,1(s0)
    80001580:	00240413          	addi	s0,s0,2
    80001584:	0b578663          	beq	a5,s5,80001630 <sprintf+0x15c>
    80001588:	06fae863          	bltu	s5,a5,800015f8 <sprintf+0x124>
    8000158c:	0f478063          	beq	a5,s4,8000166c <sprintf+0x198>
    80001590:	0d779a63          	bne	a5,s7,80001664 <sprintf+0x190>
    80001594:	00813783          	ld	a5,8(sp)
    80001598:	00100993          	li	s3,1
    8000159c:	0007a703          	lw	a4,0(a5)
    800015a0:	00878793          	addi	a5,a5,8
    800015a4:	00f13423          	sd	a5,8(sp)
    800015a8:	00e48023          	sb	a4,0(s1)
    800015ac:	00194783          	lbu	a5,1(s2)
    800015b0:	013484b3          	add	s1,s1,s3
    800015b4:	fc0790e3          	bnez	a5,80001574 <sprintf+0xa0>
    800015b8:	4164853b          	subw	a0,s1,s6
    800015bc:	00048023          	sb	zero,0(s1)
    800015c0:	08813083          	ld	ra,136(sp)
    800015c4:	08013403          	ld	s0,128(sp)
    800015c8:	07813483          	ld	s1,120(sp)
    800015cc:	07013903          	ld	s2,112(sp)
    800015d0:	06813983          	ld	s3,104(sp)
    800015d4:	06013a03          	ld	s4,96(sp)
    800015d8:	05813a83          	ld	s5,88(sp)
    800015dc:	05013b03          	ld	s6,80(sp)
    800015e0:	04813b83          	ld	s7,72(sp)
    800015e4:	04013c03          	ld	s8,64(sp)
    800015e8:	03813c83          	ld	s9,56(sp)
    800015ec:	03013d03          	ld	s10,48(sp)
    800015f0:	0c010113          	addi	sp,sp,192
    800015f4:	00008067          	ret
    800015f8:	03979a63          	bne	a5,s9,8000162c <sprintf+0x158>
    800015fc:	00813783          	ld	a5,8(sp)
    80001600:	0007bd03          	ld	s10,0(a5)
    80001604:	00878793          	addi	a5,a5,8
    80001608:	00f13423          	sd	a5,8(sp)
    8000160c:	000d0513          	mv	a0,s10
    80001610:	b25ff0ef          	jal	ra,80001134 <strlen>
    80001614:	0005099b          	sext.w	s3,a0
    80001618:	00098613          	mv	a2,s3
    8000161c:	000d0593          	mv	a1,s10
    80001620:	00048513          	mv	a0,s1
    80001624:	b7dff0ef          	jal	ra,800011a0 <memcpy>
    80001628:	f41ff06f          	j	80001568 <sprintf+0x94>
    8000162c:	03879c63          	bne	a5,s8,80001664 <sprintf+0x190>
    80001630:	00813783          	ld	a5,8(sp)
    80001634:	01010593          	addi	a1,sp,16
    80001638:	00a00613          	li	a2,10
    8000163c:	0007a503          	lw	a0,0(a5)
    80001640:	00878793          	addi	a5,a5,8
    80001644:	00f13423          	sd	a5,8(sp)
    80001648:	c4dff0ef          	jal	ra,80001294 <_i2a>
    8000164c:	00050993          	mv	s3,a0
    80001650:	00050613          	mv	a2,a0
    80001654:	01010593          	addi	a1,sp,16
    80001658:	00048513          	mv	a0,s1
    8000165c:	b45ff0ef          	jal	ra,800011a0 <memcpy>
    80001660:	f09ff06f          	j	80001568 <sprintf+0x94>
    80001664:	00100993          	li	s3,1
    80001668:	f01ff06f          	j	80001568 <sprintf+0x94>
    8000166c:	01448023          	sb	s4,0(s1)
    80001670:	00100993          	li	s3,1
    80001674:	ef5ff06f          	j	80001568 <sprintf+0x94>
    80001678:	00000513          	li	a0,0
    8000167c:	f41ff06f          	j	800015bc <sprintf+0xe8>
