
/home/guodl/Desktop/ysyx/ysyx-workbench/ics2022/am-kernels/kernels/typing-game/build/typing-game-riscv64-nemu.elf:     file format elf64-littleriscv


Disassembly of section .text:

0000000080000000 <_start>:
    80000000:	00000413          	li	s0,0
    80000004:	00015117          	auipc	sp,0x15
    80000008:	ffc10113          	addi	sp,sp,-4 # 80015000 <_end>
    8000000c:	075000ef          	jal	ra,80000880 <_trm_init>

0000000080000010 <new_char>:
    80000010:	fd010113          	addi	sp,sp,-48
    80000014:	00913c23          	sd	s1,24(sp)
    80000018:	0000c497          	auipc	s1,0xc
    8000001c:	84048493          	addi	s1,s1,-1984 # 8000b858 <chars>
    80000020:	0004c783          	lbu	a5,0(s1)
    80000024:	02113423          	sd	ra,40(sp)
    80000028:	02813023          	sd	s0,32(sp)
    8000002c:	01213823          	sd	s2,16(sp)
    80000030:	01313423          	sd	s3,8(sp)
    80000034:	0c078263          	beqz	a5,800000f8 <new_char+0xe8>
    80000038:	0000c797          	auipc	a5,0xc
    8000003c:	83478793          	addi	a5,a5,-1996 # 8000b86c <chars+0x14>
    80000040:	00100413          	li	s0,1
    80000044:	08000693          	li	a3,128
    80000048:	00c0006f          	j	80000054 <new_char+0x44>
    8000004c:	0014041b          	addiw	s0,s0,1
    80000050:	08d40663          	beq	s0,a3,800000dc <new_char+0xcc>
    80000054:	0007c703          	lbu	a4,0(a5)
    80000058:	01478793          	addi	a5,a5,20
    8000005c:	fe0718e3          	bnez	a4,8000004c <new_char+0x3c>
    80000060:	80000937          	lui	s2,0x80000
    80000064:	2e5000ef          	jal	ra,80000b48 <rand>
    80000068:	fff94913          	not	s2,s2
    8000006c:	01a00793          	li	a5,26
    80000070:	01257533          	and	a0,a0,s2
    80000074:	02f5653b          	remw	a0,a0,a5
    80000078:	00241793          	slli	a5,s0,0x2
    8000007c:	00878433          	add	s0,a5,s0
    80000080:	00241413          	slli	s0,s0,0x2
    80000084:	0000c797          	auipc	a5,0xc
    80000088:	1d878793          	addi	a5,a5,472 # 8000c25c <screen_w>
    8000008c:	00848433          	add	s0,s1,s0
    80000090:	0007a983          	lw	s3,0(a5)
    80000094:	ff99899b          	addiw	s3,s3,-7
    80000098:	0415051b          	addiw	a0,a0,65
    8000009c:	00a40023          	sb	a0,0(s0)
    800000a0:	2a9000ef          	jal	ra,80000b48 <rand>
    800000a4:	01257533          	and	a0,a0,s2
    800000a8:	0335653b          	remw	a0,a0,s3
    800000ac:	00002797          	auipc	a5,0x2
    800000b0:	b9c78793          	addi	a5,a5,-1124 # 80001c48 <screen_h>
    800000b4:	0007a483          	lw	s1,0(a5)
    800000b8:	00042423          	sw	zero,8(s0)
    800000bc:	ff14849b          	addiw	s1,s1,-15
    800000c0:	00a42223          	sw	a0,4(s0)
    800000c4:	285000ef          	jal	ra,80000b48 <rand>
    800000c8:	00f57513          	andi	a0,a0,15
    800000cc:	02d5051b          	addiw	a0,a0,45
    800000d0:	02a4c4bb          	divw	s1,s1,a0
    800000d4:	00042823          	sw	zero,16(s0)
    800000d8:	00942623          	sw	s1,12(s0)
    800000dc:	02813083          	ld	ra,40(sp)
    800000e0:	02013403          	ld	s0,32(sp)
    800000e4:	01813483          	ld	s1,24(sp)
    800000e8:	01013903          	ld	s2,16(sp)
    800000ec:	00813983          	ld	s3,8(sp)
    800000f0:	03010113          	addi	sp,sp,48
    800000f4:	00008067          	ret
    800000f8:	00000413          	li	s0,0
    800000fc:	f65ff06f          	j	80000060 <new_char+0x50>

0000000080000100 <game_logic_update>:
    80000100:	00600793          	li	a5,6
    80000104:	02f567bb          	remw	a5,a0,a5
    80000108:	ff010113          	addi	sp,sp,-16
    8000010c:	00113423          	sd	ra,8(sp)
    80000110:	0a078c63          	beqz	a5,800001c8 <game_logic_update+0xc8>
    80000114:	00002797          	auipc	a5,0x2
    80000118:	b3478793          	addi	a5,a5,-1228 # 80001c48 <screen_h>
    8000011c:	0007a503          	lw	a0,0(a5)
    80000120:	0000b797          	auipc	a5,0xb
    80000124:	73078793          	addi	a5,a5,1840 # 8000b850 <miss>
    80000128:	0007a803          	lw	a6,0(a5)
    8000012c:	ff050e1b          	addiw	t3,a0,-16
    80000130:	0000b797          	auipc	a5,0xb
    80000134:	72878793          	addi	a5,a5,1832 # 8000b858 <chars>
    80000138:	0000c617          	auipc	a2,0xc
    8000013c:	12060613          	addi	a2,a2,288 # 8000c258 <hit>
    80000140:	00000893          	li	a7,0
    80000144:	01e00313          	li	t1,30
    80000148:	0180006f          	j	80000160 <game_logic_update+0x60>
    8000014c:	00b7a823          	sw	a1,16(a5)
    80000150:	00059463          	bnez	a1,80000158 <game_logic_update+0x58>
    80000154:	00078023          	sb	zero,0(a5)
    80000158:	01478793          	addi	a5,a5,20
    8000015c:	04c78a63          	beq	a5,a2,800001b0 <game_logic_update+0xb0>
    80000160:	0007c703          	lbu	a4,0(a5)
    80000164:	fe070ae3          	beqz	a4,80000158 <game_logic_update+0x58>
    80000168:	0107a703          	lw	a4,16(a5)
    8000016c:	fff7059b          	addiw	a1,a4,-1
    80000170:	fce04ee3          	bgtz	a4,8000014c <game_logic_update+0x4c>
    80000174:	0087a703          	lw	a4,8(a5)
    80000178:	00c7a683          	lw	a3,12(a5)
    8000017c:	00d7073b          	addw	a4,a4,a3
    80000180:	00e7a423          	sw	a4,8(a5)
    80000184:	02071593          	slli	a1,a4,0x20
    80000188:	0107069b          	addiw	a3,a4,16
    8000018c:	0205ca63          	bltz	a1,800001c0 <game_logic_update+0xc0>
    80000190:	fca6c4e3          	blt	a3,a0,80000158 <game_logic_update+0x58>
    80000194:	0007a623          	sw	zero,12(a5)
    80000198:	01c7a423          	sw	t3,8(a5)
    8000019c:	0067a823          	sw	t1,16(a5)
    800001a0:	01478793          	addi	a5,a5,20
    800001a4:	0018081b          	addiw	a6,a6,1
    800001a8:	00100893          	li	a7,1
    800001ac:	fac79ae3          	bne	a5,a2,80000160 <game_logic_update+0x60>
    800001b0:	02089063          	bnez	a7,800001d0 <game_logic_update+0xd0>
    800001b4:	00813083          	ld	ra,8(sp)
    800001b8:	01010113          	addi	sp,sp,16
    800001bc:	00008067          	ret
    800001c0:	00078023          	sb	zero,0(a5)
    800001c4:	fcdff06f          	j	80000190 <game_logic_update+0x90>
    800001c8:	e49ff0ef          	jal	ra,80000010 <new_char>
    800001cc:	f49ff06f          	j	80000114 <game_logic_update+0x14>
    800001d0:	0000b797          	auipc	a5,0xb
    800001d4:	6907a023          	sw	a6,1664(a5) # 8000b850 <miss>
    800001d8:	fddff06f          	j	800001b4 <game_logic_update+0xb4>

00000000800001dc <render>:
    800001dc:	f9010113          	addi	sp,sp,-112
    800001e0:	05213823          	sd	s2,80(sp)
    800001e4:	00002917          	auipc	s2,0x2
    800001e8:	85490913          	addi	s2,s2,-1964 # 80001a38 <n.1470>
    800001ec:	00092783          	lw	a5,0(s2)
    800001f0:	04913c23          	sd	s1,88(sp)
    800001f4:	06113423          	sd	ra,104(sp)
    800001f8:	06813023          	sd	s0,96(sp)
    800001fc:	05313423          	sd	s3,72(sp)
    80000200:	05413023          	sd	s4,64(sp)
    80000204:	03513c23          	sd	s5,56(sp)
    80000208:	03613823          	sd	s6,48(sp)
    8000020c:	03713423          	sd	s7,40(sp)
    80000210:	00010493          	mv	s1,sp
    80000214:	06f05663          	blez	a5,80000280 <render+0xa4>
    80000218:	00100a93          	li	s5,1
    8000021c:	024a9a93          	slli	s5,s5,0x24
    80000220:	00001a17          	auipc	s4,0x1
    80000224:	418a0a13          	addi	s4,s4,1048 # 80001638 <_bss_start>
    80000228:	00001997          	auipc	s3,0x1
    8000022c:	61098993          	addi	s3,s3,1552 # 80001838 <y.1469>
    80000230:	00000413          	li	s0,0
    80000234:	00002b17          	auipc	s6,0x2
    80000238:	814b0b13          	addi	s6,s6,-2028 # 80001a48 <blank>
    8000023c:	00010493          	mv	s1,sp
    80000240:	008a8a93          	addi	s5,s5,8
    80000244:	0009a783          	lw	a5,0(s3)
    80000248:	000a2703          	lw	a4,0(s4)
    8000024c:	00048593          	mv	a1,s1
    80000250:	00b00513          	li	a0,11
    80000254:	00f12223          	sw	a5,4(sp)
    80000258:	00e12023          	sw	a4,0(sp)
    8000025c:	01613423          	sd	s6,8(sp)
    80000260:	01513823          	sd	s5,16(sp)
    80000264:	00010c23          	sb	zero,24(sp)
    80000268:	744000ef          	jal	ra,800009ac <ioe_write>
    8000026c:	00092783          	lw	a5,0(s2)
    80000270:	0014041b          	addiw	s0,s0,1
    80000274:	004a0a13          	addi	s4,s4,4
    80000278:	00498993          	addi	s3,s3,4
    8000027c:	fcf444e3          	blt	s0,a5,80000244 <render+0x68>
    80000280:	00100993          	li	s3,1
    80000284:	02499993          	slli	s3,s3,0x24
    80000288:	00001797          	auipc	a5,0x1
    8000028c:	7a07a823          	sw	zero,1968(a5) # 80001a38 <n.1470>
    80000290:	0000b417          	auipc	s0,0xb
    80000294:	5c840413          	addi	s0,s0,1480 # 8000b858 <chars>
    80000298:	0000cb97          	auipc	s7,0xc
    8000029c:	fc0b8b93          	addi	s7,s7,-64 # 8000c258 <hit>
    800002a0:	00001b17          	auipc	s6,0x1
    800002a4:	398b0b13          	addi	s6,s6,920 # 80001638 <_bss_start>
    800002a8:	00001a97          	auipc	s5,0x1
    800002ac:	590a8a93          	addi	s5,s5,1424 # 80001838 <y.1469>
    800002b0:	00002a17          	auipc	s4,0x2
    800002b4:	9a0a0a13          	addi	s4,s4,-1632 # 80001c50 <texture>
    800002b8:	00898993          	addi	s3,s3,8
    800002bc:	0300006f          	j	800002ec <render+0x110>
    800002c0:	00e787b3          	add	a5,a5,a4
    800002c4:	00979793          	slli	a5,a5,0x9
    800002c8:	014787b3          	add	a5,a5,s4
    800002cc:	01012023          	sw	a6,0(sp)
    800002d0:	00c12223          	sw	a2,4(sp)
    800002d4:	00f13423          	sd	a5,8(sp)
    800002d8:	01313823          	sd	s3,16(sp)
    800002dc:	00010c23          	sb	zero,24(sp)
    800002e0:	6cc000ef          	jal	ra,800009ac <ioe_write>
    800002e4:	01440413          	addi	s0,s0,20
    800002e8:	07740063          	beq	s0,s7,80000348 <render+0x16c>
    800002ec:	00044703          	lbu	a4,0(s0)
    800002f0:	00048593          	mv	a1,s1
    800002f4:	00b00513          	li	a0,11
    800002f8:	fbf7079b          	addiw	a5,a4,-65
    800002fc:	fe0704e3          	beqz	a4,800002e4 <render+0x108>
    80000300:	00092703          	lw	a4,0(s2)
    80000304:	00442803          	lw	a6,4(s0)
    80000308:	00842603          	lw	a2,8(s0)
    8000030c:	00271693          	slli	a3,a4,0x2
    80000310:	00c42883          	lw	a7,12(s0)
    80000314:	00db0333          	add	t1,s6,a3
    80000318:	0017071b          	addiw	a4,a4,1
    8000031c:	00da86b3          	add	a3,s5,a3
    80000320:	00c6a023          	sw	a2,0(a3)
    80000324:	01032023          	sw	a6,0(t1)
    80000328:	00001697          	auipc	a3,0x1
    8000032c:	70e6a823          	sw	a4,1808(a3) # 80001a38 <n.1470>
    80000330:	00000713          	li	a4,0
    80000334:	f91046e3          	bgtz	a7,800002c0 <render+0xe4>
    80000338:	01a00713          	li	a4,26
    8000033c:	f80882e3          	beqz	a7,800002c0 <render+0xe4>
    80000340:	03400713          	li	a4,52
    80000344:	f7dff06f          	j	800002c0 <render+0xe4>
    80000348:	00100793          	li	a5,1
    8000034c:	00048593          	mv	a1,s1
    80000350:	00b00513          	li	a0,11
    80000354:	00013023          	sd	zero,0(sp)
    80000358:	00013423          	sd	zero,8(sp)
    8000035c:	00013823          	sd	zero,16(sp)
    80000360:	00f10c23          	sb	a5,24(sp)
    80000364:	02800413          	li	s0,40
    80000368:	644000ef          	jal	ra,800009ac <ioe_write>
    8000036c:	fff4041b          	addiw	s0,s0,-1
    80000370:	00800513          	li	a0,8
    80000374:	4f0000ef          	jal	ra,80000864 <putch>
    80000378:	fe041ae3          	bnez	s0,8000036c <render+0x190>
    8000037c:	0000b797          	auipc	a5,0xb
    80000380:	4d878793          	addi	a5,a5,1240 # 8000b854 <wrong>
    80000384:	0007a683          	lw	a3,0(a5)
    80000388:	0000b797          	auipc	a5,0xb
    8000038c:	4c878793          	addi	a5,a5,1224 # 8000b850 <miss>
    80000390:	0007a603          	lw	a2,0(a5)
    80000394:	0000c797          	auipc	a5,0xc
    80000398:	ec478793          	addi	a5,a5,-316 # 8000c258 <hit>
    8000039c:	0007a583          	lw	a1,0(a5)
    800003a0:	00001517          	auipc	a0,0x1
    800003a4:	b3850513          	addi	a0,a0,-1224 # 80000ed8 <_etext+0x110>
    800003a8:	0a9000ef          	jal	ra,80000c50 <printf>
    800003ac:	06813083          	ld	ra,104(sp)
    800003b0:	06013403          	ld	s0,96(sp)
    800003b4:	05813483          	ld	s1,88(sp)
    800003b8:	05013903          	ld	s2,80(sp)
    800003bc:	04813983          	ld	s3,72(sp)
    800003c0:	04013a03          	ld	s4,64(sp)
    800003c4:	03813a83          	ld	s5,56(sp)
    800003c8:	03013b03          	ld	s6,48(sp)
    800003cc:	02813b83          	ld	s7,40(sp)
    800003d0:	07010113          	addi	sp,sp,112
    800003d4:	00008067          	ret

00000000800003d8 <check_hit>:
    800003d8:	0000b897          	auipc	a7,0xb
    800003dc:	48088893          	addi	a7,a7,1152 # 8000b858 <chars>
    800003e0:	00088793          	mv	a5,a7
    800003e4:	00000713          	li	a4,0
    800003e8:	fff00613          	li	a2,-1
    800003ec:	fff00313          	li	t1,-1
    800003f0:	08000593          	li	a1,128
    800003f4:	0100006f          	j	80000404 <check_hit+0x2c>
    800003f8:	0017071b          	addiw	a4,a4,1
    800003fc:	01478793          	addi	a5,a5,20
    80000400:	04b70263          	beq	a4,a1,80000444 <check_hit+0x6c>
    80000404:	0007c683          	lbu	a3,0(a5)
    80000408:	fea698e3          	bne	a3,a0,800003f8 <check_hit+0x20>
    8000040c:	00261693          	slli	a3,a2,0x2
    80000410:	00c7a803          	lw	a6,12(a5)
    80000414:	00c686b3          	add	a3,a3,a2
    80000418:	00269693          	slli	a3,a3,0x2
    8000041c:	00d886b3          	add	a3,a7,a3
    80000420:	fd005ce3          	blez	a6,800003f8 <check_hit+0x20>
    80000424:	00660863          	beq	a2,t1,80000434 <check_hit+0x5c>
    80000428:	0087a803          	lw	a6,8(a5)
    8000042c:	0086a683          	lw	a3,8(a3)
    80000430:	fd06d4e3          	ble	a6,a3,800003f8 <check_hit+0x20>
    80000434:	00070613          	mv	a2,a4
    80000438:	0017071b          	addiw	a4,a4,1
    8000043c:	01478793          	addi	a5,a5,20
    80000440:	fcb712e3          	bne	a4,a1,80000404 <check_hit+0x2c>
    80000444:	fff00793          	li	a5,-1
    80000448:	04f60863          	beq	a2,a5,80000498 <check_hit+0xc0>
    8000044c:	00001797          	auipc	a5,0x1
    80000450:	7fc78793          	addi	a5,a5,2044 # 80001c48 <screen_h>
    80000454:	0007a703          	lw	a4,0(a5)
    80000458:	00f00793          	li	a5,15
    8000045c:	40e787bb          	subw	a5,a5,a4
    80000460:	01e00713          	li	a4,30
    80000464:	02e7c7bb          	divw	a5,a5,a4
    80000468:	0000c717          	auipc	a4,0xc
    8000046c:	df070713          	addi	a4,a4,-528 # 8000c258 <hit>
    80000470:	00072683          	lw	a3,0(a4)
    80000474:	00261713          	slli	a4,a2,0x2
    80000478:	00c70733          	add	a4,a4,a2
    8000047c:	00271713          	slli	a4,a4,0x2
    80000480:	00e888b3          	add	a7,a7,a4
    80000484:	0016869b          	addiw	a3,a3,1
    80000488:	0000c717          	auipc	a4,0xc
    8000048c:	dcd72823          	sw	a3,-560(a4) # 8000c258 <hit>
    80000490:	00f8a623          	sw	a5,12(a7)
    80000494:	00008067          	ret
    80000498:	0000b797          	auipc	a5,0xb
    8000049c:	3bc78793          	addi	a5,a5,956 # 8000b854 <wrong>
    800004a0:	0007a783          	lw	a5,0(a5)
    800004a4:	0017879b          	addiw	a5,a5,1
    800004a8:	0000b717          	auipc	a4,0xb
    800004ac:	3af72623          	sw	a5,940(a4) # 8000b854 <wrong>
    800004b0:	00008067          	ret

00000000800004b4 <video_init>:
    800004b4:	fa010113          	addi	sp,sp,-96
    800004b8:	00010593          	mv	a1,sp
    800004bc:	00900513          	li	a0,9
    800004c0:	04113c23          	sd	ra,88(sp)
    800004c4:	05213023          	sd	s2,64(sp)
    800004c8:	04813823          	sd	s0,80(sp)
    800004cc:	04913423          	sd	s1,72(sp)
    800004d0:	03313c23          	sd	s3,56(sp)
    800004d4:	03413823          	sd	s4,48(sp)
    800004d8:	03513423          	sd	s5,40(sp)
    800004dc:	03613023          	sd	s6,32(sp)
    800004e0:	4b0000ef          	jal	ra,80000990 <ioe_read>
    800004e4:	00412783          	lw	a5,4(sp)
    800004e8:	00010593          	mv	a1,sp
    800004ec:	00900513          	li	a0,9
    800004f0:	0000c717          	auipc	a4,0xc
    800004f4:	d6f72623          	sw	a5,-660(a4) # 8000c25c <screen_w>
    800004f8:	498000ef          	jal	ra,80000990 <ioe_read>
    800004fc:	00812703          	lw	a4,8(sp)
    80000500:	00001917          	auipc	s2,0x1
    80000504:	54890913          	addi	s2,s2,1352 # 80001a48 <blank>
    80000508:	002a16b7          	lui	a3,0x2a1
    8000050c:	00001797          	auipc	a5,0x1
    80000510:	72e7ae23          	sw	a4,1852(a5) # 80001c48 <screen_h>
    80000514:	00090793          	mv	a5,s2
    80000518:	00001617          	auipc	a2,0x1
    8000051c:	73060613          	addi	a2,a2,1840 # 80001c48 <screen_h>
    80000520:	a296869b          	addiw	a3,a3,-1495
    80000524:	00d7a023          	sw	a3,0(a5)
    80000528:	00478793          	addi	a5,a5,4
    8000052c:	fec79ce3          	bne	a5,a2,80000524 <video_init+0x70>
    80000530:	0000ca17          	auipc	s4,0xc
    80000534:	d2ca0a13          	addi	s4,s4,-724 # 8000c25c <screen_w>
    80000538:	000a2783          	lw	a5,0(s4)
    8000053c:	00000493          	li	s1,0
    80000540:	08f05063          	blez	a5,800005c0 <video_init+0x10c>
    80000544:	00001997          	auipc	s3,0x1
    80000548:	70498993          	addi	s3,s3,1796 # 80001c48 <screen_h>
    8000054c:	00800b13          	li	s6,8
    80000550:	01000a93          	li	s5,16
    80000554:	00000413          	li	s0,0
    80000558:	04e05c63          	blez	a4,800005b0 <video_init+0xfc>
    8000055c:	408706bb          	subw	a3,a4,s0
    80000560:	4097863b          	subw	a2,a5,s1
    80000564:	00812223          	sw	s0,4(sp)
    80000568:	00912023          	sw	s1,0(sp)
    8000056c:	01213423          	sd	s2,8(sp)
    80000570:	00010593          	mv	a1,sp
    80000574:	00b00513          	li	a0,11
    80000578:	00060793          	mv	a5,a2
    8000057c:	00068713          	mv	a4,a3
    80000580:	0104041b          	addiw	s0,s0,16
    80000584:	00cb5463          	ble	a2,s6,8000058c <video_init+0xd8>
    80000588:	00800793          	li	a5,8
    8000058c:	00f12823          	sw	a5,16(sp)
    80000590:	00dad463          	ble	a3,s5,80000598 <video_init+0xe4>
    80000594:	01000713          	li	a4,16
    80000598:	00e12a23          	sw	a4,20(sp)
    8000059c:	00010c23          	sb	zero,24(sp)
    800005a0:	40c000ef          	jal	ra,800009ac <ioe_write>
    800005a4:	0009a703          	lw	a4,0(s3)
    800005a8:	000a2783          	lw	a5,0(s4)
    800005ac:	fae448e3          	blt	s0,a4,8000055c <video_init+0xa8>
    800005b0:	0084849b          	addiw	s1,s1,8
    800005b4:	00f4d663          	ble	a5,s1,800005c0 <video_init+0x10c>
    800005b8:	0009a703          	lw	a4,0(s3)
    800005bc:	f99ff06f          	j	80000554 <video_init+0xa0>
    800005c0:	002a1337          	lui	t1,0x2a1
    800005c4:	000075b7          	lui	a1,0x7
    800005c8:	002a12b7          	lui	t0,0x2a1
    800005cc:	00eeffb7          	lui	t6,0xeef
    800005d0:	0000df37          	lui	t5,0xd
    800005d4:	00ff0eb7          	lui	t4,0xff0
    800005d8:	000038b7          	lui	a7,0x3
    800005dc:	00001397          	auipc	t2,0x1
    800005e0:	ec438393          	addi	t2,t2,-316 # 800014a0 <font+0x10>
    800005e4:	00001417          	auipc	s0,0x1
    800005e8:	66c40413          	addi	s0,s0,1644 # 80001c50 <texture>
    800005ec:	00001497          	auipc	s1,0x1
    800005f0:	05448493          	addi	s1,s1,84 # 80001640 <_bss_start+0x8>
    800005f4:	a293031b          	addiw	t1,t1,-1495
    800005f8:	80058593          	addi	a1,a1,-2048 # 6800 <_entry_offset+0x6800>
    800005fc:	a2928293          	addi	t0,t0,-1495 # 2a0a29 <_entry_offset+0x2a0a29>
    80000600:	eeef8f9b          	addiw	t6,t6,-274
    80000604:	c33f0f1b          	addiw	t5,t5,-973
    80000608:	033e8e93          	addi	t4,t4,51 # ff0033 <_entry_offset+0xff0033>
    8000060c:	40088893          	addi	a7,a7,1024 # 3400 <_entry_offset+0x3400>
    80000610:	ff038e13          	addi	t3,t2,-16
    80000614:	00040913          	mv	s2,s0
    80000618:	fff00813          	li	a6,-1
    8000061c:	000e4503          	lbu	a0,0(t3)
    80000620:	00090793          	mv	a5,s2
    80000624:	00700713          	li	a4,7
    80000628:	0240006f          	j	8000064c <video_init+0x198>
    8000062c:	01f7a023          	sw	t6,0(a5)
    80000630:	01e62023          	sw	t5,0(a2)
    80000634:	000e8693          	mv	a3,t4
    80000638:	01178633          	add	a2,a5,a7
    8000063c:	00d62023          	sw	a3,0(a2)
    80000640:	fff7071b          	addiw	a4,a4,-1
    80000644:	00478793          	addi	a5,a5,4
    80000648:	03070c63          	beq	a4,a6,80000680 <video_init+0x1cc>
    8000064c:	40e556bb          	sraw	a3,a0,a4
    80000650:	0016f693          	andi	a3,a3,1
    80000654:	00b78633          	add	a2,a5,a1
    80000658:	fc069ae3          	bnez	a3,8000062c <video_init+0x178>
    8000065c:	0067a023          	sw	t1,0(a5)
    80000660:	00b786b3          	add	a3,a5,a1
    80000664:	0066a023          	sw	t1,0(a3) # 2a1000 <_entry_offset+0x2a1000>
    80000668:	01178633          	add	a2,a5,a7
    8000066c:	00028693          	mv	a3,t0
    80000670:	00d62023          	sw	a3,0(a2)
    80000674:	fff7071b          	addiw	a4,a4,-1
    80000678:	00478793          	addi	a5,a5,4
    8000067c:	fd0718e3          	bne	a4,a6,8000064c <video_init+0x198>
    80000680:	001e0e13          	addi	t3,t3,1
    80000684:	02090913          	addi	s2,s2,32
    80000688:	f87e1ae3          	bne	t3,t2,8000061c <video_init+0x168>
    8000068c:	010e0393          	addi	t2,t3,16
    80000690:	20040413          	addi	s0,s0,512
    80000694:	f6749ee3          	bne	s1,t2,80000610 <video_init+0x15c>
    80000698:	05813083          	ld	ra,88(sp)
    8000069c:	05013403          	ld	s0,80(sp)
    800006a0:	04813483          	ld	s1,72(sp)
    800006a4:	04013903          	ld	s2,64(sp)
    800006a8:	03813983          	ld	s3,56(sp)
    800006ac:	03013a03          	ld	s4,48(sp)
    800006b0:	02813a83          	ld	s5,40(sp)
    800006b4:	02013b03          	ld	s6,32(sp)
    800006b8:	06010113          	addi	sp,sp,96
    800006bc:	00008067          	ret

00000000800006c0 <main>:
    800006c0:	fb010113          	addi	sp,sp,-80
    800006c4:	04113423          	sd	ra,72(sp)
    800006c8:	04813023          	sd	s0,64(sp)
    800006cc:	02913c23          	sd	s1,56(sp)
    800006d0:	03213823          	sd	s2,48(sp)
    800006d4:	03313423          	sd	s3,40(sp)
    800006d8:	03413023          	sd	s4,32(sp)
    800006dc:	01513c23          	sd	s5,24(sp)
    800006e0:	254000ef          	jal	ra,80000934 <ioe_init>
    800006e4:	dd1ff0ef          	jal	ra,800004b4 <video_init>
    800006e8:	00810593          	addi	a1,sp,8
    800006ec:	00400513          	li	a0,4
    800006f0:	2a0000ef          	jal	ra,80000990 <ioe_read>
    800006f4:	00814783          	lbu	a5,8(sp)
    800006f8:	06079063          	bnez	a5,80000758 <main+0x98>
    800006fc:	00000417          	auipc	s0,0x0
    80000700:	6cc40413          	addi	s0,s0,1740 # 80000dc8 <_etext>
    80000704:	04100513          	li	a0,65
    80000708:	00140413          	addi	s0,s0,1
    8000070c:	158000ef          	jal	ra,80000864 <putch>
    80000710:	00044503          	lbu	a0,0(s0)
    80000714:	fe051ae3          	bnez	a0,80000708 <main+0x48>
    80000718:	00000417          	auipc	s0,0x0
    8000071c:	6c040413          	addi	s0,s0,1728 # 80000dd8 <_etext+0x10>
    80000720:	07200513          	li	a0,114
    80000724:	00140413          	addi	s0,s0,1
    80000728:	13c000ef          	jal	ra,80000864 <putch>
    8000072c:	00044503          	lbu	a0,0(s0)
    80000730:	fe051ae3          	bnez	a0,80000724 <main+0x64>
    80000734:	00000417          	auipc	s0,0x0
    80000738:	6b440413          	addi	s0,s0,1716 # 80000de8 <_etext+0x20>
    8000073c:	02000513          	li	a0,32
    80000740:	00140413          	addi	s0,s0,1
    80000744:	120000ef          	jal	ra,80000864 <putch>
    80000748:	00044503          	lbu	a0,0(s0)
    8000074c:	fe051ae3          	bnez	a0,80000740 <main+0x80>
    80000750:	00100513          	li	a0,1
    80000754:	120000ef          	jal	ra,80000874 <halt>
    80000758:	00810593          	addi	a1,sp,8
    8000075c:	00700513          	li	a0,7
    80000760:	230000ef          	jal	ra,80000990 <ioe_read>
    80000764:	00814783          	lbu	a5,8(sp)
    80000768:	04079e63          	bnez	a5,800007c4 <main+0x104>
    8000076c:	00000417          	auipc	s0,0x0
    80000770:	65c40413          	addi	s0,s0,1628 # 80000dc8 <_etext>
    80000774:	04100513          	li	a0,65
    80000778:	00140413          	addi	s0,s0,1
    8000077c:	0e8000ef          	jal	ra,80000864 <putch>
    80000780:	00044503          	lbu	a0,0(s0)
    80000784:	fe051ae3          	bnez	a0,80000778 <main+0xb8>
    80000788:	00000417          	auipc	s0,0x0
    8000078c:	6c040413          	addi	s0,s0,1728 # 80000e48 <_etext+0x80>
    80000790:	07200513          	li	a0,114
    80000794:	00140413          	addi	s0,s0,1
    80000798:	0cc000ef          	jal	ra,80000864 <putch>
    8000079c:	00044503          	lbu	a0,0(s0)
    800007a0:	fe051ae3          	bnez	a0,80000794 <main+0xd4>
    800007a4:	00000417          	auipc	s0,0x0
    800007a8:	6bc40413          	addi	s0,s0,1724 # 80000e60 <_etext+0x98>
    800007ac:	02000513          	li	a0,32
    800007b0:	00140413          	addi	s0,s0,1
    800007b4:	0b0000ef          	jal	ra,80000864 <putch>
    800007b8:	00044503          	lbu	a0,0(s0)
    800007bc:	fe051ae3          	bnez	a0,800007b0 <main+0xf0>
    800007c0:	f91ff06f          	j	80000750 <main+0x90>
    800007c4:	00000517          	auipc	a0,0x0
    800007c8:	6fc50513          	addi	a0,a0,1788 # 80000ec0 <_etext+0xf8>
    800007cc:	00008a37          	lui	s4,0x8
    800007d0:	480000ef          	jal	ra,80000c50 <printf>
    800007d4:	00000a93          	li	s5,0
    800007d8:	00000413          	li	s0,0
    800007dc:	235a0a13          	addi	s4,s4,565 # 8235 <_entry_offset+0x8235>
    800007e0:	00100913          	li	s2,1
    800007e4:	00000997          	auipc	s3,0x0
    800007e8:	7ac98993          	addi	s3,s3,1964 # 80000f90 <lut>
    800007ec:	00810593          	addi	a1,sp,8
    800007f0:	00600513          	li	a0,6
    800007f4:	19c000ef          	jal	ra,80000990 <ioe_read>
    800007f8:	00813483          	ld	s1,8(sp)
    800007fc:	0344d4b3          	divu	s1,s1,s4
    80000800:	0004849b          	sext.w	s1,s1
    80000804:	00945a63          	ble	s1,s0,80000818 <main+0x158>
    80000808:	00040513          	mv	a0,s0
    8000080c:	0014041b          	addiw	s0,s0,1
    80000810:	8f1ff0ef          	jal	ra,80000100 <game_logic_update>
    80000814:	fe849ae3          	bne	s1,s0,80000808 <main+0x148>
    80000818:	00810593          	addi	a1,sp,8
    8000081c:	00800513          	li	a0,8
    80000820:	170000ef          	jal	ra,80000990 <ioe_read>
    80000824:	00c12783          	lw	a5,12(sp)
    80000828:	00814703          	lbu	a4,8(sp)
    8000082c:	02078063          	beqz	a5,8000084c <main+0x18c>
    80000830:	fe0704e3          	beqz	a4,80000818 <main+0x158>
    80000834:	03278463          	beq	a5,s2,8000085c <main+0x19c>
    80000838:	00f987b3          	add	a5,s3,a5
    8000083c:	0007c503          	lbu	a0,0(a5)
    80000840:	fc050ce3          	beqz	a0,80000818 <main+0x158>
    80000844:	b95ff0ef          	jal	ra,800003d8 <check_hit>
    80000848:	fd1ff06f          	j	80000818 <main+0x158>
    8000084c:	fa8ad0e3          	ble	s0,s5,800007ec <main+0x12c>
    80000850:	98dff0ef          	jal	ra,800001dc <render>
    80000854:	00040a93          	mv	s5,s0
    80000858:	f95ff06f          	j	800007ec <main+0x12c>
    8000085c:	00000513          	li	a0,0
    80000860:	014000ef          	jal	ra,80000874 <halt>

0000000080000864 <putch>:
    80000864:	00500793          	li	a5,5
    80000868:	01d79793          	slli	a5,a5,0x1d
    8000086c:	3ea78c23          	sb	a0,1016(a5)
    80000870:	00008067          	ret

0000000080000874 <halt>:
    80000874:	00050513          	mv	a0,a0
    80000878:	00100073          	ebreak
    8000087c:	0000006f          	j	8000087c <halt+0x8>

0000000080000880 <_trm_init>:
    80000880:	ff010113          	addi	sp,sp,-16
    80000884:	00000517          	auipc	a0,0x0
    80000888:	70450513          	addi	a0,a0,1796 # 80000f88 <mainargs>
    8000088c:	00113423          	sd	ra,8(sp)
    80000890:	e31ff0ef          	jal	ra,800006c0 <main>
    80000894:	00050513          	mv	a0,a0
    80000898:	00100073          	ebreak
    8000089c:	0000006f          	j	8000089c <_trm_init+0x1c>

00000000800008a0 <__am_timer_config>:
    800008a0:	00100793          	li	a5,1
    800008a4:	00f50023          	sb	a5,0(a0)
    800008a8:	00f500a3          	sb	a5,1(a0)
    800008ac:	00008067          	ret

00000000800008b0 <__am_input_config>:
    800008b0:	00100793          	li	a5,1
    800008b4:	00f50023          	sb	a5,0(a0)
    800008b8:	00008067          	ret

00000000800008bc <__am_uart_config>:
    800008bc:	00050023          	sb	zero,0(a0)
    800008c0:	00008067          	ret

00000000800008c4 <__am_net_config>:
    800008c4:	00050023          	sb	zero,0(a0)
    800008c8:	00008067          	ret

00000000800008cc <fail>:
    800008cc:	ff010113          	addi	sp,sp,-16
    800008d0:	00813023          	sd	s0,0(sp)
    800008d4:	00113423          	sd	ra,8(sp)
    800008d8:	00000417          	auipc	s0,0x0
    800008dc:	4f040413          	addi	s0,s0,1264 # 80000dc8 <_etext>
    800008e0:	04100513          	li	a0,65
    800008e4:	00140413          	addi	s0,s0,1
    800008e8:	f7dff0ef          	jal	ra,80000864 <putch>
    800008ec:	00044503          	lbu	a0,0(s0)
    800008f0:	fe051ae3          	bnez	a0,800008e4 <fail+0x18>
    800008f4:	00000417          	auipc	s0,0x0
    800008f8:	60440413          	addi	s0,s0,1540 # 80000ef8 <_etext+0x130>
    800008fc:	06100513          	li	a0,97
    80000900:	00140413          	addi	s0,s0,1
    80000904:	f61ff0ef          	jal	ra,80000864 <putch>
    80000908:	00044503          	lbu	a0,0(s0)
    8000090c:	fe051ae3          	bnez	a0,80000900 <fail+0x34>
    80000910:	00000417          	auipc	s0,0x0
    80000914:	60840413          	addi	s0,s0,1544 # 80000f18 <_etext+0x150>
    80000918:	02000513          	li	a0,32
    8000091c:	00140413          	addi	s0,s0,1
    80000920:	f45ff0ef          	jal	ra,80000864 <putch>
    80000924:	00044503          	lbu	a0,0(s0)
    80000928:	fe051ae3          	bnez	a0,8000091c <fail+0x50>
    8000092c:	00100513          	li	a0,1
    80000930:	f45ff0ef          	jal	ra,80000874 <halt>

0000000080000934 <ioe_init>:
    80000934:	ff010113          	addi	sp,sp,-16
    80000938:	00113423          	sd	ra,8(sp)
    8000093c:	00000797          	auipc	a5,0x0
    80000940:	75478793          	addi	a5,a5,1876 # 80001090 <lut>
    80000944:	00001697          	auipc	a3,0x1
    80000948:	b4c68693          	addi	a3,a3,-1204 # 80001490 <font>
    8000094c:	00000617          	auipc	a2,0x0
    80000950:	f8060613          	addi	a2,a2,-128 # 800008cc <fail>
    80000954:	00c0006f          	j	80000960 <ioe_init+0x2c>
    80000958:	00878793          	addi	a5,a5,8
    8000095c:	00d78c63          	beq	a5,a3,80000974 <ioe_init+0x40>
    80000960:	0007b703          	ld	a4,0(a5)
    80000964:	fe071ae3          	bnez	a4,80000958 <ioe_init+0x24>
    80000968:	00c7b023          	sd	a2,0(a5)
    8000096c:	00878793          	addi	a5,a5,8
    80000970:	fed798e3          	bne	a5,a3,80000960 <ioe_init+0x2c>
    80000974:	0e8000ef          	jal	ra,80000a5c <__am_gpu_init>
    80000978:	038000ef          	jal	ra,800009b0 <__am_timer_init>
    8000097c:	1a0000ef          	jal	ra,80000b1c <__am_audio_init>
    80000980:	00813083          	ld	ra,8(sp)
    80000984:	00100513          	li	a0,1
    80000988:	01010113          	addi	sp,sp,16
    8000098c:	00008067          	ret

0000000080000990 <ioe_read>:
    80000990:	00351513          	slli	a0,a0,0x3
    80000994:	00000797          	auipc	a5,0x0
    80000998:	6fc78793          	addi	a5,a5,1788 # 80001090 <lut>
    8000099c:	00a78533          	add	a0,a5,a0
    800009a0:	00053303          	ld	t1,0(a0)
    800009a4:	00058513          	mv	a0,a1
    800009a8:	00030067          	jr	t1 # 2a1000 <_entry_offset+0x2a1000>

00000000800009ac <ioe_write>:
    800009ac:	fe5ff06f          	j	80000990 <ioe_read>

00000000800009b0 <__am_timer_init>:
    800009b0:	00500793          	li	a5,5
    800009b4:	01d79793          	slli	a5,a5,0x1d
    800009b8:	0487a783          	lw	a5,72(a5)
    800009bc:	02079793          	slli	a5,a5,0x20
    800009c0:	0207d793          	srli	a5,a5,0x20
    800009c4:	00001717          	auipc	a4,0x1
    800009c8:	06f73e23          	sd	a5,124(a4) # 80001a40 <boot_time>
    800009cc:	00008067          	ret

00000000800009d0 <__am_timer_uptime>:
    800009d0:	00500793          	li	a5,5
    800009d4:	01d79793          	slli	a5,a5,0x1d
    800009d8:	04c7a703          	lw	a4,76(a5)
    800009dc:	0487a783          	lw	a5,72(a5)
    800009e0:	00001697          	auipc	a3,0x1
    800009e4:	06068693          	addi	a3,a3,96 # 80001a40 <boot_time>
    800009e8:	02071713          	slli	a4,a4,0x20
    800009ec:	00e53023          	sd	a4,0(a0)
    800009f0:	0006b683          	ld	a3,0(a3)
    800009f4:	02079793          	slli	a5,a5,0x20
    800009f8:	0207d793          	srli	a5,a5,0x20
    800009fc:	00e7e7b3          	or	a5,a5,a4
    80000a00:	40d787b3          	sub	a5,a5,a3
    80000a04:	00f53023          	sd	a5,0(a0)
    80000a08:	00008067          	ret

0000000080000a0c <__am_timer_rtc>:
    80000a0c:	76c00793          	li	a5,1900
    80000a10:	00052a23          	sw	zero,20(a0)
    80000a14:	00052823          	sw	zero,16(a0)
    80000a18:	00052623          	sw	zero,12(a0)
    80000a1c:	00052423          	sw	zero,8(a0)
    80000a20:	00052223          	sw	zero,4(a0)
    80000a24:	00f52023          	sw	a5,0(a0)
    80000a28:	00008067          	ret

0000000080000a2c <__am_input_keybrd>:
    80000a2c:	00500793          	li	a5,5
    80000a30:	01d79793          	slli	a5,a5,0x1d
    80000a34:	0607d783          	lhu	a5,96(a5)
    80000a38:	03079793          	slli	a5,a5,0x30
    80000a3c:	0307d793          	srli	a5,a5,0x30
    80000a40:	0107971b          	slliw	a4,a5,0x10
    80000a44:	0107571b          	srliw	a4,a4,0x10
    80000a48:	00f7571b          	srliw	a4,a4,0xf
    80000a4c:	0ff7f793          	andi	a5,a5,255
    80000a50:	00e50023          	sb	a4,0(a0)
    80000a54:	00f52223          	sw	a5,4(a0)
    80000a58:	00008067          	ret

0000000080000a5c <__am_gpu_init>:
    80000a5c:	00008067          	ret

0000000080000a60 <__am_gpu_config>:
    80000a60:	00100793          	li	a5,1
    80000a64:	00f50023          	sb	a5,0(a0)
    80000a68:	19000793          	li	a5,400
    80000a6c:	00f52223          	sw	a5,4(a0)
    80000a70:	12c00793          	li	a5,300
    80000a74:	000500a3          	sb	zero,1(a0)
    80000a78:	00f52423          	sw	a5,8(a0)
    80000a7c:	00052623          	sw	zero,12(a0)
    80000a80:	00008067          	ret

0000000080000a84 <__am_gpu_fbdraw>:
    80000a84:	01052803          	lw	a6,16(a0)
    80000a88:	00052883          	lw	a7,0(a0)
    80000a8c:	00452783          	lw	a5,4(a0)
    80000a90:	01452583          	lw	a1,20(a0)
    80000a94:	00853303          	ld	t1,8(a0)
    80000a98:	05005e63          	blez	a6,80000af4 <__am_gpu_fbdraw+0x70>
    80000a9c:	19000e93          	li	t4,400
    80000aa0:	02fe8ebb          	mulw	t4,t4,a5
    80000aa4:	0008889b          	sext.w	a7,a7
    80000aa8:	0a100e13          	li	t3,161
    80000aac:	01180f3b          	addw	t5,a6,a7
    80000ab0:	018e1e13          	slli	t3,t3,0x18
    80000ab4:	00281813          	slli	a6,a6,0x2
    80000ab8:	02b05863          	blez	a1,80000ae8 <__am_gpu_fbdraw+0x64>
    80000abc:	01d887b3          	add	a5,a7,t4
    80000ac0:	00279793          	slli	a5,a5,0x2
    80000ac4:	01c787b3          	add	a5,a5,t3
    80000ac8:	00030693          	mv	a3,t1
    80000acc:	00000713          	li	a4,0
    80000ad0:	0006a603          	lw	a2,0(a3)
    80000ad4:	0017071b          	addiw	a4,a4,1
    80000ad8:	010686b3          	add	a3,a3,a6
    80000adc:	00c7a023          	sw	a2,0(a5)
    80000ae0:	64078793          	addi	a5,a5,1600
    80000ae4:	fee596e3          	bne	a1,a4,80000ad0 <__am_gpu_fbdraw+0x4c>
    80000ae8:	0018889b          	addiw	a7,a7,1
    80000aec:	00430313          	addi	t1,t1,4
    80000af0:	fde894e3          	bne	a7,t5,80000ab8 <__am_gpu_fbdraw+0x34>
    80000af4:	01854783          	lbu	a5,24(a0)
    80000af8:	00078a63          	beqz	a5,80000b0c <__am_gpu_fbdraw+0x88>
    80000afc:	00500793          	li	a5,5
    80000b00:	01d79793          	slli	a5,a5,0x1d
    80000b04:	00100713          	li	a4,1
    80000b08:	10e7a223          	sw	a4,260(a5)
    80000b0c:	00008067          	ret

0000000080000b10 <__am_gpu_status>:
    80000b10:	00100793          	li	a5,1
    80000b14:	00f50023          	sb	a5,0(a0)
    80000b18:	00008067          	ret

0000000080000b1c <__am_audio_init>:
    80000b1c:	00008067          	ret

0000000080000b20 <__am_audio_config>:
    80000b20:	00050023          	sb	zero,0(a0)
    80000b24:	00008067          	ret

0000000080000b28 <__am_audio_ctrl>:
    80000b28:	00008067          	ret

0000000080000b2c <__am_audio_status>:
    80000b2c:	00052023          	sw	zero,0(a0)
    80000b30:	00008067          	ret

0000000080000b34 <__am_audio_play>:
    80000b34:	00008067          	ret

0000000080000b38 <__am_disk_config>:
    80000b38:	00050023          	sb	zero,0(a0)
    80000b3c:	00008067          	ret

0000000080000b40 <__am_disk_status>:
    80000b40:	00008067          	ret

0000000080000b44 <__am_disk_blkio>:
    80000b44:	00008067          	ret

0000000080000b48 <rand>:
    80000b48:	00001697          	auipc	a3,0x1
    80000b4c:	ae868693          	addi	a3,a3,-1304 # 80001630 <next>
    80000b50:	0006b783          	ld	a5,0(a3)
    80000b54:	41c65737          	lui	a4,0x41c65
    80000b58:	e6d70713          	addi	a4,a4,-403 # 41c64e6d <_entry_offset+0x41c64e6d>
    80000b5c:	02e787b3          	mul	a5,a5,a4
    80000b60:	00003737          	lui	a4,0x3
    80000b64:	03970713          	addi	a4,a4,57 # 3039 <_entry_offset+0x3039>
    80000b68:	00e787b3          	add	a5,a5,a4
    80000b6c:	02179513          	slli	a0,a5,0x21
    80000b70:	00f6b023          	sd	a5,0(a3)
    80000b74:	03155513          	srli	a0,a0,0x31
    80000b78:	00008067          	ret

0000000080000b7c <printint>:
    80000b7c:	00051463          	bnez	a0,80000b84 <printint+0x8>
    80000b80:	00008067          	ret
    80000b84:	fe010113          	addi	sp,sp,-32
    80000b88:	00913423          	sd	s1,8(sp)
    80000b8c:	00a00493          	li	s1,10
    80000b90:	00813823          	sd	s0,16(sp)
    80000b94:	00050413          	mv	s0,a0
    80000b98:	0295453b          	divw	a0,a0,s1
    80000b9c:	00113c23          	sd	ra,24(sp)
    80000ba0:	fddff0ef          	jal	ra,80000b7c <printint>
    80000ba4:	0294653b          	remw	a0,s0,s1
    80000ba8:	01013403          	ld	s0,16(sp)
    80000bac:	01813083          	ld	ra,24(sp)
    80000bb0:	00813483          	ld	s1,8(sp)
    80000bb4:	02010113          	addi	sp,sp,32
    80000bb8:	0305051b          	addiw	a0,a0,48
    80000bbc:	0ff57513          	andi	a0,a0,255
    80000bc0:	ca5ff06f          	j	80000864 <putch>

0000000080000bc4 <printhex>:
    80000bc4:	fe010113          	addi	sp,sp,-32
    80000bc8:	00913423          	sd	s1,8(sp)
    80000bcc:	00113c23          	sd	ra,24(sp)
    80000bd0:	00813823          	sd	s0,16(sp)
    80000bd4:	0005049b          	sext.w	s1,a0
    80000bd8:	04048063          	beqz	s1,80000c18 <printhex+0x54>
    80000bdc:	00050413          	mv	s0,a0
    80000be0:	0044d51b          	srliw	a0,s1,0x4
    80000be4:	0005051b          	sext.w	a0,a0
    80000be8:	00100593          	li	a1,1
    80000bec:	fd9ff0ef          	jal	ra,80000bc4 <printhex>
    80000bf0:	00f4f493          	andi	s1,s1,15
    80000bf4:	00900793          	li	a5,9
    80000bf8:	00f47513          	andi	a0,s0,15
    80000bfc:	0297fe63          	bleu	s1,a5,80000c38 <printhex+0x74>
    80000c00:	05750513          	addi	a0,a0,87
    80000c04:	01013403          	ld	s0,16(sp)
    80000c08:	01813083          	ld	ra,24(sp)
    80000c0c:	00813483          	ld	s1,8(sp)
    80000c10:	02010113          	addi	sp,sp,32
    80000c14:	c51ff06f          	j	80000864 <putch>
    80000c18:	00100793          	li	a5,1
    80000c1c:	03000513          	li	a0,48
    80000c20:	fef592e3          	bne	a1,a5,80000c04 <printhex+0x40>
    80000c24:	01813083          	ld	ra,24(sp)
    80000c28:	01013403          	ld	s0,16(sp)
    80000c2c:	00813483          	ld	s1,8(sp)
    80000c30:	02010113          	addi	sp,sp,32
    80000c34:	00008067          	ret
    80000c38:	01013403          	ld	s0,16(sp)
    80000c3c:	01813083          	ld	ra,24(sp)
    80000c40:	00813483          	ld	s1,8(sp)
    80000c44:	03050513          	addi	a0,a0,48
    80000c48:	02010113          	addi	sp,sp,32
    80000c4c:	c19ff06f          	j	80000864 <putch>

0000000080000c50 <printf>:
    80000c50:	f6010113          	addi	sp,sp,-160
    80000c54:	08f13423          	sd	a5,136(sp)
    80000c58:	06810793          	addi	a5,sp,104
    80000c5c:	04813823          	sd	s0,80(sp)
    80000c60:	05213023          	sd	s2,64(sp)
    80000c64:	03313c23          	sd	s3,56(sp)
    80000c68:	03413823          	sd	s4,48(sp)
    80000c6c:	03513423          	sd	s5,40(sp)
    80000c70:	03613023          	sd	s6,32(sp)
    80000c74:	01713c23          	sd	s7,24(sp)
    80000c78:	04113c23          	sd	ra,88(sp)
    80000c7c:	04913423          	sd	s1,72(sp)
    80000c80:	00050413          	mv	s0,a0
    80000c84:	06b13423          	sd	a1,104(sp)
    80000c88:	06c13823          	sd	a2,112(sp)
    80000c8c:	06d13c23          	sd	a3,120(sp)
    80000c90:	08e13023          	sd	a4,128(sp)
    80000c94:	09013823          	sd	a6,144(sp)
    80000c98:	09113c23          	sd	a7,152(sp)
    80000c9c:	00f13423          	sd	a5,8(sp)
    80000ca0:	02500913          	li	s2,37
    80000ca4:	06400993          	li	s3,100
    80000ca8:	00a00b93          	li	s7,10
    80000cac:	07300a13          	li	s4,115
    80000cb0:	07800b13          	li	s6,120
    80000cb4:	06300a93          	li	s5,99
    80000cb8:	00044503          	lbu	a0,0(s0)
    80000cbc:	00050c63          	beqz	a0,80000cd4 <printf+0x84>
    80000cc0:	05250263          	beq	a0,s2,80000d04 <printf+0xb4>
    80000cc4:	ba1ff0ef          	jal	ra,80000864 <putch>
    80000cc8:	00140413          	addi	s0,s0,1
    80000ccc:	00044503          	lbu	a0,0(s0)
    80000cd0:	fe0518e3          	bnez	a0,80000cc0 <printf+0x70>
    80000cd4:	05813083          	ld	ra,88(sp)
    80000cd8:	05013403          	ld	s0,80(sp)
    80000cdc:	04813483          	ld	s1,72(sp)
    80000ce0:	04013903          	ld	s2,64(sp)
    80000ce4:	03813983          	ld	s3,56(sp)
    80000ce8:	03013a03          	ld	s4,48(sp)
    80000cec:	02813a83          	ld	s5,40(sp)
    80000cf0:	02013b03          	ld	s6,32(sp)
    80000cf4:	01813b83          	ld	s7,24(sp)
    80000cf8:	00100513          	li	a0,1
    80000cfc:	0a010113          	addi	sp,sp,160
    80000d00:	00008067          	ret
    80000d04:	00144503          	lbu	a0,1(s0)
    80000d08:	00240413          	addi	s0,s0,2
    80000d0c:	05350463          	beq	a0,s3,80000d54 <printf+0x104>
    80000d10:	02a9f463          	bleu	a0,s3,80000d38 <printf+0xe8>
    80000d14:	07450c63          	beq	a0,s4,80000d8c <printf+0x13c>
    80000d18:	07651663          	bne	a0,s6,80000d84 <printf+0x134>
    80000d1c:	00813783          	ld	a5,8(sp)
    80000d20:	00000593          	li	a1,0
    80000d24:	0007a503          	lw	a0,0(a5)
    80000d28:	00878793          	addi	a5,a5,8
    80000d2c:	00f13423          	sd	a5,8(sp)
    80000d30:	e95ff0ef          	jal	ra,80000bc4 <printhex>
    80000d34:	f85ff06f          	j	80000cb8 <printf+0x68>
    80000d38:	05551663          	bne	a0,s5,80000d84 <printf+0x134>
    80000d3c:	00813783          	ld	a5,8(sp)
    80000d40:	0007c503          	lbu	a0,0(a5)
    80000d44:	00878793          	addi	a5,a5,8
    80000d48:	00f13423          	sd	a5,8(sp)
    80000d4c:	b19ff0ef          	jal	ra,80000864 <putch>
    80000d50:	f69ff06f          	j	80000cb8 <printf+0x68>
    80000d54:	00813783          	ld	a5,8(sp)
    80000d58:	0007a483          	lw	s1,0(a5)
    80000d5c:	00878793          	addi	a5,a5,8
    80000d60:	00f13423          	sd	a5,8(sp)
    80000d64:	f4048ae3          	beqz	s1,80000cb8 <printf+0x68>
    80000d68:	0374c53b          	divw	a0,s1,s7
    80000d6c:	e11ff0ef          	jal	ra,80000b7c <printint>
    80000d70:	0374e53b          	remw	a0,s1,s7
    80000d74:	0305051b          	addiw	a0,a0,48
    80000d78:	0ff57513          	andi	a0,a0,255
    80000d7c:	ae9ff0ef          	jal	ra,80000864 <putch>
    80000d80:	f39ff06f          	j	80000cb8 <printf+0x68>
    80000d84:	ae1ff0ef          	jal	ra,80000864 <putch>
    80000d88:	f31ff06f          	j	80000cb8 <printf+0x68>
    80000d8c:	00813783          	ld	a5,8(sp)
    80000d90:	0007b483          	ld	s1,0(a5)
    80000d94:	00878793          	addi	a5,a5,8
    80000d98:	00f13423          	sd	a5,8(sp)
    80000d9c:	0004c503          	lbu	a0,0(s1)
    80000da0:	f0050ce3          	beqz	a0,80000cb8 <printf+0x68>
    80000da4:	00148493          	addi	s1,s1,1
    80000da8:	abdff0ef          	jal	ra,80000864 <putch>
    80000dac:	0004c503          	lbu	a0,0(s1)
    80000db0:	f00504e3          	beqz	a0,80000cb8 <printf+0x68>
    80000db4:	00148493          	addi	s1,s1,1
    80000db8:	aadff0ef          	jal	ra,80000864 <putch>
    80000dbc:	0004c503          	lbu	a0,0(s1)
    80000dc0:	fe0512e3          	bnez	a0,80000da4 <printf+0x154>
    80000dc4:	ef5ff06f          	j	80000cb8 <printf+0x68>
