
/home/guodl/Desktop/ysyx/ysyx-workbench/ics2022/am-kernels/tests/am-tests/build/amtest-riscv64-nemu.elf:     file format elf64-littleriscv


Disassembly of section .text:

0000000080000000 <_start>:
    80000000:	00000413          	li	s0,0
    80000004:	0009e117          	auipc	sp,0x9e
    80000008:	ffc10113          	addi	sp,sp,-4 # 8009e000 <_end>
    8000000c:	7d1000ef          	jal	ra,80000fdc <_trm_init>

0000000080000010 <main>:
    80000010:	fd010113          	addi	sp,sp,-48
    80000014:	02113423          	sd	ra,40(sp)
    80000018:	02813023          	sd	s0,32(sp)
    8000001c:	00913c23          	sd	s1,24(sp)
    80000020:	01213823          	sd	s2,16(sp)
    80000024:	01313423          	sd	s3,8(sp)
    80000028:	00054783          	lbu	a5,0(a0)
    8000002c:	01500713          	li	a4,21
    80000030:	f9f7879b          	addiw	a5,a5,-97
    80000034:	0ff7f793          	andi	a5,a5,255
    80000038:	16f76063          	bltu	a4,a5,80000198 <main+0x188>
    8000003c:	00002717          	auipc	a4,0x2
    80000040:	91470713          	addi	a4,a4,-1772 # 80001950 <_etext>
    80000044:	00279793          	slli	a5,a5,0x2
    80000048:	00e787b3          	add	a5,a5,a4
    8000004c:	0007a783          	lw	a5,0(a5)
    80000050:	00e787b3          	add	a5,a5,a4
    80000054:	00078067          	jr	a5
    80000058:	00000797          	auipc	a5,0x0
    8000005c:	75878793          	addi	a5,a5,1880 # 800007b0 <video_test>
    80000060:	00095717          	auipc	a4,0x95
    80000064:	1cf73423          	sd	a5,456(a4) # 80095228 <entry>
    80000068:	028010ef          	jal	ra,80001090 <ioe_init>
    8000006c:	744000ef          	jal	ra,800007b0 <video_test>
    80000070:	02813083          	ld	ra,40(sp)
    80000074:	02013403          	ld	s0,32(sp)
    80000078:	01813483          	ld	s1,24(sp)
    8000007c:	01013903          	ld	s2,16(sp)
    80000080:	00813983          	ld	s3,8(sp)
    80000084:	00000513          	li	a0,0
    80000088:	03010113          	addi	sp,sp,48
    8000008c:	00008067          	ret
    80000090:	00000797          	auipc	a5,0x0
    80000094:	17878793          	addi	a5,a5,376 # 80000208 <audio_test>
    80000098:	00095717          	auipc	a4,0x95
    8000009c:	18f73823          	sd	a5,400(a4) # 80095228 <entry>
    800000a0:	7f1000ef          	jal	ra,80001090 <ioe_init>
    800000a4:	164000ef          	jal	ra,80000208 <audio_test>
    800000a8:	fc9ff06f          	j	80000070 <main+0x60>
    800000ac:	00000797          	auipc	a5,0x0
    800000b0:	7b078793          	addi	a5,a5,1968 # 8000085c <devscan>
    800000b4:	00095717          	auipc	a4,0x95
    800000b8:	16f73a23          	sd	a5,372(a4) # 80095228 <entry>
    800000bc:	7d5000ef          	jal	ra,80001090 <ioe_init>
    800000c0:	79c000ef          	jal	ra,8000085c <devscan>
    800000c4:	fadff06f          	j	80000070 <main+0x60>
    800000c8:	00000797          	auipc	a5,0x0
    800000cc:	32478793          	addi	a5,a5,804 # 800003ec <hello>
    800000d0:	00095717          	auipc	a4,0x95
    800000d4:	14f73c23          	sd	a5,344(a4) # 80095228 <entry>
    800000d8:	314000ef          	jal	ra,800003ec <hello>
    800000dc:	f95ff06f          	j	80000070 <main+0x60>
    800000e0:	00000797          	auipc	a5,0x0
    800000e4:	29c78793          	addi	a5,a5,668 # 8000037c <hello_intr>
    800000e8:	00095717          	auipc	a4,0x95
    800000ec:	14f73023          	sd	a5,320(a4) # 80095228 <entry>
    800000f0:	7a1000ef          	jal	ra,80001090 <ioe_init>
    800000f4:	00000517          	auipc	a0,0x0
    800000f8:	24c50513          	addi	a0,a0,588 # 80000340 <simple_trap>
    800000fc:	2d8010ef          	jal	ra,800013d4 <cte_init>
    80000100:	27c000ef          	jal	ra,8000037c <hello_intr>
    80000104:	f6dff06f          	j	80000070 <main+0x60>
    80000108:	00001797          	auipc	a5,0x1
    8000010c:	9f078793          	addi	a5,a5,-1552 # 80000af8 <keyboard_test>
    80000110:	00095717          	auipc	a4,0x95
    80000114:	10f73c23          	sd	a5,280(a4) # 80095228 <entry>
    80000118:	779000ef          	jal	ra,80001090 <ioe_init>
    8000011c:	1dd000ef          	jal	ra,80000af8 <keyboard_test>
    80000120:	f51ff06f          	j	80000070 <main+0x60>
    80000124:	00000797          	auipc	a5,0x0
    80000128:	0bc78793          	addi	a5,a5,188 # 800001e0 <mp_print>
    8000012c:	00078513          	mv	a0,a5
    80000130:	00095717          	auipc	a4,0x95
    80000134:	0ef73c23          	sd	a5,248(a4) # 80095228 <entry>
    80000138:	16c010ef          	jal	ra,800012a4 <mpe_init>
    8000013c:	0a4000ef          	jal	ra,800001e0 <mp_print>
    80000140:	f31ff06f          	j	80000070 <main+0x60>
    80000144:	00001797          	auipc	a5,0x1
    80000148:	c4478793          	addi	a5,a5,-956 # 80000d88 <vm_test>
    8000014c:	00001517          	auipc	a0,0x1
    80000150:	afc50513          	addi	a0,a0,-1284 # 80000c48 <vm_handler>
    80000154:	00095717          	auipc	a4,0x95
    80000158:	0cf73a23          	sd	a5,212(a4) # 80095228 <entry>
    8000015c:	278010ef          	jal	ra,800013d4 <cte_init>
    80000160:	00001597          	auipc	a1,0x1
    80000164:	ae458593          	addi	a1,a1,-1308 # 80000c44 <simple_pgfree>
    80000168:	00001517          	auipc	a0,0x1
    8000016c:	a8c50513          	addi	a0,a0,-1396 # 80000bf4 <simple_pgalloc>
    80000170:	3d4010ef          	jal	ra,80001544 <vme_init>
    80000174:	415000ef          	jal	ra,80000d88 <vm_test>
    80000178:	ef9ff06f          	j	80000070 <main+0x60>
    8000017c:	00001797          	auipc	a5,0x1
    80000180:	d8478793          	addi	a5,a5,-636 # 80000f00 <rtc_test>
    80000184:	00095717          	auipc	a4,0x95
    80000188:	0af73223          	sd	a5,164(a4) # 80095228 <entry>
    8000018c:	705000ef          	jal	ra,80001090 <ioe_init>
    80000190:	571000ef          	jal	ra,80000f00 <rtc_test>
    80000194:	eddff06f          	j	80000070 <main+0x60>
    80000198:	00002517          	auipc	a0,0x2
    8000019c:	81050513          	addi	a0,a0,-2032 # 800019a8 <_etext+0x58>
    800001a0:	638010ef          	jal	ra,800017d8 <printf>
    800001a4:	00002497          	auipc	s1,0x2
    800001a8:	90448493          	addi	s1,s1,-1788 # 80001aa8 <tests+0x8>
    800001ac:	00000413          	li	s0,0
    800001b0:	10000913          	li	s2,256
    800001b4:	00002997          	auipc	s3,0x2
    800001b8:	81498993          	addi	s3,s3,-2028 # 800019c8 <_etext+0x78>
    800001bc:	0014041b          	addiw	s0,s0,1
    800001c0:	eb2408e3          	beq	s0,s2,80000070 <main+0x60>
    800001c4:	0004b603          	ld	a2,0(s1)
    800001c8:	00060863          	beqz	a2,800001d8 <main+0x1c8>
    800001cc:	00040593          	mv	a1,s0
    800001d0:	00098513          	mv	a0,s3
    800001d4:	604010ef          	jal	ra,800017d8 <printf>
    800001d8:	00848493          	addi	s1,s1,8
    800001dc:	fe1ff06f          	j	800001bc <main+0x1ac>

00000000800001e0 <mp_print>:
    800001e0:	ff010113          	addi	sp,sp,-16
    800001e4:	00813023          	sd	s0,0(sp)
    800001e8:	00113423          	sd	ra,8(sp)
    800001ec:	00002417          	auipc	s0,0x2
    800001f0:	0b440413          	addi	s0,s0,180 # 800022a0 <tests+0x800>
    800001f4:	11c010ef          	jal	ra,80001310 <cpu_current>
    800001f8:	00050593          	mv	a1,a0
    800001fc:	00040513          	mv	a0,s0
    80000200:	5d8010ef          	jal	ra,800017d8 <printf>
    80000204:	ff1ff06f          	j	800001f4 <mp_print+0x14>

0000000080000208 <audio_test>:
    80000208:	fc010113          	addi	sp,sp,-64
    8000020c:	00010593          	mv	a1,sp
    80000210:	00e00513          	li	a0,14
    80000214:	02113c23          	sd	ra,56(sp)
    80000218:	02813823          	sd	s0,48(sp)
    8000021c:	02913423          	sd	s1,40(sp)
    80000220:	03213023          	sd	s2,32(sp)
    80000224:	01313c23          	sd	s3,24(sp)
    80000228:	01413823          	sd	s4,16(sp)
    8000022c:	6c1000ef          	jal	ra,800010ec <ioe_read>
    80000230:	00014783          	lbu	a5,0(sp)
    80000234:	0c078c63          	beqz	a5,8000030c <audio_test+0x104>
    80000238:	040007b7          	lui	a5,0x4000
    8000023c:	07d78793          	addi	a5,a5,125 # 400007d <_entry_offset+0x400007d>
    80000240:	00679793          	slli	a5,a5,0x6
    80000244:	00f13023          	sd	a5,0(sp)
    80000248:	00010593          	mv	a1,sp
    8000024c:	40000793          	li	a5,1024
    80000250:	00f00513          	li	a0,15
    80000254:	00f12423          	sw	a5,8(sp)
    80000258:	6b1000ef          	jal	ra,80001108 <ioe_write>
    8000025c:	00003717          	auipc	a4,0x3
    80000260:	b4c70713          	addi	a4,a4,-1204 # 80002da8 <audio_payload>
    80000264:	00011917          	auipc	s2,0x11
    80000268:	95090913          	addi	s2,s2,-1712 # 80010bb4 <_data>
    8000026c:	40e9093b          	subw	s2,s2,a4
    80000270:	06090463          	beqz	s2,800002d8 <audio_test+0xd0>
    80000274:	00000413          	li	s0,0
    80000278:	00000793          	li	a5,0
    8000027c:	00001a37          	lui	s4,0x1
    80000280:	00002997          	auipc	s3,0x2
    80000284:	06098993          	addi	s3,s3,96 # 800022e0 <tests+0x840>
    80000288:	40f907bb          	subw	a5,s2,a5
    8000028c:	0007869b          	sext.w	a3,a5
    80000290:	00010593          	mv	a1,sp
    80000294:	01100513          	li	a0,17
    80000298:	00da7463          	bleu	a3,s4,800002a0 <audio_test+0x98>
    8000029c:	000017b7          	lui	a5,0x1
    800002a0:	02079493          	slli	s1,a5,0x20
    800002a4:	0204d493          	srli	s1,s1,0x20
    800002a8:	009704b3          	add	s1,a4,s1
    800002ac:	0087843b          	addw	s0,a5,s0
    800002b0:	00e13023          	sd	a4,0(sp)
    800002b4:	00913423          	sd	s1,8(sp)
    800002b8:	651000ef          	jal	ra,80001108 <ioe_write>
    800002bc:	00090613          	mv	a2,s2
    800002c0:	00040593          	mv	a1,s0
    800002c4:	00098513          	mv	a0,s3
    800002c8:	510010ef          	jal	ra,800017d8 <printf>
    800002cc:	00040793          	mv	a5,s0
    800002d0:	00048713          	mv	a4,s1
    800002d4:	fb246ae3          	bltu	s0,s2,80000288 <audio_test+0x80>
    800002d8:	00010593          	mv	a1,sp
    800002dc:	01000513          	li	a0,16
    800002e0:	60d000ef          	jal	ra,800010ec <ioe_read>
    800002e4:	00012783          	lw	a5,0(sp)
    800002e8:	fef048e3          	bgtz	a5,800002d8 <audio_test+0xd0>
    800002ec:	03813083          	ld	ra,56(sp)
    800002f0:	03013403          	ld	s0,48(sp)
    800002f4:	02813483          	ld	s1,40(sp)
    800002f8:	02013903          	ld	s2,32(sp)
    800002fc:	01813983          	ld	s3,24(sp)
    80000300:	01013a03          	ld	s4,16(sp)
    80000304:	04010113          	addi	sp,sp,64
    80000308:	00008067          	ret
    8000030c:	00002597          	auipc	a1,0x2
    80000310:	f9c58593          	addi	a1,a1,-100 # 800022a8 <tests+0x808>
    80000314:	00002517          	auipc	a0,0x2
    80000318:	fa450513          	addi	a0,a0,-92 # 800022b8 <tests+0x818>
    8000031c:	4bc010ef          	jal	ra,800017d8 <printf>
    80000320:	03813083          	ld	ra,56(sp)
    80000324:	03013403          	ld	s0,48(sp)
    80000328:	02813483          	ld	s1,40(sp)
    8000032c:	02013903          	ld	s2,32(sp)
    80000330:	01813983          	ld	s3,24(sp)
    80000334:	01013a03          	ld	s4,16(sp)
    80000338:	04010113          	addi	sp,sp,64
    8000033c:	00008067          	ret

0000000080000340 <simple_trap>:
    80000340:	00052703          	lw	a4,0(a0)
    80000344:	00500793          	li	a5,5
    80000348:	00f70663          	beq	a4,a5,80000354 <simple_trap+0x14>
    8000034c:	00058513          	mv	a0,a1
    80000350:	00008067          	ret
    80000354:	fe010113          	addi	sp,sp,-32
    80000358:	07400513          	li	a0,116
    8000035c:	00113c23          	sd	ra,24(sp)
    80000360:	00b13423          	sd	a1,8(sp)
    80000364:	45d000ef          	jal	ra,80000fc0 <putch>
    80000368:	00813583          	ld	a1,8(sp)
    8000036c:	01813083          	ld	ra,24(sp)
    80000370:	00058513          	mv	a0,a1
    80000374:	02010113          	addi	sp,sp,32
    80000378:	00008067          	ret

000000008000037c <hello_intr>:
    8000037c:	fe010113          	addi	sp,sp,-32
    80000380:	00002517          	auipc	a0,0x2
    80000384:	f8850513          	addi	a0,a0,-120 # 80002308 <tests+0x868>
    80000388:	00113c23          	sd	ra,24(sp)
    8000038c:	00813823          	sd	s0,16(sp)
    80000390:	448010ef          	jal	ra,800017d8 <printf>
    80000394:	00002517          	auipc	a0,0x2
    80000398:	f9450513          	addi	a0,a0,-108 # 80002328 <tests+0x888>
    8000039c:	43c010ef          	jal	ra,800017d8 <printf>
    800003a0:	00810593          	addi	a1,sp,8
    800003a4:	00700513          	li	a0,7
    800003a8:	545000ef          	jal	ra,800010ec <ioe_read>
    800003ac:	00100513          	li	a0,1
    800003b0:	00989437          	lui	s0,0x989
    800003b4:	04c010ef          	jal	ra,80001400 <iset>
    800003b8:	67f40413          	addi	s0,s0,1663 # 98967f <_entry_offset+0x98967f>
    800003bc:	00012423          	sw	zero,8(sp)
    800003c0:	00812783          	lw	a5,8(sp)
    800003c4:	0007879b          	sext.w	a5,a5
    800003c8:	00f44e63          	blt	s0,a5,800003e4 <hello_intr+0x68>
    800003cc:	00812783          	lw	a5,8(sp)
    800003d0:	0017879b          	addiw	a5,a5,1
    800003d4:	00f12423          	sw	a5,8(sp)
    800003d8:	00812783          	lw	a5,8(sp)
    800003dc:	0007879b          	sext.w	a5,a5
    800003e0:	fef456e3          	ble	a5,s0,800003cc <hello_intr+0x50>
    800003e4:	010010ef          	jal	ra,800013f4 <yield>
    800003e8:	fd5ff06f          	j	800003bc <hello_intr+0x40>

00000000800003ec <hello>:
    800003ec:	fe010113          	addi	sp,sp,-32
    800003f0:	00913423          	sd	s1,8(sp)
    800003f4:	00113c23          	sd	ra,24(sp)
    800003f8:	00813823          	sd	s0,16(sp)
    800003fc:	00a00493          	li	s1,10
    80000400:	00002417          	auipc	s0,0x2
    80000404:	f0840413          	addi	s0,s0,-248 # 80002308 <tests+0x868>
    80000408:	04800513          	li	a0,72
    8000040c:	00140413          	addi	s0,s0,1
    80000410:	3b1000ef          	jal	ra,80000fc0 <putch>
    80000414:	00044503          	lbu	a0,0(s0)
    80000418:	fe051ae3          	bnez	a0,8000040c <hello+0x20>
    8000041c:	fff4849b          	addiw	s1,s1,-1
    80000420:	fe0490e3          	bnez	s1,80000400 <hello+0x14>
    80000424:	01813083          	ld	ra,24(sp)
    80000428:	01013403          	ld	s0,16(sp)
    8000042c:	00813483          	ld	s1,8(sp)
    80000430:	02010113          	addi	sp,sp,32
    80000434:	00008067          	ret

0000000080000438 <redraw>:
    80000438:	f7010113          	addi	sp,sp,-144
    8000043c:	00010593          	mv	a1,sp
    80000440:	00900513          	li	a0,9
    80000444:	08113423          	sd	ra,136(sp)
    80000448:	08813023          	sd	s0,128(sp)
    8000044c:	07213823          	sd	s2,112(sp)
    80000450:	07413023          	sd	s4,96(sp)
    80000454:	05513c23          	sd	s5,88(sp)
    80000458:	06913c23          	sd	s1,120(sp)
    8000045c:	07313423          	sd	s3,104(sp)
    80000460:	05613823          	sd	s6,80(sp)
    80000464:	05713423          	sd	s7,72(sp)
    80000468:	05813023          	sd	s8,64(sp)
    8000046c:	03913c23          	sd	s9,56(sp)
    80000470:	03a13823          	sd	s10,48(sp)
    80000474:	03b13423          	sd	s11,40(sp)
    80000478:	475000ef          	jal	ra,800010ec <ioe_read>
    8000047c:	00412783          	lw	a5,4(sp)
    80000480:	00010593          	mv	a1,sp
    80000484:	00900513          	li	a0,9
    80000488:	41f7d41b          	sraiw	s0,a5,0x1f
    8000048c:	01b4541b          	srliw	s0,s0,0x1b
    80000490:	00f4043b          	addw	s0,s0,a5
    80000494:	459000ef          	jal	ra,800010ec <ioe_read>
    80000498:	00812783          	lw	a5,8(sp)
    8000049c:	40545a1b          	sraiw	s4,s0,0x5
    800004a0:	40000713          	li	a4,1024
    800004a4:	41f7d91b          	sraiw	s2,a5,0x1f
    800004a8:	01b9591b          	srliw	s2,s2,0x1b
    800004ac:	00f9093b          	addw	s2,s2,a5
    800004b0:	4059591b          	sraiw	s2,s2,0x5
    800004b4:	032a0abb          	mulw	s5,s4,s2
    800004b8:	0f576c63          	bltu	a4,s5,800005b0 <redraw+0x178>
    800004bc:	fffa841b          	addiw	s0,s5,-1
    800004c0:	02041413          	slli	s0,s0,0x20
    800004c4:	01e45413          	srli	s0,s0,0x1e
    800004c8:	00012797          	auipc	a5,0x12
    800004cc:	b2478793          	addi	a5,a5,-1244 # 80011fec <color_buf+0x4>
    800004d0:	00011997          	auipc	s3,0x11
    800004d4:	b9898993          	addi	s3,s3,-1128 # 80011068 <_bss_start+0x80>
    800004d8:	00012c17          	auipc	s8,0x12
    800004dc:	b90c0c13          	addi	s8,s8,-1136 # 80012068 <color_buf+0x80>
    800004e0:	00012497          	auipc	s1,0x12
    800004e4:	b0848493          	addi	s1,s1,-1272 # 80011fe8 <color_buf>
    800004e8:	00f40433          	add	s0,s0,a5
    800004ec:	00000c93          	li	s9,0
    800004f0:	000a0b9b          	sext.w	s7,s4
    800004f4:	000c8b1b          	sext.w	s6,s9
    800004f8:	f8098d13          	addi	s10,s3,-128
    800004fc:	00000d93          	li	s11,0
    80000500:	000a8c63          	beqz	s5,80000518 <redraw+0xe0>
    80000504:	000d2703          	lw	a4,0(s10)
    80000508:	00048793          	mv	a5,s1
    8000050c:	00e7a023          	sw	a4,0(a5)
    80000510:	00478793          	addi	a5,a5,4
    80000514:	fe879ce3          	bne	a5,s0,8000050c <redraw+0xd4>
    80000518:	004d0d13          	addi	s10,s10,4
    8000051c:	00010593          	mv	a1,sp
    80000520:	00b00513          	li	a0,11
    80000524:	01b12023          	sw	s11,0(sp)
    80000528:	01612223          	sw	s6,4(sp)
    8000052c:	00913423          	sd	s1,8(sp)
    80000530:	01412823          	sw	s4,16(sp)
    80000534:	01212a23          	sw	s2,20(sp)
    80000538:	00010c23          	sb	zero,24(sp)
    8000053c:	017d8dbb          	addw	s11,s11,s7
    80000540:	3c9000ef          	jal	ra,80001108 <ioe_write>
    80000544:	fb3d1ee3          	bne	s10,s3,80000500 <redraw+0xc8>
    80000548:	080d0993          	addi	s3,s10,128
    8000054c:	01990cbb          	addw	s9,s2,s9
    80000550:	fb8992e3          	bne	s3,s8,800004f4 <redraw+0xbc>
    80000554:	00010593          	mv	a1,sp
    80000558:	00100793          	li	a5,1
    8000055c:	00b00513          	li	a0,11
    80000560:	00013023          	sd	zero,0(sp)
    80000564:	00013423          	sd	zero,8(sp)
    80000568:	00013823          	sd	zero,16(sp)
    8000056c:	00f10c23          	sb	a5,24(sp)
    80000570:	399000ef          	jal	ra,80001108 <ioe_write>
    80000574:	08813083          	ld	ra,136(sp)
    80000578:	08013403          	ld	s0,128(sp)
    8000057c:	07813483          	ld	s1,120(sp)
    80000580:	07013903          	ld	s2,112(sp)
    80000584:	06813983          	ld	s3,104(sp)
    80000588:	06013a03          	ld	s4,96(sp)
    8000058c:	05813a83          	ld	s5,88(sp)
    80000590:	05013b03          	ld	s6,80(sp)
    80000594:	04813b83          	ld	s7,72(sp)
    80000598:	04013c03          	ld	s8,64(sp)
    8000059c:	03813c83          	ld	s9,56(sp)
    800005a0:	03013d03          	ld	s10,48(sp)
    800005a4:	02813d83          	ld	s11,40(sp)
    800005a8:	09010113          	addi	sp,sp,144
    800005ac:	00008067          	ret
    800005b0:	01700613          	li	a2,23
    800005b4:	00002597          	auipc	a1,0x2
    800005b8:	dbc58593          	addi	a1,a1,-580 # 80002370 <dy.1475+0x10>
    800005bc:	00002517          	auipc	a0,0x2
    800005c0:	e1450513          	addi	a0,a0,-492 # 800023d0 <dy.1475+0x70>
    800005c4:	214010ef          	jal	ra,800017d8 <printf>
    800005c8:	00100513          	li	a0,1
    800005cc:	205000ef          	jal	ra,80000fd0 <halt>

00000000800005d0 <update>:
    800005d0:	00095797          	auipc	a5,0x95
    800005d4:	c6078793          	addi	a5,a5,-928 # 80095230 <tsc.1473>
    800005d8:	0007a703          	lw	a4,0(a5)
    800005dc:	fe010113          	addi	sp,sp,-32
    800005e0:	00013f97          	auipc	t6,0x13
    800005e4:	a08f8f93          	addi	t6,t6,-1528 # 80012fe8 <used>
    800005e8:	0017039b          	addiw	t2,a4,1
    800005ec:	00095697          	auipc	a3,0x95
    800005f0:	c476a223          	sw	t2,-956(a3) # 80095230 <tsc.1473>
    800005f4:	00813c23          	sd	s0,24(sp)
    800005f8:	00913823          	sd	s1,16(sp)
    800005fc:	01213423          	sd	s2,8(sp)
    80000600:	01313023          	sd	s3,0(sp)
    80000604:	000f8793          	mv	a5,t6
    80000608:	00014697          	auipc	a3,0x14
    8000060c:	9e068693          	addi	a3,a3,-1568 # 80013fe8 <buf.1464>
    80000610:	08078713          	addi	a4,a5,128
    80000614:	0007a023          	sw	zero,0(a5)
    80000618:	00478793          	addi	a5,a5,4
    8000061c:	fef71ce3          	bne	a4,a5,80000614 <update+0x44>
    80000620:	fed718e3          	bne	a4,a3,80000610 <update+0x40>
    80000624:	0ff3f693          	andi	a3,t2,255
    80000628:	0016979b          	slliw	a5,a3,0x1
    8000062c:	00d787bb          	addw	a5,a5,a3
    80000630:	0036971b          	slliw	a4,a3,0x3
    80000634:	40d7073b          	subw	a4,a4,a3
    80000638:	0017979b          	slliw	a5,a5,0x1
    8000063c:	0ff7f793          	andi	a5,a5,255
    80000640:	0ff77713          	andi	a4,a4,255
    80000644:	0087171b          	slliw	a4,a4,0x8
    80000648:	0107979b          	slliw	a5,a5,0x10
    8000064c:	00e7e7b3          	or	a5,a5,a4
    80000650:	0ff3f713          	andi	a4,t2,255
    80000654:	00e7e7b3          	or	a5,a5,a4
    80000658:	00011717          	auipc	a4,0x11
    8000065c:	98f72823          	sw	a5,-1648(a4) # 80010fe8 <_bss_start>
    80000660:	00100793          	li	a5,1
    80000664:	00013717          	auipc	a4,0x13
    80000668:	98f72223          	sw	a5,-1660(a4) # 80012fe8 <used>
    8000066c:	00100693          	li	a3,1
    80000670:	00000713          	li	a4,0
    80000674:	00100f13          	li	t5,1
    80000678:	00000593          	li	a1,0
    8000067c:	00000e93          	li	t4,0
    80000680:	00000e13          	li	t3,0
    80000684:	01f00813          	li	a6,31
    80000688:	00002317          	auipc	t1,0x2
    8000068c:	cc830313          	addi	t1,t1,-824 # 80002350 <dx.1474>
    80000690:	00002897          	auipc	a7,0x2
    80000694:	cd088893          	addi	a7,a7,-816 # 80002360 <dy.1475>
    80000698:	00100493          	li	s1,1
    8000069c:	00011417          	auipc	s0,0x11
    800006a0:	94c40413          	addi	s0,s0,-1716 # 80010fe8 <_bss_start>
    800006a4:	40000293          	li	t0,1024
    800006a8:	00400613          	li	a2,4
    800006ac:	00ee07bb          	addw	a5,t3,a4
    800006b0:	fff6061b          	addiw	a2,a2,-1
    800006b4:	00158713          	addi	a4,a1,1
    800006b8:	00de86bb          	addw	a3,t4,a3
    800006bc:	02f86063          	bltu	a6,a5,800006dc <update+0x10c>
    800006c0:	00579513          	slli	a0,a5,0x5
    800006c4:	00d50533          	add	a0,a0,a3
    800006c8:	00251513          	slli	a0,a0,0x2
    800006cc:	00af8933          	add	s2,t6,a0
    800006d0:	00d86663          	bltu	a6,a3,800006dc <update+0x10c>
    800006d4:	00092983          	lw	s3,0(s2)
    800006d8:	06098463          	beqz	s3,80000740 <update+0x170>
    800006dc:	00377593          	andi	a1,a4,3
    800006e0:	00259793          	slli	a5,a1,0x2
    800006e4:	00f30733          	add	a4,t1,a5
    800006e8:	00f887b3          	add	a5,a7,a5
    800006ec:	02060a63          	beqz	a2,80000720 <update+0x150>
    800006f0:	00072703          	lw	a4,0(a4)
    800006f4:	0007a683          	lw	a3,0(a5)
    800006f8:	fff6061b          	addiw	a2,a2,-1
    800006fc:	00ee07bb          	addw	a5,t3,a4
    80000700:	00de86bb          	addw	a3,t4,a3
    80000704:	00158713          	addi	a4,a1,1
    80000708:	faf87ce3          	bleu	a5,a6,800006c0 <update+0xf0>
    8000070c:	00377593          	andi	a1,a4,3
    80000710:	00259793          	slli	a5,a1,0x2
    80000714:	00f30733          	add	a4,t1,a5
    80000718:	00f887b3          	add	a5,a7,a5
    8000071c:	fc061ae3          	bnez	a2,800006f0 <update+0x120>
    80000720:	001f0f1b          	addiw	t5,t5,1
    80000724:	065f0a63          	beq	t5,t0,80000798 <update+0x1c8>
    80000728:	00259793          	slli	a5,a1,0x2
    8000072c:	00f30733          	add	a4,t1,a5
    80000730:	00f887b3          	add	a5,a7,a5
    80000734:	00072703          	lw	a4,0(a4)
    80000738:	0007a683          	lw	a3,0(a5)
    8000073c:	f6dff06f          	j	800006a8 <update+0xd8>
    80000740:	401f5e1b          	sraiw	t3,t5,0x1
    80000744:	007e0e3b          	addw	t3,t3,t2
    80000748:	0ffe7e93          	andi	t4,t3,255
    8000074c:	001e971b          	slliw	a4,t4,0x1
    80000750:	01d7073b          	addw	a4,a4,t4
    80000754:	003e961b          	slliw	a2,t4,0x3
    80000758:	41d6063b          	subw	a2,a2,t4
    8000075c:	0017171b          	slliw	a4,a4,0x1
    80000760:	0ff77713          	andi	a4,a4,255
    80000764:	0ff67613          	andi	a2,a2,255
    80000768:	0107171b          	slliw	a4,a4,0x10
    8000076c:	0086161b          	slliw	a2,a2,0x8
    80000770:	0ffe7e13          	andi	t3,t3,255
    80000774:	00c76733          	or	a4,a4,a2
    80000778:	01c76733          	or	a4,a4,t3
    8000077c:	00a40533          	add	a0,s0,a0
    80000780:	00992023          	sw	s1,0(s2)
    80000784:	00e52023          	sw	a4,0(a0)
    80000788:	001f0f1b          	addiw	t5,t5,1
    8000078c:	00068e93          	mv	t4,a3
    80000790:	00078e13          	mv	t3,a5
    80000794:	f85f1ae3          	bne	t5,t0,80000728 <update+0x158>
    80000798:	01813403          	ld	s0,24(sp)
    8000079c:	01013483          	ld	s1,16(sp)
    800007a0:	00813903          	ld	s2,8(sp)
    800007a4:	00013983          	ld	s3,0(sp)
    800007a8:	02010113          	addi	sp,sp,32
    800007ac:	00008067          	ret

00000000800007b0 <video_test>:
    800007b0:	fb010113          	addi	sp,sp,-80
    800007b4:	02913c23          	sd	s1,56(sp)
    800007b8:	03213823          	sd	s2,48(sp)
    800007bc:	03313423          	sd	s3,40(sp)
    800007c0:	03413023          	sd	s4,32(sp)
    800007c4:	01513c23          	sd	s5,24(sp)
    800007c8:	01613823          	sd	s6,16(sp)
    800007cc:	04113423          	sd	ra,72(sp)
    800007d0:	04813023          	sd	s0,64(sp)
    800007d4:	00000493          	li	s1,0
    800007d8:	00000993          	li	s3,0
    800007dc:	00000a13          	li	s4,0
    800007e0:	3e800913          	li	s2,1000
    800007e4:	02100b13          	li	s6,33
    800007e8:	00002a97          	auipc	s5,0x2
    800007ec:	c08a8a93          	addi	s5,s5,-1016 # 800023f0 <dy.1475+0x90>
    800007f0:	00810593          	addi	a1,sp,8
    800007f4:	00600513          	li	a0,6
    800007f8:	0f5000ef          	jal	ra,800010ec <ioe_read>
    800007fc:	00813403          	ld	s0,8(sp)
    80000800:	03245433          	divu	s0,s0,s2
    80000804:	414407b3          	sub	a5,s0,s4
    80000808:	04fb6063          	bltu	s6,a5,80000848 <video_test+0x98>
    8000080c:	413407b3          	sub	a5,s0,s3
    80000810:	00048613          	mv	a2,s1
    80000814:	00040593          	mv	a1,s0
    80000818:	000a8513          	mv	a0,s5
    8000081c:	fcf97ae3          	bleu	a5,s2,800007f0 <video_test+0x40>
    80000820:	7b9000ef          	jal	ra,800017d8 <printf>
    80000824:	00810593          	addi	a1,sp,8
    80000828:	00600513          	li	a0,6
    8000082c:	0c1000ef          	jal	ra,800010ec <ioe_read>
    80000830:	00040993          	mv	s3,s0
    80000834:	00813403          	ld	s0,8(sp)
    80000838:	00000493          	li	s1,0
    8000083c:	03245433          	divu	s0,s0,s2
    80000840:	414407b3          	sub	a5,s0,s4
    80000844:	fcfb74e3          	bleu	a5,s6,8000080c <video_test+0x5c>
    80000848:	d89ff0ef          	jal	ra,800005d0 <update>
    8000084c:	0014849b          	addiw	s1,s1,1
    80000850:	be9ff0ef          	jal	ra,80000438 <redraw>
    80000854:	00040a13          	mv	s4,s0
    80000858:	fb5ff06f          	j	8000080c <video_test+0x5c>

000000008000085c <devscan>:
    8000085c:	00010797          	auipc	a5,0x10
    80000860:	37478793          	addi	a5,a5,884 # 80010bd0 <heap>
    80000864:	0007b583          	ld	a1,0(a5)
    80000868:	0087b603          	ld	a2,8(a5)
    8000086c:	fb010113          	addi	sp,sp,-80
    80000870:	00002517          	auipc	a0,0x2
    80000874:	b9050513          	addi	a0,a0,-1136 # 80002400 <dy.1475+0xa0>
    80000878:	04113423          	sd	ra,72(sp)
    8000087c:	03213823          	sd	s2,48(sp)
    80000880:	04813023          	sd	s0,64(sp)
    80000884:	02913c23          	sd	s1,56(sp)
    80000888:	03313423          	sd	s3,40(sp)
    8000088c:	03413023          	sd	s4,32(sp)
    80000890:	749000ef          	jal	ra,800017d8 <printf>
    80000894:	00002517          	auipc	a0,0x2
    80000898:	b8450513          	addi	a0,a0,-1148 # 80002418 <dy.1475+0xb8>
    8000089c:	73d000ef          	jal	ra,800017d8 <printf>
    800008a0:	00810593          	addi	a1,sp,8
    800008a4:	00600513          	li	a0,6
    800008a8:	045000ef          	jal	ra,800010ec <ioe_read>
    800008ac:	00813903          	ld	s2,8(sp)
    800008b0:	3e800793          	li	a5,1000
    800008b4:	00012223          	sw	zero,4(sp)
    800008b8:	02f95933          	divu	s2,s2,a5
    800008bc:	00412703          	lw	a4,4(sp)
    800008c0:	009897b7          	lui	a5,0x989
    800008c4:	67f78793          	addi	a5,a5,1663 # 98967f <_entry_offset+0x98967f>
    800008c8:	0007071b          	sext.w	a4,a4
    800008cc:	0009091b          	sext.w	s2,s2
    800008d0:	00e7ce63          	blt	a5,a4,800008ec <devscan+0x90>
    800008d4:	00412703          	lw	a4,4(sp)
    800008d8:	0017071b          	addiw	a4,a4,1
    800008dc:	00e12223          	sw	a4,4(sp)
    800008e0:	00412703          	lw	a4,4(sp)
    800008e4:	0007071b          	sext.w	a4,a4
    800008e8:	fee7d6e3          	ble	a4,a5,800008d4 <devscan+0x78>
    800008ec:	00810593          	addi	a1,sp,8
    800008f0:	00600513          	li	a0,6
    800008f4:	7f8000ef          	jal	ra,800010ec <ioe_read>
    800008f8:	00813583          	ld	a1,8(sp)
    800008fc:	3e800793          	li	a5,1000
    80000900:	00002517          	auipc	a0,0x2
    80000904:	b3850513          	addi	a0,a0,-1224 # 80002438 <dy.1475+0xd8>
    80000908:	02f5d5b3          	divu	a1,a1,a5
    8000090c:	00014417          	auipc	s0,0x14
    80000910:	9ac40413          	addi	s0,s0,-1620 # 800142b8 <vmem+0xd0>
    80000914:	00094497          	auipc	s1,0x94
    80000918:	8d448493          	addi	s1,s1,-1836 # 800941e8 <prot>
    8000091c:	412585bb          	subw	a1,a1,s2
    80000920:	6b9000ef          	jal	ra,800017d8 <printf>
    80000924:	00810593          	addi	a1,sp,8
    80000928:	00900513          	li	a0,9
    8000092c:	7c0000ef          	jal	ra,800010ec <ioe_read>
    80000930:	00c12903          	lw	s2,12(sp)
    80000934:	01012983          	lw	s3,16(sp)
    80000938:	00002517          	auipc	a0,0x2
    8000093c:	b2050513          	addi	a0,a0,-1248 # 80002458 <dy.1475+0xf8>
    80000940:	00090593          	mv	a1,s2
    80000944:	00098613          	mv	a2,s3
    80000948:	691000ef          	jal	ra,800017d8 <printf>
    8000094c:	585000ef          	jal	ra,800016d0 <rand>
    80000950:	00a40023          	sb	a0,0(s0)
    80000954:	00140413          	addi	s0,s0,1
    80000958:	fe941ae3          	bne	s0,s1,8000094c <devscan+0xf0>
    8000095c:	41f9579b          	sraiw	a5,s2,0x1f
    80000960:	01f9571b          	srliw	a4,s2,0x1f
    80000964:	01e7d79b          	srliw	a5,a5,0x1e
    80000968:	ffff06b7          	lui	a3,0xffff0
    8000096c:	012787bb          	addw	a5,a5,s2
    80000970:	0127073b          	addw	a4,a4,s2
    80000974:	0016869b          	addiw	a3,a3,1
    80000978:	4017571b          	sraiw	a4,a4,0x1
    8000097c:	4027d79b          	sraiw	a5,a5,0x2
    80000980:	fff00613          	li	a2,-1
    80000984:	f9c9899b          	addiw	s3,s3,-100
    80000988:	00014817          	auipc	a6,0x14
    8000098c:	86d82023          	sw	a3,-1952(a6) # 800141e8 <vmem>
    80000990:	fff00693          	li	a3,-1
    80000994:	00014817          	auipc	a6,0x14
    80000998:	84d81c23          	sh	a3,-1960(a6) # 800141ec <vmem+0x4>
    8000099c:	00014697          	auipc	a3,0x14
    800009a0:	84f69923          	sh	a5,-1966(a3) # 800141ee <vmem+0x6>
    800009a4:	00014797          	auipc	a5,0x14
    800009a8:	84e79723          	sh	a4,-1970(a5) # 800141f2 <vmem+0xa>
    800009ac:	00014797          	auipc	a5,0x14
    800009b0:	84c79523          	sh	a2,-1974(a5) # 800141f6 <vmem+0xe>
    800009b4:	00014797          	auipc	a5,0x14
    800009b8:	84c79223          	sh	a2,-1980(a5) # 800141f8 <vmem+0x10>
    800009bc:	00014797          	auipc	a5,0x14
    800009c0:	83379c23          	sh	s3,-1992(a5) # 800141f4 <vmem+0xc>
    800009c4:	00014797          	auipc	a5,0x14
    800009c8:	82079623          	sh	zero,-2004(a5) # 800141f0 <vmem+0x8>
    800009cc:	02500793          	li	a5,37
    800009d0:	00014717          	auipc	a4,0x14
    800009d4:	82f71523          	sh	a5,-2006(a4) # 800141fa <vmem+0x12>
    800009d8:	00a00793          	li	a5,10
    800009dc:	00014717          	auipc	a4,0x14
    800009e0:	82f71023          	sh	a5,-2016(a4) # 800141fc <vmem+0x14>
    800009e4:	0d000793          	li	a5,208
    800009e8:	00014717          	auipc	a4,0x14
    800009ec:	80f71b23          	sh	a5,-2026(a4) # 800141fe <vmem+0x16>
    800009f0:	00014797          	auipc	a5,0x14
    800009f4:	80079823          	sh	zero,-2032(a5) # 80014200 <vmem+0x18>
    800009f8:	00013797          	auipc	a5,0x13
    800009fc:	7f078793          	addi	a5,a5,2032 # 800141e8 <vmem>
    80000a00:	00810593          	addi	a1,sp,8
    80000a04:	00c00513          	li	a0,12
    80000a08:	00f13823          	sd	a5,16(sp)
    80000a0c:	000807b7          	lui	a5,0x80
    80000a10:	00f12c23          	sw	a5,24(sp)
    80000a14:	00012423          	sw	zero,8(sp)
    80000a18:	6f0000ef          	jal	ra,80001108 <ioe_write>
    80000a1c:	00d00513          	li	a0,13
    80000a20:	00810593          	addi	a1,sp,8
    80000a24:	00012423          	sw	zero,8(sp)
    80000a28:	6e0000ef          	jal	ra,80001108 <ioe_write>
    80000a2c:	00810593          	addi	a1,sp,8
    80000a30:	01200513          	li	a0,18
    80000a34:	6b8000ef          	jal	ra,800010ec <ioe_read>
    80000a38:	00c12403          	lw	s0,12(sp)
    80000a3c:	01012583          	lw	a1,16(sp)
    80000a40:	00002517          	auipc	a0,0x2
    80000a44:	a3050513          	addi	a0,a0,-1488 # 80002470 <dy.1475+0x110>
    80000a48:	00040613          	mv	a2,s0
    80000a4c:	58d000ef          	jal	ra,800017d8 <printf>
    80000a50:	20000793          	li	a5,512
    80000a54:	0287c7bb          	divw	a5,a5,s0
    80000a58:	00810593          	addi	a1,sp,8
    80000a5c:	01400513          	li	a0,20
    80000a60:	00013717          	auipc	a4,0x13
    80000a64:	58870713          	addi	a4,a4,1416 # 80013fe8 <buf.1464>
    80000a68:	00010423          	sb	zero,8(sp)
    80000a6c:	00e13823          	sd	a4,16(sp)
    80000a70:	00012c23          	sw	zero,24(sp)
    80000a74:	00002997          	auipc	s3,0x2
    80000a78:	a3498993          	addi	s3,s3,-1484 # 800024a8 <dy.1475+0x148>
    80000a7c:	00013497          	auipc	s1,0x13
    80000a80:	56e48493          	addi	s1,s1,1390 # 80013fea <buf.1464+0x2>
    80000a84:	00200413          	li	s0,2
    80000a88:	00002a17          	auipc	s4,0x2
    80000a8c:	878a0a13          	addi	s4,s4,-1928 # 80002300 <tests+0x860>
    80000a90:	20000913          	li	s2,512
    80000a94:	00f12e23          	sw	a5,28(sp)
    80000a98:	670000ef          	jal	ra,80001108 <ioe_write>
    80000a9c:	00013617          	auipc	a2,0x13
    80000aa0:	54d64603          	lbu	a2,1357(a2) # 80013fe9 <buf.1464+0x1>
    80000aa4:	00013597          	auipc	a1,0x13
    80000aa8:	5445c583          	lbu	a1,1348(a1) # 80013fe8 <buf.1464>
    80000aac:	00098513          	mv	a0,s3
    80000ab0:	529000ef          	jal	ra,800017d8 <printf>
    80000ab4:	0014c603          	lbu	a2,1(s1)
    80000ab8:	0004c583          	lbu	a1,0(s1)
    80000abc:	00098513          	mv	a0,s3
    80000ac0:	0024041b          	addiw	s0,s0,2
    80000ac4:	515000ef          	jal	ra,800017d8 <printf>
    80000ac8:	01f47793          	andi	a5,s0,31
    80000acc:	00248493          	addi	s1,s1,2
    80000ad0:	00078c63          	beqz	a5,80000ae8 <devscan+0x28c>
    80000ad4:	ff2410e3          	bne	s0,s2,80000ab4 <devscan+0x258>
    80000ad8:	00002517          	auipc	a0,0x2
    80000adc:	9e050513          	addi	a0,a0,-1568 # 800024b8 <dy.1475+0x158>
    80000ae0:	4f9000ef          	jal	ra,800017d8 <printf>
    80000ae4:	0000006f          	j	80000ae4 <devscan+0x288>
    80000ae8:	000a0513          	mv	a0,s4
    80000aec:	4ed000ef          	jal	ra,800017d8 <printf>
    80000af0:	fd2412e3          	bne	s0,s2,80000ab4 <devscan+0x258>
    80000af4:	fe5ff06f          	j	80000ad8 <devscan+0x27c>

0000000080000af8 <keyboard_test>:
    80000af8:	fc010113          	addi	sp,sp,-64
    80000afc:	00002517          	auipc	a0,0x2
    80000b00:	9dc50513          	addi	a0,a0,-1572 # 800024d8 <dy.1475+0x178>
    80000b04:	02113c23          	sd	ra,56(sp)
    80000b08:	02813823          	sd	s0,48(sp)
    80000b0c:	02913423          	sd	s1,40(sp)
    80000b10:	03213023          	sd	s2,32(sp)
    80000b14:	01313c23          	sd	s3,24(sp)
    80000b18:	4c1000ef          	jal	ra,800017d8 <printf>
    80000b1c:	00810593          	addi	a1,sp,8
    80000b20:	00100513          	li	a0,1
    80000b24:	5c8000ef          	jal	ra,800010ec <ioe_read>
    80000b28:	00814783          	lbu	a5,8(sp)
    80000b2c:	00810593          	addi	a1,sp,8
    80000b30:	00700513          	li	a0,7
    80000b34:	00094717          	auipc	a4,0x94
    80000b38:	70f700a3          	sb	a5,1793(a4) # 80095235 <has_uart>
    80000b3c:	5b0000ef          	jal	ra,800010ec <ioe_read>
    80000b40:	00814783          	lbu	a5,8(sp)
    80000b44:	00002997          	auipc	s3,0x2
    80000b48:	9f498993          	addi	s3,s3,-1548 # 80002538 <names>
    80000b4c:	00002917          	auipc	s2,0x2
    80000b50:	98490913          	addi	s2,s2,-1660 # 800024d0 <dy.1475+0x170>
    80000b54:	00094717          	auipc	a4,0x94
    80000b58:	6ef70023          	sb	a5,1760(a4) # 80095234 <has_kbd>
    80000b5c:	00002497          	auipc	s1,0x2
    80000b60:	96c48493          	addi	s1,s1,-1684 # 800024c8 <dy.1475+0x168>
    80000b64:	00002417          	auipc	s0,0x2
    80000b68:	9bc40413          	addi	s0,s0,-1604 # 80002520 <dy.1475+0x1c0>
    80000b6c:	00094717          	auipc	a4,0x94
    80000b70:	6c974703          	lbu	a4,1737(a4) # 80095235 <has_uart>
    80000b74:	02070663          	beqz	a4,80000ba0 <keyboard_test+0xa8>
    80000b78:	00002417          	auipc	s0,0x2
    80000b7c:	99040413          	addi	s0,s0,-1648 # 80002508 <dy.1475+0x1a8>
    80000b80:	00810593          	addi	a1,sp,8
    80000b84:	00300513          	li	a0,3
    80000b88:	564000ef          	jal	ra,800010ec <ioe_read>
    80000b8c:	00814603          	lbu	a2,8(sp)
    80000b90:	00040513          	mv	a0,s0
    80000b94:	00060593          	mv	a1,a2
    80000b98:	441000ef          	jal	ra,800017d8 <printf>
    80000b9c:	fe5ff06f          	j	80000b80 <keyboard_test+0x88>
    80000ba0:	04078863          	beqz	a5,80000bf0 <keyboard_test+0xf8>
    80000ba4:	00800513          	li	a0,8
    80000ba8:	00810593          	addi	a1,sp,8
    80000bac:	540000ef          	jal	ra,800010ec <ioe_read>
    80000bb0:	00c12703          	lw	a4,12(sp)
    80000bb4:	00040513          	mv	a0,s0
    80000bb8:	00814803          	lbu	a6,8(sp)
    80000bbc:	00371793          	slli	a5,a4,0x3
    80000bc0:	00f987b3          	add	a5,s3,a5
    80000bc4:	00070613          	mv	a2,a4
    80000bc8:	00070e63          	beqz	a4,80000be4 <keyboard_test+0xec>
    80000bcc:	0007b583          	ld	a1,0(a5) # 80000 <_entry_offset+0x80000>
    80000bd0:	00090693          	mv	a3,s2
    80000bd4:	00080463          	beqz	a6,80000bdc <keyboard_test+0xe4>
    80000bd8:	00048693          	mv	a3,s1
    80000bdc:	3fd000ef          	jal	ra,800017d8 <printf>
    80000be0:	fc5ff06f          	j	80000ba4 <keyboard_test+0xac>
    80000be4:	00094797          	auipc	a5,0x94
    80000be8:	6507c783          	lbu	a5,1616(a5) # 80095234 <has_kbd>
    80000bec:	f81ff06f          	j	80000b6c <keyboard_test+0x74>
    80000bf0:	0000006f          	j	80000bf0 <keyboard_test+0xf8>

0000000080000bf4 <simple_pgalloc>:
    80000bf4:	00094797          	auipc	a5,0x94
    80000bf8:	64478793          	addi	a5,a5,1604 # 80095238 <st>
    80000bfc:	0007b783          	ld	a5,0(a5)
    80000c00:	00079863          	bnez	a5,80000c10 <simple_pgalloc+0x1c>
    80000c04:	00010797          	auipc	a5,0x10
    80000c08:	fcc78793          	addi	a5,a5,-52 # 80010bd0 <heap>
    80000c0c:	0007b783          	ld	a5,0(a5)
    80000c10:	02a7f733          	remu	a4,a5,a0
    80000c14:	00070e63          	beqz	a4,80000c30 <simple_pgalloc+0x3c>
    80000c18:	00178793          	addi	a5,a5,1
    80000c1c:	0080006f          	j	80000c24 <simple_pgalloc+0x30>
    80000c20:	00068793          	mv	a5,a3
    80000c24:	02a7f733          	remu	a4,a5,a0
    80000c28:	00178693          	addi	a3,a5,1
    80000c2c:	fe071ae3          	bnez	a4,80000c20 <simple_pgalloc+0x2c>
    80000c30:	00f50533          	add	a0,a0,a5
    80000c34:	00094717          	auipc	a4,0x94
    80000c38:	60a73223          	sd	a0,1540(a4) # 80095238 <st>
    80000c3c:	00078513          	mv	a0,a5
    80000c40:	00008067          	ret

0000000080000c44 <simple_pgfree>:
    80000c44:	00008067          	ret

0000000080000c48 <vm_handler>:
    80000c48:	00052703          	lw	a4,0(a0)
    80000c4c:	fe010113          	addi	sp,sp,-32
    80000c50:	00113c23          	sd	ra,24(sp)
    80000c54:	00813823          	sd	s0,16(sp)
    80000c58:	00600793          	li	a5,6
    80000c5c:	10e7e663          	bltu	a5,a4,80000d68 <vm_handler+0x120>
    80000c60:	00056783          	lwu	a5,0(a0)
    80000c64:	00002717          	auipc	a4,0x2
    80000c68:	e1870713          	addi	a4,a4,-488 # 80002a7c <names+0x544>
    80000c6c:	00058413          	mv	s0,a1
    80000c70:	00279793          	slli	a5,a5,0x2
    80000c74:	00e787b3          	add	a5,a5,a4
    80000c78:	0007a783          	lw	a5,0(a5)
    80000c7c:	00e787b3          	add	a5,a5,a4
    80000c80:	00078067          	jr	a5
    80000c84:	00853783          	ld	a5,8(a0)
    80000c88:	01053583          	ld	a1,16(a0)
    80000c8c:	00002697          	auipc	a3,0x2
    80000c90:	e0c68693          	addi	a3,a3,-500 # 80002a98 <names+0x560>
    80000c94:	0017f713          	andi	a4,a5,1
    80000c98:	00071663          	bnez	a4,80000ca4 <vm_handler+0x5c>
    80000c9c:	00002697          	auipc	a3,0x2
    80000ca0:	01c68693          	addi	a3,a3,28 # 80002cb8 <names+0x780>
    80000ca4:	0027f793          	andi	a5,a5,2
    80000ca8:	00002717          	auipc	a4,0x2
    80000cac:	e0070713          	addi	a4,a4,-512 # 80002aa8 <names+0x570>
    80000cb0:	00079663          	bnez	a5,80000cbc <vm_handler+0x74>
    80000cb4:	00002717          	auipc	a4,0x2
    80000cb8:	00470713          	addi	a4,a4,4 # 80002cb8 <names+0x780>
    80000cbc:	00002617          	auipc	a2,0x2
    80000cc0:	ffc60613          	addi	a2,a2,-4 # 80002cb8 <names+0x780>
    80000cc4:	00002517          	auipc	a0,0x2
    80000cc8:	e1450513          	addi	a0,a0,-492 # 80002ad8 <names+0x5a0>
    80000ccc:	30d000ef          	jal	ra,800017d8 <printf>
    80000cd0:	00010797          	auipc	a5,0x10
    80000cd4:	ef878793          	addi	a5,a5,-264 # 80010bc8 <first_trap>
    80000cd8:	0007a783          	lw	a5,0(a5)
    80000cdc:	00040513          	mv	a0,s0
    80000ce0:	00078c63          	beqz	a5,80000cf8 <vm_handler+0xb0>
    80000ce4:	00094797          	auipc	a5,0x94
    80000ce8:	55c78793          	addi	a5,a5,1372 # 80095240 <uctx>
    80000cec:	0007b503          	ld	a0,0(a5)
    80000cf0:	00010797          	auipc	a5,0x10
    80000cf4:	ec07ac23          	sw	zero,-296(a5) # 80010bc8 <first_trap>
    80000cf8:	01813083          	ld	ra,24(sp)
    80000cfc:	01013403          	ld	s0,16(sp)
    80000d00:	02010113          	addi	sp,sp,32
    80000d04:	00008067          	ret
    80000d08:	01853583          	ld	a1,24(a0)
    80000d0c:	00002517          	auipc	a0,0x2
    80000d10:	dac50513          	addi	a0,a0,-596 # 80002ab8 <names+0x580>
    80000d14:	2c5000ef          	jal	ra,800017d8 <printf>
    80000d18:	fb9ff06f          	j	80000cd0 <vm_handler+0x88>
    80000d1c:	00100513          	li	a0,1
    80000d20:	6e0000ef          	jal	ra,80001400 <iset>
    80000d24:	00012623          	sw	zero,12(sp)
    80000d28:	00c12783          	lw	a5,12(sp)
    80000d2c:	000f4737          	lui	a4,0xf4
    80000d30:	23f70713          	addi	a4,a4,575 # f423f <_entry_offset+0xf423f>
    80000d34:	0007879b          	sext.w	a5,a5
    80000d38:	00f74e63          	blt	a4,a5,80000d54 <vm_handler+0x10c>
    80000d3c:	00c12783          	lw	a5,12(sp)
    80000d40:	0017879b          	addiw	a5,a5,1
    80000d44:	00f12623          	sw	a5,12(sp)
    80000d48:	00c12783          	lw	a5,12(sp)
    80000d4c:	0007879b          	sext.w	a5,a5
    80000d50:	fef756e3          	ble	a5,a4,80000d3c <vm_handler+0xf4>
    80000d54:	05043583          	ld	a1,80(s0)
    80000d58:	00002517          	auipc	a0,0x2
    80000d5c:	d9050513          	addi	a0,a0,-624 # 80002ae8 <names+0x5b0>
    80000d60:	279000ef          	jal	ra,800017d8 <printf>
    80000d64:	f6dff06f          	j	80000cd0 <vm_handler+0x88>
    80000d68:	02800613          	li	a2,40
    80000d6c:	00002597          	auipc	a1,0x2
    80000d70:	d8458593          	addi	a1,a1,-636 # 80002af0 <names+0x5b8>
    80000d74:	00001517          	auipc	a0,0x1
    80000d78:	65c50513          	addi	a0,a0,1628 # 800023d0 <dy.1475+0x70>
    80000d7c:	25d000ef          	jal	ra,800017d8 <printf>
    80000d80:	00100513          	li	a0,1
    80000d84:	24c000ef          	jal	ra,80000fd0 <halt>

0000000080000d88 <vm_test>:
    80000d88:	fd010113          	addi	sp,sp,-48
    80000d8c:	00300613          	li	a2,3
    80000d90:	00002597          	auipc	a1,0x2
    80000d94:	dc058593          	addi	a1,a1,-576 # 80002b50 <names+0x618>
    80000d98:	00002517          	auipc	a0,0x2
    80000d9c:	dc050513          	addi	a0,a0,-576 # 80002b58 <names+0x620>
    80000da0:	02113423          	sd	ra,40(sp)
    80000da4:	02813023          	sd	s0,32(sp)
    80000da8:	00913c23          	sd	s1,24(sp)
    80000dac:	01213823          	sd	s2,16(sp)
    80000db0:	0a5000ef          	jal	ra,80001654 <strncmp>
    80000db4:	00050e63          	beqz	a0,80000dd0 <vm_test+0x48>
    80000db8:	00002597          	auipc	a1,0x2
    80000dbc:	da858593          	addi	a1,a1,-600 # 80002b60 <names+0x628>
    80000dc0:	00002517          	auipc	a0,0x2
    80000dc4:	d9850513          	addi	a0,a0,-616 # 80002b58 <names+0x620>
    80000dc8:	049000ef          	jal	ra,80001610 <strcmp>
    80000dcc:	10051a63          	bnez	a0,80000ee0 <vm_test+0x158>
    80000dd0:	00093917          	auipc	s2,0x93
    80000dd4:	41890913          	addi	s2,s2,1048 # 800941e8 <prot>
    80000dd8:	00090513          	mv	a0,s2
    80000ddc:	7bc000ef          	jal	ra,80001598 <protect>
    80000de0:	01093603          	ld	a2,16(s2)
    80000de4:	00893583          	ld	a1,8(s2)
    80000de8:	00002517          	auipc	a0,0x2
    80000dec:	da050513          	addi	a0,a0,-608 # 80002b88 <names+0x650>
    80000df0:	1e9000ef          	jal	ra,800017d8 <printf>
    80000df4:	00893783          	ld	a5,8(s2)
    80000df8:	01093483          	ld	s1,16(s2)
    80000dfc:	00094717          	auipc	a4,0x94
    80000e00:	43c70713          	addi	a4,a4,1084 # 80095238 <st>
    80000e04:	00073403          	ld	s0,0(a4)
    80000e08:	40f484b3          	sub	s1,s1,a5
    80000e0c:	0014d493          	srli	s1,s1,0x1
    80000e10:	00f484b3          	add	s1,s1,a5
    80000e14:	00092703          	lw	a4,0(s2)
    80000e18:	0a040c63          	beqz	s0,80000ed0 <vm_test+0x148>
    80000e1c:	02e477b3          	remu	a5,s0,a4
    80000e20:	00078e63          	beqz	a5,80000e3c <vm_test+0xb4>
    80000e24:	00140413          	addi	s0,s0,1
    80000e28:	0080006f          	j	80000e30 <vm_test+0xa8>
    80000e2c:	00068413          	mv	s0,a3
    80000e30:	02e477b3          	remu	a5,s0,a4
    80000e34:	00140693          	addi	a3,s0,1
    80000e38:	fe079ae3          	bnez	a5,80000e2c <vm_test+0xa4>
    80000e3c:	00870733          	add	a4,a4,s0
    80000e40:	00f00613          	li	a2,15
    80000e44:	00010597          	auipc	a1,0x10
    80000e48:	d7458593          	addi	a1,a1,-652 # 80010bb8 <code>
    80000e4c:	00040513          	mv	a0,s0
    80000e50:	00094797          	auipc	a5,0x94
    80000e54:	3ee7b423          	sd	a4,1000(a5) # 80095238 <st>
    80000e58:	059000ef          	jal	ra,800016b0 <memcpy>
    80000e5c:	00300693          	li	a3,3
    80000e60:	00040613          	mv	a2,s0
    80000e64:	00048593          	mv	a1,s1
    80000e68:	00093517          	auipc	a0,0x93
    80000e6c:	38050513          	addi	a0,a0,896 # 800941e8 <prot>
    80000e70:	78c000ef          	jal	ra,800015fc <map>
    80000e74:	00040613          	mv	a2,s0
    80000e78:	00048593          	mv	a1,s1
    80000e7c:	00002517          	auipc	a0,0x2
    80000e80:	d3450513          	addi	a0,a0,-716 # 80002bb0 <names+0x678>
    80000e84:	155000ef          	jal	ra,800017d8 <printf>
    80000e88:	00048693          	mv	a3,s1
    80000e8c:	00093597          	auipc	a1,0x93
    80000e90:	37c58593          	addi	a1,a1,892 # 80094208 <stack.1459>
    80000e94:	00094617          	auipc	a2,0x94
    80000e98:	37460613          	addi	a2,a2,884 # 80095208 <kas>
    80000e9c:	00093517          	auipc	a0,0x93
    80000ea0:	34c50513          	addi	a0,a0,844 # 800941e8 <prot>
    80000ea4:	75c000ef          	jal	ra,80001600 <ucontext>
    80000ea8:	00094797          	auipc	a5,0x94
    80000eac:	38a7bc23          	sd	a0,920(a5) # 80095240 <uctx>
    80000eb0:	00100513          	li	a0,1
    80000eb4:	54c000ef          	jal	ra,80001400 <iset>
    80000eb8:	02013403          	ld	s0,32(sp)
    80000ebc:	02813083          	ld	ra,40(sp)
    80000ec0:	01813483          	ld	s1,24(sp)
    80000ec4:	01013903          	ld	s2,16(sp)
    80000ec8:	03010113          	addi	sp,sp,48
    80000ecc:	5280006f          	j	800013f4 <yield>
    80000ed0:	00010797          	auipc	a5,0x10
    80000ed4:	d0078793          	addi	a5,a5,-768 # 80010bd0 <heap>
    80000ed8:	0007b403          	ld	s0,0(a5)
    80000edc:	f41ff06f          	j	80000e1c <vm_test+0x94>
    80000ee0:	02013403          	ld	s0,32(sp)
    80000ee4:	02813083          	ld	ra,40(sp)
    80000ee8:	01813483          	ld	s1,24(sp)
    80000eec:	01013903          	ld	s2,16(sp)
    80000ef0:	00002517          	auipc	a0,0x2
    80000ef4:	c7850513          	addi	a0,a0,-904 # 80002b68 <names+0x630>
    80000ef8:	03010113          	addi	sp,sp,48
    80000efc:	0dd0006f          	j	800017d8 <printf>

0000000080000f00 <rtc_test>:
    80000f00:	fa010113          	addi	sp,sp,-96
    80000f04:	04913423          	sd	s1,72(sp)
    80000f08:	000f44b7          	lui	s1,0xf4
    80000f0c:	04813823          	sd	s0,80(sp)
    80000f10:	03313c23          	sd	s3,56(sp)
    80000f14:	03413823          	sd	s4,48(sp)
    80000f18:	03513423          	sd	s5,40(sp)
    80000f1c:	03613023          	sd	s6,32(sp)
    80000f20:	04113c23          	sd	ra,88(sp)
    80000f24:	05213023          	sd	s2,64(sp)
    80000f28:	00100413          	li	s0,1
    80000f2c:	24048493          	addi	s1,s1,576 # f4240 <_entry_offset+0xf4240>
    80000f30:	00002a17          	auipc	s4,0x2
    80000f34:	cb0a0a13          	addi	s4,s4,-848 # 80002be0 <names+0x6a8>
    80000f38:	00100993          	li	s3,1
    80000f3c:	00002a97          	auipc	s5,0x2
    80000f40:	cd4a8a93          	addi	s5,s5,-812 # 80002c10 <names+0x6d8>
    80000f44:	00002b17          	auipc	s6,0x2
    80000f48:	cbcb0b13          	addi	s6,s6,-836 # 80002c00 <names+0x6c8>
    80000f4c:	0004091b          	sext.w	s2,s0
    80000f50:	00810593          	addi	a1,sp,8
    80000f54:	00600513          	li	a0,6
    80000f58:	194000ef          	jal	ra,800010ec <ioe_read>
    80000f5c:	00813783          	ld	a5,8(sp)
    80000f60:	0297d7b3          	divu	a5,a5,s1
    80000f64:	fe87e6e3          	bltu	a5,s0,80000f50 <rtc_test+0x50>
    80000f68:	00810593          	addi	a1,sp,8
    80000f6c:	00500513          	li	a0,5
    80000f70:	17c000ef          	jal	ra,800010ec <ioe_read>
    80000f74:	01c12803          	lw	a6,28(sp)
    80000f78:	01812783          	lw	a5,24(sp)
    80000f7c:	01412703          	lw	a4,20(sp)
    80000f80:	01012683          	lw	a3,16(sp)
    80000f84:	00c12603          	lw	a2,12(sp)
    80000f88:	00812583          	lw	a1,8(sp)
    80000f8c:	000a0513          	mv	a0,s4
    80000f90:	049000ef          	jal	ra,800017d8 <printf>
    80000f94:	01340c63          	beq	s0,s3,80000fac <rtc_test+0xac>
    80000f98:	00090593          	mv	a1,s2
    80000f9c:	000a8513          	mv	a0,s5
    80000fa0:	039000ef          	jal	ra,800017d8 <printf>
    80000fa4:	00140413          	addi	s0,s0,1
    80000fa8:	fa5ff06f          	j	80000f4c <rtc_test+0x4c>
    80000fac:	00100593          	li	a1,1
    80000fb0:	000b0513          	mv	a0,s6
    80000fb4:	025000ef          	jal	ra,800017d8 <printf>
    80000fb8:	00140413          	addi	s0,s0,1
    80000fbc:	f91ff06f          	j	80000f4c <rtc_test+0x4c>

0000000080000fc0 <putch>:
    80000fc0:	00500793          	li	a5,5
    80000fc4:	01d79793          	slli	a5,a5,0x1d
    80000fc8:	3ea78c23          	sb	a0,1016(a5)
    80000fcc:	00008067          	ret

0000000080000fd0 <halt>:
    80000fd0:	00050513          	mv	a0,a0
    80000fd4:	00100073          	ebreak
    80000fd8:	0000006f          	j	80000fd8 <halt+0x8>

0000000080000fdc <_trm_init>:
    80000fdc:	ff010113          	addi	sp,sp,-16
    80000fe0:	00002517          	auipc	a0,0x2
    80000fe4:	dc050513          	addi	a0,a0,-576 # 80002da0 <mainargs>
    80000fe8:	00113423          	sd	ra,8(sp)
    80000fec:	824ff0ef          	jal	ra,80000010 <main>
    80000ff0:	00050513          	mv	a0,a0
    80000ff4:	00100073          	ebreak
    80000ff8:	0000006f          	j	80000ff8 <_trm_init+0x1c>

0000000080000ffc <__am_timer_config>:
    80000ffc:	00100793          	li	a5,1
    80001000:	00f50023          	sb	a5,0(a0)
    80001004:	00f500a3          	sb	a5,1(a0)
    80001008:	00008067          	ret

000000008000100c <__am_input_config>:
    8000100c:	00100793          	li	a5,1
    80001010:	00f50023          	sb	a5,0(a0)
    80001014:	00008067          	ret

0000000080001018 <__am_uart_config>:
    80001018:	00050023          	sb	zero,0(a0)
    8000101c:	00008067          	ret

0000000080001020 <__am_net_config>:
    80001020:	00050023          	sb	zero,0(a0)
    80001024:	00008067          	ret

0000000080001028 <fail>:
    80001028:	ff010113          	addi	sp,sp,-16
    8000102c:	00813023          	sd	s0,0(sp)
    80001030:	00113423          	sd	ra,8(sp)
    80001034:	00002417          	auipc	s0,0x2
    80001038:	bec40413          	addi	s0,s0,-1044 # 80002c20 <names+0x6e8>
    8000103c:	04100513          	li	a0,65
    80001040:	00140413          	addi	s0,s0,1
    80001044:	f7dff0ef          	jal	ra,80000fc0 <putch>
    80001048:	00044503          	lbu	a0,0(s0)
    8000104c:	fe051ae3          	bnez	a0,80001040 <fail+0x18>
    80001050:	00002417          	auipc	s0,0x2
    80001054:	be040413          	addi	s0,s0,-1056 # 80002c30 <names+0x6f8>
    80001058:	06100513          	li	a0,97
    8000105c:	00140413          	addi	s0,s0,1
    80001060:	f61ff0ef          	jal	ra,80000fc0 <putch>
    80001064:	00044503          	lbu	a0,0(s0)
    80001068:	fe051ae3          	bnez	a0,8000105c <fail+0x34>
    8000106c:	00002417          	auipc	s0,0x2
    80001070:	be440413          	addi	s0,s0,-1052 # 80002c50 <names+0x718>
    80001074:	02000513          	li	a0,32
    80001078:	00140413          	addi	s0,s0,1
    8000107c:	f45ff0ef          	jal	ra,80000fc0 <putch>
    80001080:	00044503          	lbu	a0,0(s0)
    80001084:	fe051ae3          	bnez	a0,80001078 <fail+0x50>
    80001088:	00100513          	li	a0,1
    8000108c:	f45ff0ef          	jal	ra,80000fd0 <halt>

0000000080001090 <ioe_init>:
    80001090:	ff010113          	addi	sp,sp,-16
    80001094:	00113423          	sd	ra,8(sp)
    80001098:	00010797          	auipc	a5,0x10
    8000109c:	b4878793          	addi	a5,a5,-1208 # 80010be0 <lut>
    800010a0:	00010697          	auipc	a3,0x10
    800010a4:	f4068693          	addi	a3,a3,-192 # 80010fe0 <next>
    800010a8:	00000617          	auipc	a2,0x0
    800010ac:	f8060613          	addi	a2,a2,-128 # 80001028 <fail>
    800010b0:	00c0006f          	j	800010bc <ioe_init+0x2c>
    800010b4:	00878793          	addi	a5,a5,8
    800010b8:	00d78c63          	beq	a5,a3,800010d0 <ioe_init+0x40>
    800010bc:	0007b703          	ld	a4,0(a5)
    800010c0:	fe071ae3          	bnez	a4,800010b4 <ioe_init+0x24>
    800010c4:	00c7b023          	sd	a2,0(a5)
    800010c8:	00878793          	addi	a5,a5,8
    800010cc:	fed798e3          	bne	a5,a3,800010bc <ioe_init+0x2c>
    800010d0:	0e8000ef          	jal	ra,800011b8 <__am_gpu_init>
    800010d4:	038000ef          	jal	ra,8000110c <__am_timer_init>
    800010d8:	1a0000ef          	jal	ra,80001278 <__am_audio_init>
    800010dc:	00813083          	ld	ra,8(sp)
    800010e0:	00100513          	li	a0,1
    800010e4:	01010113          	addi	sp,sp,16
    800010e8:	00008067          	ret

00000000800010ec <ioe_read>:
    800010ec:	00351513          	slli	a0,a0,0x3
    800010f0:	00010797          	auipc	a5,0x10
    800010f4:	af078793          	addi	a5,a5,-1296 # 80010be0 <lut>
    800010f8:	00a78533          	add	a0,a5,a0
    800010fc:	00053303          	ld	t1,0(a0)
    80001100:	00058513          	mv	a0,a1
    80001104:	00030067          	jr	t1

0000000080001108 <ioe_write>:
    80001108:	fe5ff06f          	j	800010ec <ioe_read>

000000008000110c <__am_timer_init>:
    8000110c:	00500793          	li	a5,5
    80001110:	01d79793          	slli	a5,a5,0x1d
    80001114:	0487a783          	lw	a5,72(a5)
    80001118:	02079793          	slli	a5,a5,0x20
    8000111c:	0207d793          	srli	a5,a5,0x20
    80001120:	00094717          	auipc	a4,0x94
    80001124:	12f73423          	sd	a5,296(a4) # 80095248 <boot_time>
    80001128:	00008067          	ret

000000008000112c <__am_timer_uptime>:
    8000112c:	00500793          	li	a5,5
    80001130:	01d79793          	slli	a5,a5,0x1d
    80001134:	04c7a703          	lw	a4,76(a5)
    80001138:	0487a783          	lw	a5,72(a5)
    8000113c:	00094697          	auipc	a3,0x94
    80001140:	10c68693          	addi	a3,a3,268 # 80095248 <boot_time>
    80001144:	02071713          	slli	a4,a4,0x20
    80001148:	00e53023          	sd	a4,0(a0)
    8000114c:	0006b683          	ld	a3,0(a3)
    80001150:	02079793          	slli	a5,a5,0x20
    80001154:	0207d793          	srli	a5,a5,0x20
    80001158:	00e7e7b3          	or	a5,a5,a4
    8000115c:	40d787b3          	sub	a5,a5,a3
    80001160:	00f53023          	sd	a5,0(a0)
    80001164:	00008067          	ret

0000000080001168 <__am_timer_rtc>:
    80001168:	76c00793          	li	a5,1900
    8000116c:	00052a23          	sw	zero,20(a0)
    80001170:	00052823          	sw	zero,16(a0)
    80001174:	00052623          	sw	zero,12(a0)
    80001178:	00052423          	sw	zero,8(a0)
    8000117c:	00052223          	sw	zero,4(a0)
    80001180:	00f52023          	sw	a5,0(a0)
    80001184:	00008067          	ret

0000000080001188 <__am_input_keybrd>:
    80001188:	00500793          	li	a5,5
    8000118c:	01d79793          	slli	a5,a5,0x1d
    80001190:	0607d783          	lhu	a5,96(a5)
    80001194:	03079793          	slli	a5,a5,0x30
    80001198:	0307d793          	srli	a5,a5,0x30
    8000119c:	0107971b          	slliw	a4,a5,0x10
    800011a0:	0107571b          	srliw	a4,a4,0x10
    800011a4:	00f7571b          	srliw	a4,a4,0xf
    800011a8:	0ff7f793          	andi	a5,a5,255
    800011ac:	00e50023          	sb	a4,0(a0)
    800011b0:	00f52223          	sw	a5,4(a0)
    800011b4:	00008067          	ret

00000000800011b8 <__am_gpu_init>:
    800011b8:	00008067          	ret

00000000800011bc <__am_gpu_config>:
    800011bc:	00100793          	li	a5,1
    800011c0:	00f50023          	sb	a5,0(a0)
    800011c4:	19000793          	li	a5,400
    800011c8:	00f52223          	sw	a5,4(a0)
    800011cc:	12c00793          	li	a5,300
    800011d0:	000500a3          	sb	zero,1(a0)
    800011d4:	00f52423          	sw	a5,8(a0)
    800011d8:	00052623          	sw	zero,12(a0)
    800011dc:	00008067          	ret

00000000800011e0 <__am_gpu_fbdraw>:
    800011e0:	01052803          	lw	a6,16(a0)
    800011e4:	00052883          	lw	a7,0(a0)
    800011e8:	00452783          	lw	a5,4(a0)
    800011ec:	01452583          	lw	a1,20(a0)
    800011f0:	00853303          	ld	t1,8(a0)
    800011f4:	05005e63          	blez	a6,80001250 <__am_gpu_fbdraw+0x70>
    800011f8:	19000e93          	li	t4,400
    800011fc:	02fe8ebb          	mulw	t4,t4,a5
    80001200:	0008889b          	sext.w	a7,a7
    80001204:	0a100e13          	li	t3,161
    80001208:	01180f3b          	addw	t5,a6,a7
    8000120c:	018e1e13          	slli	t3,t3,0x18
    80001210:	00281813          	slli	a6,a6,0x2
    80001214:	02b05863          	blez	a1,80001244 <__am_gpu_fbdraw+0x64>
    80001218:	01d887b3          	add	a5,a7,t4
    8000121c:	00279793          	slli	a5,a5,0x2
    80001220:	01c787b3          	add	a5,a5,t3
    80001224:	00030693          	mv	a3,t1
    80001228:	00000713          	li	a4,0
    8000122c:	0006a603          	lw	a2,0(a3)
    80001230:	0017071b          	addiw	a4,a4,1
    80001234:	010686b3          	add	a3,a3,a6
    80001238:	00c7a023          	sw	a2,0(a5)
    8000123c:	64078793          	addi	a5,a5,1600
    80001240:	fee596e3          	bne	a1,a4,8000122c <__am_gpu_fbdraw+0x4c>
    80001244:	0018889b          	addiw	a7,a7,1
    80001248:	00430313          	addi	t1,t1,4
    8000124c:	fde894e3          	bne	a7,t5,80001214 <__am_gpu_fbdraw+0x34>
    80001250:	01854783          	lbu	a5,24(a0)
    80001254:	00078a63          	beqz	a5,80001268 <__am_gpu_fbdraw+0x88>
    80001258:	00500793          	li	a5,5
    8000125c:	01d79793          	slli	a5,a5,0x1d
    80001260:	00100713          	li	a4,1
    80001264:	10e7a223          	sw	a4,260(a5)
    80001268:	00008067          	ret

000000008000126c <__am_gpu_status>:
    8000126c:	00100793          	li	a5,1
    80001270:	00f50023          	sb	a5,0(a0)
    80001274:	00008067          	ret

0000000080001278 <__am_audio_init>:
    80001278:	00008067          	ret

000000008000127c <__am_audio_config>:
    8000127c:	00050023          	sb	zero,0(a0)
    80001280:	00008067          	ret

0000000080001284 <__am_audio_ctrl>:
    80001284:	00008067          	ret

0000000080001288 <__am_audio_status>:
    80001288:	00052023          	sw	zero,0(a0)
    8000128c:	00008067          	ret

0000000080001290 <__am_audio_play>:
    80001290:	00008067          	ret

0000000080001294 <__am_disk_config>:
    80001294:	00050023          	sb	zero,0(a0)
    80001298:	00008067          	ret

000000008000129c <__am_disk_status>:
    8000129c:	00008067          	ret

00000000800012a0 <__am_disk_blkio>:
    800012a0:	00008067          	ret

00000000800012a4 <mpe_init>:
    800012a4:	ff010113          	addi	sp,sp,-16
    800012a8:	00813023          	sd	s0,0(sp)
    800012ac:	00113423          	sd	ra,8(sp)
    800012b0:	000500e7          	jalr	a0
    800012b4:	00002417          	auipc	s0,0x2
    800012b8:	96c40413          	addi	s0,s0,-1684 # 80002c20 <names+0x6e8>
    800012bc:	04100513          	li	a0,65
    800012c0:	00140413          	addi	s0,s0,1
    800012c4:	cfdff0ef          	jal	ra,80000fc0 <putch>
    800012c8:	00044503          	lbu	a0,0(s0)
    800012cc:	fe051ae3          	bnez	a0,800012c0 <mpe_init+0x1c>
    800012d0:	00002417          	auipc	s0,0x2
    800012d4:	9f040413          	addi	s0,s0,-1552 # 80002cc0 <names+0x788>
    800012d8:	04d00513          	li	a0,77
    800012dc:	00140413          	addi	s0,s0,1
    800012e0:	ce1ff0ef          	jal	ra,80000fc0 <putch>
    800012e4:	00044503          	lbu	a0,0(s0)
    800012e8:	fe051ae3          	bnez	a0,800012dc <mpe_init+0x38>
    800012ec:	00002417          	auipc	s0,0x2
    800012f0:	9ec40413          	addi	s0,s0,-1556 # 80002cd8 <names+0x7a0>
    800012f4:	02000513          	li	a0,32
    800012f8:	00140413          	addi	s0,s0,1
    800012fc:	cc5ff0ef          	jal	ra,80000fc0 <putch>
    80001300:	00044503          	lbu	a0,0(s0)
    80001304:	fe051ae3          	bnez	a0,800012f8 <mpe_init+0x54>
    80001308:	00100513          	li	a0,1
    8000130c:	cc5ff0ef          	jal	ra,80000fd0 <halt>

0000000080001310 <cpu_current>:
    80001310:	00000513          	li	a0,0
    80001314:	00008067          	ret

0000000080001318 <__am_irq_handle>:
    80001318:	00094797          	auipc	a5,0x94
    8000131c:	f3878793          	addi	a5,a5,-200 # 80095250 <user_handler>
    80001320:	0007b783          	ld	a5,0(a5)
    80001324:	08078063          	beqz	a5,800013a4 <__am_irq_handle+0x8c>
    80001328:	10053703          	ld	a4,256(a0)
    8000132c:	fb010113          	addi	sp,sp,-80
    80001330:	04113423          	sd	ra,72(sp)
    80001334:	02013023          	sd	zero,32(sp)
    80001338:	02013423          	sd	zero,40(sp)
    8000133c:	02013823          	sd	zero,48(sp)
    80001340:	02013c23          	sd	zero,56(sp)
    80001344:	01300693          	li	a3,19
    80001348:	04e6f863          	bleu	a4,a3,80001398 <__am_irq_handle+0x80>
    8000134c:	fff00693          	li	a3,-1
    80001350:	04d71c63          	bne	a4,a3,800013a8 <__am_irq_handle+0x90>
    80001354:	00100713          	li	a4,1
    80001358:	02e12023          	sw	a4,32(sp)
    8000135c:	02013703          	ld	a4,32(sp)
    80001360:	00050593          	mv	a1,a0
    80001364:	00010513          	mv	a0,sp
    80001368:	00e13023          	sd	a4,0(sp)
    8000136c:	02813703          	ld	a4,40(sp)
    80001370:	00e13423          	sd	a4,8(sp)
    80001374:	03013703          	ld	a4,48(sp)
    80001378:	00e13823          	sd	a4,16(sp)
    8000137c:	03813703          	ld	a4,56(sp)
    80001380:	00e13c23          	sd	a4,24(sp)
    80001384:	000780e7          	jalr	a5
    80001388:	02050663          	beqz	a0,800013b4 <__am_irq_handle+0x9c>
    8000138c:	04813083          	ld	ra,72(sp)
    80001390:	05010113          	addi	sp,sp,80
    80001394:	00008067          	ret
    80001398:	00200713          	li	a4,2
    8000139c:	02e12023          	sw	a4,32(sp)
    800013a0:	fbdff06f          	j	8000135c <__am_irq_handle+0x44>
    800013a4:	00008067          	ret
    800013a8:	00400713          	li	a4,4
    800013ac:	02e12023          	sw	a4,32(sp)
    800013b0:	fadff06f          	j	8000135c <__am_irq_handle+0x44>
    800013b4:	02600613          	li	a2,38
    800013b8:	00002597          	auipc	a1,0x2
    800013bc:	98858593          	addi	a1,a1,-1656 # 80002d40 <names+0x808>
    800013c0:	00001517          	auipc	a0,0x1
    800013c4:	01050513          	addi	a0,a0,16 # 800023d0 <dy.1475+0x70>
    800013c8:	410000ef          	jal	ra,800017d8 <printf>
    800013cc:	00100513          	li	a0,1
    800013d0:	c01ff0ef          	jal	ra,80000fd0 <halt>

00000000800013d4 <cte_init>:
    800013d4:	00050793          	mv	a5,a0
    800013d8:	00000717          	auipc	a4,0x0
    800013dc:	03070713          	addi	a4,a4,48 # 80001408 <__am_asm_trap>
    800013e0:	30571073          	csrw	mtvec,a4
    800013e4:	00100513          	li	a0,1
    800013e8:	00094717          	auipc	a4,0x94
    800013ec:	e6f73423          	sd	a5,-408(a4) # 80095250 <user_handler>
    800013f0:	00008067          	ret

00000000800013f4 <yield>:
    800013f4:	fff00893          	li	a7,-1
    800013f8:	00000073          	ecall
    800013fc:	00008067          	ret

0000000080001400 <iset>:
    80001400:	00008067          	ret
    80001404:	0000                	unimp
	...

0000000080001408 <__am_asm_trap>:
    80001408:	ee010113          	addi	sp,sp,-288
    8000140c:	00113423          	sd	ra,8(sp)
    80001410:	00313c23          	sd	gp,24(sp)
    80001414:	02413023          	sd	tp,32(sp)
    80001418:	02513423          	sd	t0,40(sp)
    8000141c:	02613823          	sd	t1,48(sp)
    80001420:	02713c23          	sd	t2,56(sp)
    80001424:	04813023          	sd	s0,64(sp)
    80001428:	04913423          	sd	s1,72(sp)
    8000142c:	04a13823          	sd	a0,80(sp)
    80001430:	04b13c23          	sd	a1,88(sp)
    80001434:	06c13023          	sd	a2,96(sp)
    80001438:	06d13423          	sd	a3,104(sp)
    8000143c:	06e13823          	sd	a4,112(sp)
    80001440:	06f13c23          	sd	a5,120(sp)
    80001444:	09013023          	sd	a6,128(sp)
    80001448:	09113423          	sd	a7,136(sp)
    8000144c:	09213823          	sd	s2,144(sp)
    80001450:	09313c23          	sd	s3,152(sp)
    80001454:	0b413023          	sd	s4,160(sp)
    80001458:	0b513423          	sd	s5,168(sp)
    8000145c:	0b613823          	sd	s6,176(sp)
    80001460:	0b713c23          	sd	s7,184(sp)
    80001464:	0d813023          	sd	s8,192(sp)
    80001468:	0d913423          	sd	s9,200(sp)
    8000146c:	0da13823          	sd	s10,208(sp)
    80001470:	0db13c23          	sd	s11,216(sp)
    80001474:	0fc13023          	sd	t3,224(sp)
    80001478:	0fd13423          	sd	t4,232(sp)
    8000147c:	0fe13823          	sd	t5,240(sp)
    80001480:	0ff13c23          	sd	t6,248(sp)
    80001484:	342022f3          	csrr	t0,mcause
    80001488:	30002373          	csrr	t1,mstatus
    8000148c:	341023f3          	csrr	t2,mepc
    80001490:	10513023          	sd	t0,256(sp)
    80001494:	10613423          	sd	t1,264(sp)
    80001498:	10713823          	sd	t2,272(sp)
    8000149c:	00020537          	lui	a0,0x20
    800014a0:	00a36333          	or	t1,t1,a0
    800014a4:	30031073          	csrw	mstatus,t1
    800014a8:	00010513          	mv	a0,sp
    800014ac:	e6dff0ef          	jal	ra,80001318 <__am_irq_handle>
    800014b0:	10813303          	ld	t1,264(sp)
    800014b4:	11013383          	ld	t2,272(sp)
    800014b8:	30031073          	csrw	mstatus,t1
    800014bc:	34139073          	csrw	mepc,t2
    800014c0:	00813083          	ld	ra,8(sp)
    800014c4:	01813183          	ld	gp,24(sp)
    800014c8:	02013203          	ld	tp,32(sp)
    800014cc:	02813283          	ld	t0,40(sp)
    800014d0:	03013303          	ld	t1,48(sp)
    800014d4:	03813383          	ld	t2,56(sp)
    800014d8:	04013403          	ld	s0,64(sp)
    800014dc:	04813483          	ld	s1,72(sp)
    800014e0:	05013503          	ld	a0,80(sp)
    800014e4:	05813583          	ld	a1,88(sp)
    800014e8:	06013603          	ld	a2,96(sp)
    800014ec:	06813683          	ld	a3,104(sp)
    800014f0:	07013703          	ld	a4,112(sp)
    800014f4:	07813783          	ld	a5,120(sp)
    800014f8:	08013803          	ld	a6,128(sp)
    800014fc:	08813883          	ld	a7,136(sp)
    80001500:	09013903          	ld	s2,144(sp)
    80001504:	09813983          	ld	s3,152(sp)
    80001508:	0a013a03          	ld	s4,160(sp)
    8000150c:	0a813a83          	ld	s5,168(sp)
    80001510:	0b013b03          	ld	s6,176(sp)
    80001514:	0b813b83          	ld	s7,184(sp)
    80001518:	0c013c03          	ld	s8,192(sp)
    8000151c:	0c813c83          	ld	s9,200(sp)
    80001520:	0d013d03          	ld	s10,208(sp)
    80001524:	0d813d83          	ld	s11,216(sp)
    80001528:	0e013e03          	ld	t3,224(sp)
    8000152c:	0e813e83          	ld	t4,232(sp)
    80001530:	0f013f03          	ld	t5,240(sp)
    80001534:	0f813f83          	ld	t6,248(sp)
    80001538:	12010113          	addi	sp,sp,288
    8000153c:	30200073          	mret
    80001540:	0000                	unimp
	...

0000000080001544 <vme_init>:
    80001544:	ff010113          	addi	sp,sp,-16
    80001548:	00113423          	sd	ra,8(sp)
    8000154c:	00050793          	mv	a5,a0
    80001550:	00001537          	lui	a0,0x1
    80001554:	00094717          	auipc	a4,0x94
    80001558:	d0f73223          	sd	a5,-764(a4) # 80095258 <pgalloc_usr>
    8000155c:	000780e7          	jalr	a5
    80001560:	00094717          	auipc	a4,0x94
    80001564:	cca73023          	sd	a0,-832(a4) # 80095220 <kas+0x18>
    80001568:	fff00713          	li	a4,-1
    8000156c:	00c55793          	srli	a5,a0,0xc
    80001570:	03f71713          	slli	a4,a4,0x3f
    80001574:	00e7e7b3          	or	a5,a5,a4
    80001578:	18079073          	csrw	satp,a5
    8000157c:	00813083          	ld	ra,8(sp)
    80001580:	00100793          	li	a5,1
    80001584:	00094717          	auipc	a4,0x94
    80001588:	ccf72e23          	sw	a5,-804(a4) # 80095260 <vme_enable>
    8000158c:	00100513          	li	a0,1
    80001590:	01010113          	addi	sp,sp,16
    80001594:	00008067          	ret

0000000080001598 <protect>:
    80001598:	00094797          	auipc	a5,0x94
    8000159c:	cc078793          	addi	a5,a5,-832 # 80095258 <pgalloc_usr>
    800015a0:	0007b783          	ld	a5,0(a5)
    800015a4:	ff010113          	addi	sp,sp,-16
    800015a8:	00813023          	sd	s0,0(sp)
    800015ac:	00113423          	sd	ra,8(sp)
    800015b0:	00050413          	mv	s0,a0
    800015b4:	00001537          	lui	a0,0x1
    800015b8:	000780e7          	jalr	a5
    800015bc:	00094797          	auipc	a5,0x94
    800015c0:	c4c78793          	addi	a5,a5,-948 # 80095208 <kas>
    800015c4:	0187b583          	ld	a1,24(a5)
    800015c8:	400007b7          	lui	a5,0x40000
    800015cc:	00f43423          	sd	a5,8(s0)
    800015d0:	00100793          	li	a5,1
    800015d4:	01f79793          	slli	a5,a5,0x1f
    800015d8:	00f43823          	sd	a5,16(s0)
    800015dc:	000017b7          	lui	a5,0x1
    800015e0:	00a43c23          	sd	a0,24(s0)
    800015e4:	00f42023          	sw	a5,0(s0)
    800015e8:	00013403          	ld	s0,0(sp)
    800015ec:	00813083          	ld	ra,8(sp)
    800015f0:	00001637          	lui	a2,0x1
    800015f4:	01010113          	addi	sp,sp,16
    800015f8:	0b80006f          	j	800016b0 <memcpy>

00000000800015fc <map>:
    800015fc:	00008067          	ret

0000000080001600 <ucontext>:
    80001600:	ff010113          	addi	sp,sp,-16
    80001604:	00000513          	li	a0,0
    80001608:	01010113          	addi	sp,sp,16
    8000160c:	00008067          	ret

0000000080001610 <strcmp>:
    80001610:	00054703          	lbu	a4,0(a0) # 1000 <_entry_offset+0x1000>
    80001614:	0005c783          	lbu	a5,0(a1)
    80001618:	40f707bb          	subw	a5,a4,a5
    8000161c:	02079063          	bnez	a5,8000163c <strcmp+0x2c>
    80001620:	02070263          	beqz	a4,80001644 <strcmp+0x34>
    80001624:	00150513          	addi	a0,a0,1
    80001628:	00158593          	addi	a1,a1,1
    8000162c:	00054703          	lbu	a4,0(a0)
    80001630:	0005c783          	lbu	a5,0(a1)
    80001634:	40f707bb          	subw	a5,a4,a5
    80001638:	fe0784e3          	beqz	a5,80001620 <strcmp+0x10>
    8000163c:	0007c863          	bltz	a5,8000164c <strcmp+0x3c>
    80001640:	00f037b3          	snez	a5,a5
    80001644:	00078513          	mv	a0,a5
    80001648:	00008067          	ret
    8000164c:	fff00793          	li	a5,-1
    80001650:	ff5ff06f          	j	80001644 <strcmp+0x34>

0000000080001654 <strncmp>:
    80001654:	04060463          	beqz	a2,8000169c <strncmp+0x48>
    80001658:	fff60613          	addi	a2,a2,-1 # fff <_entry_offset+0xfff>
    8000165c:	00054783          	lbu	a5,0(a0)
    80001660:	0005c683          	lbu	a3,0(a1)
    80001664:	02060863          	beqz	a2,80001694 <strncmp+0x40>
    80001668:	02078663          	beqz	a5,80001694 <strncmp+0x40>
    8000166c:	02f69463          	bne	a3,a5,80001694 <strncmp+0x40>
    80001670:	00150513          	addi	a0,a0,1
    80001674:	fff60613          	addi	a2,a2,-1
    80001678:	00158713          	addi	a4,a1,1
    8000167c:	00054783          	lbu	a5,0(a0)
    80001680:	02060263          	beqz	a2,800016a4 <strncmp+0x50>
    80001684:	02078063          	beqz	a5,800016a4 <strncmp+0x50>
    80001688:	00074683          	lbu	a3,0(a4)
    8000168c:	00070593          	mv	a1,a4
    80001690:	fef680e3          	beq	a3,a5,80001670 <strncmp+0x1c>
    80001694:	40d7853b          	subw	a0,a5,a3
    80001698:	00008067          	ret
    8000169c:	00000513          	li	a0,0
    800016a0:	00008067          	ret
    800016a4:	0015c683          	lbu	a3,1(a1)
    800016a8:	40d7853b          	subw	a0,a5,a3
    800016ac:	00008067          	ret

00000000800016b0 <memcpy>:
    800016b0:	00060e63          	beqz	a2,800016cc <memcpy+0x1c>
    800016b4:	00c50633          	add	a2,a0,a2
    800016b8:	00158593          	addi	a1,a1,1
    800016bc:	fff5c783          	lbu	a5,-1(a1)
    800016c0:	00150513          	addi	a0,a0,1
    800016c4:	fef50fa3          	sb	a5,-1(a0)
    800016c8:	fea618e3          	bne	a2,a0,800016b8 <memcpy+0x8>
    800016cc:	00008067          	ret

00000000800016d0 <rand>:
    800016d0:	00010697          	auipc	a3,0x10
    800016d4:	91068693          	addi	a3,a3,-1776 # 80010fe0 <next>
    800016d8:	0006b783          	ld	a5,0(a3)
    800016dc:	41c65737          	lui	a4,0x41c65
    800016e0:	e6d70713          	addi	a4,a4,-403 # 41c64e6d <_entry_offset+0x41c64e6d>
    800016e4:	02e787b3          	mul	a5,a5,a4
    800016e8:	00003737          	lui	a4,0x3
    800016ec:	03970713          	addi	a4,a4,57 # 3039 <_entry_offset+0x3039>
    800016f0:	00e787b3          	add	a5,a5,a4
    800016f4:	02179513          	slli	a0,a5,0x21
    800016f8:	00f6b023          	sd	a5,0(a3)
    800016fc:	03155513          	srli	a0,a0,0x31
    80001700:	00008067          	ret

0000000080001704 <printint>:
    80001704:	00051463          	bnez	a0,8000170c <printint+0x8>
    80001708:	00008067          	ret
    8000170c:	fe010113          	addi	sp,sp,-32
    80001710:	00913423          	sd	s1,8(sp)
    80001714:	00a00493          	li	s1,10
    80001718:	00813823          	sd	s0,16(sp)
    8000171c:	00050413          	mv	s0,a0
    80001720:	0295453b          	divw	a0,a0,s1
    80001724:	00113c23          	sd	ra,24(sp)
    80001728:	fddff0ef          	jal	ra,80001704 <printint>
    8000172c:	0294653b          	remw	a0,s0,s1
    80001730:	01013403          	ld	s0,16(sp)
    80001734:	01813083          	ld	ra,24(sp)
    80001738:	00813483          	ld	s1,8(sp)
    8000173c:	02010113          	addi	sp,sp,32
    80001740:	0305051b          	addiw	a0,a0,48
    80001744:	0ff57513          	andi	a0,a0,255
    80001748:	879ff06f          	j	80000fc0 <putch>

000000008000174c <printhex>:
    8000174c:	fe010113          	addi	sp,sp,-32
    80001750:	00913423          	sd	s1,8(sp)
    80001754:	00113c23          	sd	ra,24(sp)
    80001758:	00813823          	sd	s0,16(sp)
    8000175c:	0005049b          	sext.w	s1,a0
    80001760:	04048063          	beqz	s1,800017a0 <printhex+0x54>
    80001764:	00050413          	mv	s0,a0
    80001768:	0044d51b          	srliw	a0,s1,0x4
    8000176c:	0005051b          	sext.w	a0,a0
    80001770:	00100593          	li	a1,1
    80001774:	fd9ff0ef          	jal	ra,8000174c <printhex>
    80001778:	00f4f493          	andi	s1,s1,15
    8000177c:	00900793          	li	a5,9
    80001780:	00f47513          	andi	a0,s0,15
    80001784:	0297fe63          	bleu	s1,a5,800017c0 <printhex+0x74>
    80001788:	05750513          	addi	a0,a0,87
    8000178c:	01013403          	ld	s0,16(sp)
    80001790:	01813083          	ld	ra,24(sp)
    80001794:	00813483          	ld	s1,8(sp)
    80001798:	02010113          	addi	sp,sp,32
    8000179c:	825ff06f          	j	80000fc0 <putch>
    800017a0:	00100793          	li	a5,1
    800017a4:	03000513          	li	a0,48
    800017a8:	fef592e3          	bne	a1,a5,8000178c <printhex+0x40>
    800017ac:	01813083          	ld	ra,24(sp)
    800017b0:	01013403          	ld	s0,16(sp)
    800017b4:	00813483          	ld	s1,8(sp)
    800017b8:	02010113          	addi	sp,sp,32
    800017bc:	00008067          	ret
    800017c0:	01013403          	ld	s0,16(sp)
    800017c4:	01813083          	ld	ra,24(sp)
    800017c8:	00813483          	ld	s1,8(sp)
    800017cc:	03050513          	addi	a0,a0,48
    800017d0:	02010113          	addi	sp,sp,32
    800017d4:	fecff06f          	j	80000fc0 <putch>

00000000800017d8 <printf>:
    800017d8:	f6010113          	addi	sp,sp,-160
    800017dc:	08f13423          	sd	a5,136(sp)
    800017e0:	06810793          	addi	a5,sp,104
    800017e4:	04813823          	sd	s0,80(sp)
    800017e8:	05213023          	sd	s2,64(sp)
    800017ec:	03313c23          	sd	s3,56(sp)
    800017f0:	03413823          	sd	s4,48(sp)
    800017f4:	03513423          	sd	s5,40(sp)
    800017f8:	03613023          	sd	s6,32(sp)
    800017fc:	01713c23          	sd	s7,24(sp)
    80001800:	04113c23          	sd	ra,88(sp)
    80001804:	04913423          	sd	s1,72(sp)
    80001808:	00050413          	mv	s0,a0
    8000180c:	06b13423          	sd	a1,104(sp)
    80001810:	06c13823          	sd	a2,112(sp)
    80001814:	06d13c23          	sd	a3,120(sp)
    80001818:	08e13023          	sd	a4,128(sp)
    8000181c:	09013823          	sd	a6,144(sp)
    80001820:	09113c23          	sd	a7,152(sp)
    80001824:	00f13423          	sd	a5,8(sp)
    80001828:	02500913          	li	s2,37
    8000182c:	06400993          	li	s3,100
    80001830:	00a00b93          	li	s7,10
    80001834:	07300a13          	li	s4,115
    80001838:	07800b13          	li	s6,120
    8000183c:	06300a93          	li	s5,99
    80001840:	00044503          	lbu	a0,0(s0)
    80001844:	00050c63          	beqz	a0,8000185c <printf+0x84>
    80001848:	05250263          	beq	a0,s2,8000188c <printf+0xb4>
    8000184c:	f74ff0ef          	jal	ra,80000fc0 <putch>
    80001850:	00140413          	addi	s0,s0,1
    80001854:	00044503          	lbu	a0,0(s0)
    80001858:	fe0518e3          	bnez	a0,80001848 <printf+0x70>
    8000185c:	05813083          	ld	ra,88(sp)
    80001860:	05013403          	ld	s0,80(sp)
    80001864:	04813483          	ld	s1,72(sp)
    80001868:	04013903          	ld	s2,64(sp)
    8000186c:	03813983          	ld	s3,56(sp)
    80001870:	03013a03          	ld	s4,48(sp)
    80001874:	02813a83          	ld	s5,40(sp)
    80001878:	02013b03          	ld	s6,32(sp)
    8000187c:	01813b83          	ld	s7,24(sp)
    80001880:	00100513          	li	a0,1
    80001884:	0a010113          	addi	sp,sp,160
    80001888:	00008067          	ret
    8000188c:	00144503          	lbu	a0,1(s0)
    80001890:	00240413          	addi	s0,s0,2
    80001894:	05350463          	beq	a0,s3,800018dc <printf+0x104>
    80001898:	02a9f463          	bleu	a0,s3,800018c0 <printf+0xe8>
    8000189c:	07450c63          	beq	a0,s4,80001914 <printf+0x13c>
    800018a0:	07651663          	bne	a0,s6,8000190c <printf+0x134>
    800018a4:	00813783          	ld	a5,8(sp)
    800018a8:	00000593          	li	a1,0
    800018ac:	0007a503          	lw	a0,0(a5) # 1000 <_entry_offset+0x1000>
    800018b0:	00878793          	addi	a5,a5,8
    800018b4:	00f13423          	sd	a5,8(sp)
    800018b8:	e95ff0ef          	jal	ra,8000174c <printhex>
    800018bc:	f85ff06f          	j	80001840 <printf+0x68>
    800018c0:	05551663          	bne	a0,s5,8000190c <printf+0x134>
    800018c4:	00813783          	ld	a5,8(sp)
    800018c8:	0007c503          	lbu	a0,0(a5)
    800018cc:	00878793          	addi	a5,a5,8
    800018d0:	00f13423          	sd	a5,8(sp)
    800018d4:	eecff0ef          	jal	ra,80000fc0 <putch>
    800018d8:	f69ff06f          	j	80001840 <printf+0x68>
    800018dc:	00813783          	ld	a5,8(sp)
    800018e0:	0007a483          	lw	s1,0(a5)
    800018e4:	00878793          	addi	a5,a5,8
    800018e8:	00f13423          	sd	a5,8(sp)
    800018ec:	f4048ae3          	beqz	s1,80001840 <printf+0x68>
    800018f0:	0374c53b          	divw	a0,s1,s7
    800018f4:	e11ff0ef          	jal	ra,80001704 <printint>
    800018f8:	0374e53b          	remw	a0,s1,s7
    800018fc:	0305051b          	addiw	a0,a0,48
    80001900:	0ff57513          	andi	a0,a0,255
    80001904:	ebcff0ef          	jal	ra,80000fc0 <putch>
    80001908:	f39ff06f          	j	80001840 <printf+0x68>
    8000190c:	eb4ff0ef          	jal	ra,80000fc0 <putch>
    80001910:	f31ff06f          	j	80001840 <printf+0x68>
    80001914:	00813783          	ld	a5,8(sp)
    80001918:	0007b483          	ld	s1,0(a5)
    8000191c:	00878793          	addi	a5,a5,8
    80001920:	00f13423          	sd	a5,8(sp)
    80001924:	0004c503          	lbu	a0,0(s1)
    80001928:	f0050ce3          	beqz	a0,80001840 <printf+0x68>
    8000192c:	00148493          	addi	s1,s1,1
    80001930:	e90ff0ef          	jal	ra,80000fc0 <putch>
    80001934:	0004c503          	lbu	a0,0(s1)
    80001938:	f00504e3          	beqz	a0,80001840 <printf+0x68>
    8000193c:	00148493          	addi	s1,s1,1
    80001940:	e80ff0ef          	jal	ra,80000fc0 <putch>
    80001944:	0004c503          	lbu	a0,0(s1)
    80001948:	fe0512e3          	bnez	a0,8000192c <printf+0x154>
    8000194c:	ef5ff06f          	j	80001840 <printf+0x68>
